Boostnote:_IO_stdin_used
Boostnote:_ZN2v810CpuProfile6DeleteEv
Boostnote:_ZN2v810Int16Array3NewENS_5LocalINS_11ArrayBufferEEEmm
Boostnote:_ZN2v810Int16Array3NewENS_5LocalINS_17SharedArrayBufferEEEmm
Boostnote:_ZN2v810Int16Array9CheckCastEPNS_5ValueE
Boostnote:_ZN2v810Int32Array3NewENS_5LocalINS_11ArrayBufferEEEmm
Boostnote:_ZN2v810Int32Array3NewENS_5LocalINS_17SharedArrayBufferEEEmm
Boostnote:_ZN2v810Int32Array9CheckCastEPNS_5ValueE
Boostnote:_ZN2v810StackTrace17CurrentStackTraceEPNS_7IsolateEiNS0_17StackTraceOptionsE
Boostnote:_ZN2v810TypedArray6LengthEv
Boostnote:_ZN2v810TypedArray9CheckCastEPNS_5ValueE
Boostnote:_ZN2v810Uint8Array3NewENS_5LocalINS_11ArrayBufferEEEmm
Boostnote:_ZN2v810Uint8Array3NewENS_5LocalINS_17SharedArrayBufferEEEmm
Boostnote:_ZN2v810Uint8Array9CheckCastEPNS_5ValueE
Boostnote:_ZN2v811ArrayBuffer11ExternalizeEv
Boostnote:_ZN2v811ArrayBuffer11GetContentsEv
Boostnote:_ZN2v811ArrayBuffer3NewEPNS_7IsolateEPvmNS_23ArrayBufferCreationModeE
Boostnote:_ZN2v811ArrayBuffer3NewEPNS_7IsolateEm
Boostnote:_ZN2v811ArrayBuffer6NeuterEv
Boostnote:_ZN2v811ArrayBuffer9Allocator19NewDefaultAllocatorEv
Boostnote:_ZN2v811ArrayBuffer9Allocator7ReallocEPvm
Boostnote:_ZN2v811ArrayBuffer9CheckCastEPNS_5ValueE
Boostnote:_ZN2v811CpuProfiler13CollectSampleEPNS_7IsolateE
Boostnote:_ZN2v811CpuProfiler13CollectSampleEv
Boostnote:_ZN2v811CpuProfiler13StopProfilingENS_5LocalINS_6StringEEE
Boostnote:_ZN2v811CpuProfiler14StartProfilingENS_5LocalINS_6StringEEENS_16CpuProfilingModeEb
Boostnote:_ZN2v811CpuProfiler14StartProfilingENS_5LocalINS_6StringEEEb
Boostnote:_ZN2v811CpuProfiler19SetSamplingIntervalEi
Boostnote:_ZN2v811CpuProfiler3NewEPNS_7IsolateE
Boostnote:_ZN2v811CpuProfiler7DisposeEv
Boostnote:_ZN2v811CpuProfiler7SetIdleEb
Boostnote:_ZN2v811HandleScope10InitializeEPNS_7IsolateE
Boostnote:_ZN2v811HandleScope12CreateHandleEPNS_8internal24NeverReadOnlySpaceObjectEPNS1_6ObjectE
Boostnote:_ZN2v811HandleScope12CreateHandleEPNS_8internal7IsolateEPNS1_6ObjectE
Boostnote:_ZN2v811HandleScope15NumberOfHandlesEPNS_7IsolateE
Boostnote:_ZN2v811HandleScopeC1EPNS_7IsolateE
Boostnote:_ZN2v811HandleScopeC2EPNS_7IsolateE
Boostnote:_ZN2v811HandleScopeD1Ev
Boostnote:_ZN2v811HandleScopeD2Ev
Boostnote:_ZN2v811HandleScopedaEPvm
Boostnote:_ZN2v811HandleScopedlEPvm
Boostnote:_ZN2v811HandleScopenaEm
Boostnote:_ZN2v811HandleScopenwEm
Boostnote:_ZN2v811Uint16Array3NewENS_5LocalINS_11ArrayBufferEEEmm
Boostnote:_ZN2v811Uint16Array3NewENS_5LocalINS_17SharedArrayBufferEEEmm
Boostnote:_ZN2v811Uint16Array9CheckCastEPNS_5ValueE
Boostnote:_ZN2v811Uint32Array3NewENS_5LocalINS_11ArrayBufferEEEmm
Boostnote:_ZN2v811Uint32Array3NewENS_5LocalINS_17SharedArrayBufferEEEmm
Boostnote:_ZN2v811Uint32Array9CheckCastEPNS_5ValueE
Boostnote:_ZN2v812BigIntObject3NewEPNS_7IsolateEl
Boostnote:_ZN2v812BigIntObject9CheckCastEPNS_5ValueE
Boostnote:_ZN2v812Float32Array3NewENS_5LocalINS_11ArrayBufferEEEmm
Boostnote:_ZN2v812Float32Array3NewENS_5LocalINS_17SharedArrayBufferEEEmm
Boostnote:_ZN2v812Float32Array9CheckCastEPNS_5ValueE
Boostnote:_ZN2v812Float64Array3NewENS_5LocalINS_11ArrayBufferEEEmm
Boostnote:_ZN2v812Float64Array3NewENS_5LocalINS_17SharedArrayBufferEEEmm
Boostnote:_ZN2v812Float64Array9CheckCastEPNS_5ValueE
Boostnote:_ZN2v812HeapProfiler11GetObjectIdENS_5LocalINS_5ValueEEE
Boostnote:_ZN2v812HeapProfiler12GetHeapStatsEPNS_12OutputStreamEPl
Boostnote:_ZN2v812HeapProfiler14ClearObjectIdsEv
Boostnote:_ZN2v812HeapProfiler14FindObjectByIdEj
Boostnote:_ZN2v812HeapProfiler15GetHeapSnapshotEi
Boostnote:_ZN2v812HeapProfiler16GetSnapshotCountEv
Boostnote:_ZN2v812HeapProfiler16TakeHeapSnapshotEPNS_15ActivityControlEPNS0_18ObjectNameResolverE
Boostnote:_ZN2v812HeapProfiler16kUnknownObjectIdE
Boostnote:_ZN2v812HeapProfiler20GetAllocationProfileEv
Boostnote:_ZN2v812HeapProfiler22DeleteAllHeapSnapshotsEv
Boostnote:_ZN2v812HeapProfiler23StopTrackingHeapObjectsEv
Boostnote:_ZN2v812HeapProfiler24StartTrackingHeapObjectsEb
Boostnote:_ZN2v812HeapProfiler24StopSamplingHeapProfilerEv
Boostnote:_ZN2v812HeapProfiler25StartSamplingHeapProfilerEmiNS0_13SamplingFlagsE
Boostnote:_ZN2v812HeapProfiler27SetGetRetainerInfosCallbackEPFNS0_13RetainerInfosEPNS_7IsolateEE
Boostnote:_ZN2v812HeapProfiler27SetWrapperClassInfoProviderEtPFPNS_18RetainedObjectInfoEtNS_5LocalINS_5ValueEEEE
Boostnote:_ZN2v812HeapProfiler29AddBuildEmbedderGraphCallbackEPFvPNS_7IsolateEPNS_13EmbedderGraphEPvES5_
Boostnote:_ZN2v812HeapProfiler29SetBuildEmbedderGraphCallbackEPFvPNS_7IsolateEPNS_13EmbedderGraphEE
Boostnote:_ZN2v812HeapProfiler32RemoveBuildEmbedderGraphCallbackEPFvPNS_7IsolateEPNS_13EmbedderGraphEPvES5_
Boostnote:_ZN2v812HeapSnapshot6DeleteEv
Boostnote:_ZN2v812NumberObject3NewEPNS_7IsolateEd
Boostnote:_ZN2v812NumberObject9CheckCastEPNS_5ValueE
Boostnote:_ZN2v812StringObject3NewENS_5LocalINS_6StringEEE
Boostnote:_ZN2v812StringObject3NewEPNS_7IsolateENS_5LocalINS_6StringEEE
Boostnote:_ZN2v812StringObject9CheckCastEPNS_5ValueE
Boostnote:_ZN2v812SymbolObject3NewEPNS_7IsolateENS_5LocalINS_6SymbolEEE
Boostnote:_ZN2v812SymbolObject9CheckCastEPNS_5ValueE
Boostnote:_ZN2v813BigInt64Array3NewENS_5LocalINS_11ArrayBufferEEEmm
Boostnote:_ZN2v813BigInt64Array3NewENS_5LocalINS_17SharedArrayBufferEEEmm
Boostnote:_ZN2v813BigInt64Array9CheckCastEPNS_5ValueE
Boostnote:_ZN2v813BooleanObject3NewEPNS_7IsolateEb
Boostnote:_ZN2v813BooleanObject9CheckCastEPNS_5ValueE
Boostnote:_ZN2v813UnboundScript12GetSourceURLEv
Boostnote:_ZN2v813UnboundScript13GetLineNumberEi
Boostnote:_ZN2v813UnboundScript13GetScriptNameEv
Boostnote:_ZN2v813UnboundScript19GetSourceMappingURLEv
Boostnote:_ZN2v813UnboundScript20BindToCurrentContextEv
Boostnote:_ZN2v813UnboundScript5GetIdEv
Boostnote:_ZN2v813WasmStreaming15OnBytesReceivedEPKhm
Boostnote:_ZN2v813WasmStreaming5AbortENS_10MaybeLocalINS_5ValueEEE
Boostnote:_ZN2v813WasmStreaming6FinishEv
Boostnote:_ZN2v813WasmStreaming6UnpackEPNS_7IsolateENS_5LocalINS_5ValueEEE
Boostnote:_ZN2v813WasmStreamingC1ENSt3__110unique_ptrINS0_17WasmStreamingImplENS1_14default_deleteIS3_EEEE
Boostnote:_ZN2v813WasmStreamingC2ENSt3__110unique_ptrINS0_17WasmStreamingImplENS1_14default_deleteIS3_EEEE
Boostnote:_ZN2v813WasmStreamingD1Ev
Boostnote:_ZN2v813WasmStreamingD2Ev
Boostnote:_ZN2v814BigUint64Array3NewENS_5LocalINS_11ArrayBufferEEEmm
Boostnote:_ZN2v814BigUint64Array3NewENS_5LocalINS_17SharedArrayBufferEEEmm
Boostnote:_ZN2v814BigUint64Array9CheckCastEPNS_5ValueE
Boostnote:_ZN2v814HeapStatisticsC1Ev
Boostnote:_ZN2v814HeapStatisticsC2Ev
Boostnote:_ZN2v814ObjectTemplate10SetHandlerERKNS_33NamedPropertyHandlerConfigurationE
Boostnote:_ZN2v814ObjectTemplate10SetHandlerERKNS_35IndexedPropertyHandlerConfigurationE
Boostnote:_ZN2v814ObjectTemplate11NewInstanceENS_5LocalINS_7ContextEEE
Boostnote:_ZN2v814ObjectTemplate11NewInstanceEv
Boostnote:_ZN2v814ObjectTemplate11SetAccessorENS_5LocalINS_4NameEEEPFvS3_RKNS_20PropertyCallbackInfoINS_5ValueEEEEPFvS3_NS1_IS5_EERKNS4_IvEEESB_NS_13AccessControlENS_17PropertyAttributeENS1_INS_17AccessorSignatureEEENS_14SideEffectTypeE
Boostnote:_ZN2v814ObjectTemplate11SetAccessorENS_5LocalINS_6StringEEEPFvS3_RKNS_20PropertyCallbackInfoINS_5ValueEEEEPFvS3_NS1_IS5_EERKNS4_IvEEESB_NS_13AccessControlENS_17PropertyAttributeENS1_INS_17AccessorSignatureEEENS_14SideEffectTypeE
Boostnote:_ZN2v814ObjectTemplate12FromSnapshotEPNS_7IsolateEm
Boostnote:_ZN2v814ObjectTemplate16IsImmutableProtoEv
Boostnote:_ZN2v814ObjectTemplate17SetImmutableProtoEv
Boostnote:_ZN2v814ObjectTemplate18InternalFieldCountEv
Boostnote:_ZN2v814ObjectTemplate18MarkAsUndetectableEv
Boostnote:_ZN2v814ObjectTemplate21SetInternalFieldCountEi
Boostnote:_ZN2v814ObjectTemplate22SetAccessCheckCallbackEPFbNS_5LocalINS_7ContextEEENS1_INS_6ObjectEEENS1_INS_5ValueEEEES7_
Boostnote:_ZN2v814ObjectTemplate23SetNamedPropertyHandlerEPFvNS_5LocalINS_6StringEEERKNS_20PropertyCallbackInfoINS_5ValueEEEEPFvS3_NS1_IS5_EES8_EPFvS3_RKNS4_INS_7IntegerEEEEPFvS3_RKNS4_INS_7BooleanEEEEPFvRKNS4_INS_5ArrayEEEESB_
Boostnote:_ZN2v814ObjectTemplate24SetCallAsFunctionHandlerEPFvRKNS_20FunctionCallbackInfoINS_5ValueEEEENS_5LocalIS2_EE
Boostnote:_ZN2v814ObjectTemplate32SetAccessCheckCallbackAndHandlerEPFbNS_5LocalINS_7ContextEEENS1_INS_6ObjectEEENS1_INS_5ValueEEEERKNS_33NamedPropertyHandlerConfigurationERKNS_35IndexedPropertyHandlerConfigurationES7_
Boostnote:_ZN2v814ObjectTemplate3NewEPNS_7IsolateENS_5LocalINS_16FunctionTemplateEEE
Boostnote:_ZN2v814ObjectTemplate3NewEPNS_8internal7IsolateENS_5LocalINS_16FunctionTemplateEEE
Boostnote:_ZN2v814ObjectTemplate9CheckCastEPNS_4DataE
Boostnote:_ZN2v814PrimitiveArray3GetEPNS_7IsolateEi
Boostnote:_ZN2v814PrimitiveArray3GetEi
Boostnote:_ZN2v814PrimitiveArray3NewEPNS_7IsolateEi
Boostnote:_ZN2v814PrimitiveArray3SetEPNS_7IsolateEiNS_5LocalINS_9PrimitiveEEE
Boostnote:_ZN2v814PrimitiveArray3SetEiNS_5LocalINS_9PrimitiveEEE
Boostnote:_ZN2v814ScriptCompiler10CachedDataC1EPKhiNS1_12BufferPolicyE
Boostnote:_ZN2v814ScriptCompiler10CachedDataC2EPKhiNS1_12BufferPolicyE
Boostnote:_ZN2v814ScriptCompiler10CachedDataD1Ev
Boostnote:_ZN2v814ScriptCompiler10CachedDataD2Ev
Boostnote:_ZN2v814ScriptCompiler13CompileModuleEPNS_7IsolateEPNS0_6SourceENS0_14CompileOptionsENS0_13NoCacheReasonE
Boostnote:_ZN2v814ScriptCompiler14StreamedSourceC1EPNS0_20ExternalSourceStreamENS1_8EncodingE
Boostnote:_ZN2v814ScriptCompiler14StreamedSourceC2EPNS0_20ExternalSourceStreamENS1_8EncodingE
Boostnote:_ZN2v814ScriptCompiler14StreamedSourceD1Ev
Boostnote:_ZN2v814ScriptCompiler14StreamedSourceD2Ev
Boostnote:_ZN2v814ScriptCompiler15CreateCodeCacheENS_5LocalINS_13UnboundScriptEEE
Boostnote:_ZN2v814ScriptCompiler15CreateCodeCacheENS_5LocalINS_13UnboundScriptEEENS1_INS_6StringEEE
Boostnote:_ZN2v814ScriptCompiler15CreateCodeCacheENS_5LocalINS_19UnboundModuleScriptEEE
Boostnote:_ZN2v814ScriptCompiler20CachedDataVersionTagEv
Boostnote:_ZN2v814ScriptCompiler20CompileUnboundScriptEPNS_7IsolateEPNS0_6SourceENS0_14CompileOptionsENS0_13NoCacheReasonE
Boostnote:_ZN2v814ScriptCompiler20ExternalSourceStream11SetBookmarkEv
Boostnote:_ZN2v814ScriptCompiler20ExternalSourceStream15ResetToBookmarkEv
Boostnote:_ZN2v814ScriptCompiler20StartStreamingScriptEPNS_7IsolateEPNS0_14StreamedSourceENS0_14CompileOptionsE
Boostnote:_ZN2v814ScriptCompiler22CompileUnboundInternalEPNS_7IsolateEPNS0_6SourceENS0_14CompileOptionsENS0_13NoCacheReasonE
Boostnote:_ZN2v814ScriptCompiler24CompileFunctionInContextENS_5LocalINS_7ContextEEEPNS0_6SourceEmPNS1_INS_6StringEEEmPNS1_INS_6ObjectEEENS0_14CompileOptionsENS0_13NoCacheReasonE
Boostnote:_ZN2v814ScriptCompiler24CompileFunctionInContextEPNS_7IsolateEPNS0_6SourceENS_5LocalINS_7ContextEEEmPNS5_INS_6StringEEEmPNS5_INS_6ObjectEEE
Boostnote:_ZN2v814ScriptCompiler26CreateCodeCacheForFunctionENS_5LocalINS_8FunctionEEE
Boostnote:_ZN2v814ScriptCompiler26CreateCodeCacheForFunctionENS_5LocalINS_8FunctionEEENS1_INS_6StringEEE
Boostnote:_ZN2v814ScriptCompiler7CompileENS_5LocalINS_7ContextEEEPNS0_14StreamedSourceENS1_INS_6StringEEERKNS_12ScriptOriginE
Boostnote:_ZN2v814ScriptCompiler7CompileENS_5LocalINS_7ContextEEEPNS0_6SourceENS0_14CompileOptionsENS0_13NoCacheReasonE
Boostnote:_ZN2v814ScriptOrModule15GetResourceNameEv
Boostnote:_ZN2v814ScriptOrModule21GetHostDefinedOptionsEv
Boostnote:_ZN2v815ArrayBufferView10ByteLengthEv
Boostnote:_ZN2v815ArrayBufferView10ByteOffsetEv
Boostnote:_ZN2v815ArrayBufferView12CopyContentsEPvm
Boostnote:_ZN2v815ArrayBufferView6BufferEv
Boostnote:_ZN2v815ArrayBufferView9CheckCastEPNS_5ValueE
Boostnote:_ZN2v815MicrotasksScope15GetCurrentDepthEPNS_7IsolateE
Boostnote:_ZN2v815MicrotasksScope17PerformCheckpointEPNS_7IsolateE
Boostnote:_ZN2v815MicrotasksScope19IsRunningMicrotasksEPNS_7IsolateE
Boostnote:_ZN2v815MicrotasksScopeC1EPNS_7IsolateENS0_4TypeE
Boostnote:_ZN2v815MicrotasksScopeC2EPNS_7IsolateENS0_4TypeE
Boostnote:_ZN2v815MicrotasksScopeD1Ev
Boostnote:_ZN2v815MicrotasksScopeD2Ev
Boostnote:_ZN2v815SealHandleScopeC1EPNS_7IsolateE
Boostnote:_ZN2v815SealHandleScopeC2EPNS_7IsolateE
Boostnote:_ZN2v815SealHandleScopeD1Ev
Boostnote:_ZN2v815SealHandleScopeD2Ev
Boostnote:_ZN2v815SealHandleScopedaEPvm
Boostnote:_ZN2v815SealHandleScopedlEPvm
Boostnote:_ZN2v815SealHandleScopenaEm
Boostnote:_ZN2v815SealHandleScopenwEm
Boostnote:_ZN2v815SnapshotCreator10AddContextENS_5LocalINS_7ContextEEENS_31SerializeInternalFieldsCallbackE
Boostnote:_ZN2v815SnapshotCreator10CreateBlobENS0_20FunctionCodeHandlingE
Boostnote:_ZN2v815SnapshotCreator10GetIsolateEv
Boostnote:_ZN2v815SnapshotCreator11AddTemplateENS_5LocalINS_8TemplateEEE
Boostnote:_ZN2v815SnapshotCreator17SetDefaultContextENS_5LocalINS_7ContextEEENS_31SerializeInternalFieldsCallbackE
Boostnote:_ZN2v815SnapshotCreator7AddDataENS_5LocalINS_7ContextEEEPNS_8internal6ObjectE
Boostnote:_ZN2v815SnapshotCreator7AddDataEPNS_8internal6ObjectE
Boostnote:_ZN2v815SnapshotCreatorC1EPKlPNS_11StartupDataE
Boostnote:_ZN2v815SnapshotCreatorC1EPNS_7IsolateEPKlPNS_11StartupDataE
Boostnote:_ZN2v815SnapshotCreatorC2EPKlPNS_11StartupDataE
Boostnote:_ZN2v815SnapshotCreatorC2EPNS_7IsolateEPKlPNS_11StartupDataE
Boostnote:_ZN2v815SnapshotCreatorD1Ev
Boostnote:_ZN2v815SnapshotCreatorD2Ev
Boostnote:_ZN2v815ValueSerializer10WriteValueENS_5LocalINS_7ContextEEENS1_INS_5ValueEEE
Boostnote:_ZN2v815ValueSerializer11WriteDoubleEd
Boostnote:_ZN2v815ValueSerializer11WriteHeaderEv
Boostnote:_ZN2v815ValueSerializer11WriteUint32Ej
Boostnote:_ZN2v815ValueSerializer11WriteUint64Em
Boostnote:_ZN2v815ValueSerializer13ReleaseBufferEv
Boostnote:_ZN2v815ValueSerializer13WriteRawBytesEPKvm
Boostnote:_ZN2v815ValueSerializer19TransferArrayBufferEjNS_5LocalINS_11ArrayBufferEEE
Boostnote:_ZN2v815ValueSerializer25TransferSharedArrayBufferEjNS_5LocalINS_17SharedArrayBufferEEE
Boostnote:_ZN2v815ValueSerializer37SetTreatArrayBufferViewsAsHostObjectsEb
Boostnote:_ZN2v815ValueSerializer7ReleaseEv
Boostnote:_ZN2v815ValueSerializer8Delegate15WriteHostObjectEPNS_7IsolateENS_5LocalINS_6ObjectEEE
Boostnote:_ZN2v815ValueSerializer8Delegate16FreeBufferMemoryEPv
Boostnote:_ZN2v815ValueSerializer8Delegate22GetSharedArrayBufferIdEPNS_7IsolateENS_5LocalINS_17SharedArrayBufferEEE
Boostnote:_ZN2v815ValueSerializer8Delegate22ReallocateBufferMemoryEPvmPm
Boostnote:_ZN2v815ValueSerializer8Delegate23GetWasmModuleTransferIdEPNS_7IsolateENS_5LocalINS_18WasmCompiledModuleEEE
Boostnote:_ZN2v815ValueSerializerC1EPNS_7IsolateE
Boostnote:_ZN2v815ValueSerializerC1EPNS_7IsolateEPNS0_8DelegateE
Boostnote:_ZN2v815ValueSerializerC2EPNS_7IsolateE
Boostnote:_ZN2v815ValueSerializerC2EPNS_7IsolateEPNS0_8DelegateE
Boostnote:_ZN2v815ValueSerializerD1Ev
Boostnote:_ZN2v815ValueSerializerD2Ev
Boostnote:_ZN2v816CodeEventHandler6EnableEv
Boostnote:_ZN2v816CodeEventHandler7DisableEv
Boostnote:_ZN2v816CodeEventHandlerC2EPNS_7IsolateE
Boostnote:_ZN2v816CodeEventHandlerD0Ev
Boostnote:_ZN2v816CodeEventHandlerD1Ev
Boostnote:_ZN2v816CodeEventHandlerD2Ev
Boostnote:_ZN2v816FunctionTemplate11GetFunctionENS_5LocalINS_7ContextEEE
Boostnote:_ZN2v816FunctionTemplate11GetFunctionEv
Boostnote:_ZN2v816FunctionTemplate11HasInstanceENS_5LocalINS_5ValueEEE
Boostnote:_ZN2v816FunctionTemplate12FromSnapshotEPNS_7IsolateEm
Boostnote:_ZN2v816FunctionTemplate12NewWithCacheEPNS_7IsolateEPFvRKNS_20FunctionCallbackInfoINS_5ValueEEEENS_5LocalINS_7PrivateEEENSA_IS4_EENSA_INS_9SignatureEEEiNS_14SideEffectTypeE
Boostnote:_ZN2v816FunctionTemplate12SetClassNameENS_5LocalINS_6StringEEE
Boostnote:_ZN2v816FunctionTemplate14SetCallHandlerEPFvRKNS_20FunctionCallbackInfoINS_5ValueEEEENS_5LocalIS2_EENS_14SideEffectTypeE
Boostnote:_ZN2v816FunctionTemplate15RemovePrototypeEv
Boostnote:_ZN2v816FunctionTemplate16InstanceTemplateEv
Boostnote:_ZN2v816FunctionTemplate17NewRemoteInstanceEv
Boostnote:_ZN2v816FunctionTemplate17PrototypeTemplateEv
Boostnote:_ZN2v816FunctionTemplate17ReadOnlyPrototypeEv
Boostnote:_ZN2v816FunctionTemplate18SetHiddenPrototypeEb
Boostnote:_ZN2v816FunctionTemplate20SetAcceptAnyReceiverEb
Boostnote:_ZN2v816FunctionTemplate28SetPrototypeProviderTemplateENS_5LocalIS0_EE
Boostnote:_ZN2v816FunctionTemplate3NewEPNS_7IsolateEPFvRKNS_20FunctionCallbackInfoINS_5ValueEEEENS_5LocalIS4_EENSA_INS_9SignatureEEEiNS_19ConstructorBehaviorENS_14SideEffectTypeE
Boostnote:_ZN2v816FunctionTemplate7InheritENS_5LocalIS0_EE
Boostnote:_ZN2v816FunctionTemplate9CheckCastEPNS_4DataE
Boostnote:_ZN2v816FunctionTemplate9SetLengthEi
Boostnote:_ZN2v817AccessorSignature3NewEPNS_7IsolateENS_5LocalINS_16FunctionTemplateEEE
Boostnote:_ZN2v817AccessorSignature9CheckCastEPNS_4DataE
Boostnote:_ZN2v817RegisterExtensionEPNS_9ExtensionE
Boostnote:_ZN2v817SharedArrayBuffer11ExternalizeEv
Boostnote:_ZN2v817SharedArrayBuffer11GetContentsEv
Boostnote:_ZN2v817SharedArrayBuffer3NewEPNS_7IsolateEPvmNS_23ArrayBufferCreationModeE
Boostnote:_ZN2v817SharedArrayBuffer3NewEPNS_7IsolateEm
Boostnote:_ZN2v817SharedArrayBuffer9CheckCastEPNS_5ValueE
Boostnote:_ZN2v817Uint8ClampedArray3NewENS_5LocalINS_11ArrayBufferEEEmm
Boostnote:_ZN2v817Uint8ClampedArray3NewENS_5LocalINS_17SharedArrayBufferEEEmm
Boostnote:_ZN2v817Uint8ClampedArray9CheckCastEPNS_5ValueE
Boostnote:_ZN2v817ValueDeserializer10ReadDoubleEPd
Boostnote:_ZN2v817ValueDeserializer10ReadHeaderENS_5LocalINS_7ContextEEE
Boostnote:_ZN2v817ValueDeserializer10ReadUint32EPj
Boostnote:_ZN2v817ValueDeserializer10ReadUint64EPm
Boostnote:_ZN2v817ValueDeserializer12ReadRawBytesEmPPKv
Boostnote:_ZN2v817ValueDeserializer19SetExpectInlineWasmEb
Boostnote:_ZN2v817ValueDeserializer19TransferArrayBufferEjNS_5LocalINS_11ArrayBufferEEE
Boostnote:_ZN2v817ValueDeserializer25TransferSharedArrayBufferEjNS_5LocalINS_17SharedArrayBufferEEE
Boostnote:_ZN2v817ValueDeserializer27SetSupportsLegacyWireFormatEb
Boostnote:_ZN2v817ValueDeserializer8Delegate14ReadHostObjectEPNS_7IsolateE
Boostnote:_ZN2v817ValueDeserializer8Delegate19GetWasmModuleFromIdEPNS_7IsolateEj
Boostnote:_ZN2v817ValueDeserializer8Delegate26GetSharedArrayBufferFromIdEPNS_7IsolateEj
Boostnote:_ZN2v817ValueDeserializer9ReadValueENS_5LocalINS_7ContextEEE
Boostnote:_ZN2v817ValueDeserializerC1EPNS_7IsolateEPKhm
Boostnote:_ZN2v817ValueDeserializerC1EPNS_7IsolateEPKhmPNS0_8DelegateE
Boostnote:_ZN2v817ValueDeserializerC2EPNS_7IsolateEPKhm
Boostnote:_ZN2v817ValueDeserializerC2EPNS_7IsolateEPKhmPNS0_8DelegateE
Boostnote:_ZN2v817ValueDeserializerD1Ev
Boostnote:_ZN2v817ValueDeserializerD2Ev
Boostnote:_ZN2v818EmbedderHeapTracer15FinalizeTracingEv
Boostnote:_ZN2v818HeapCodeStatisticsC1Ev
Boostnote:_ZN2v818HeapCodeStatisticsC2Ev
Boostnote:_ZN2v818PropertyDescriptor14set_enumerableEb
Boostnote:_ZN2v818PropertyDescriptor16set_configurableEb
Boostnote:_ZN2v818PropertyDescriptorC1ENS_5LocalINS_5ValueEEE
Boostnote:_ZN2v818PropertyDescriptorC1ENS_5LocalINS_5ValueEEES3_
Boostnote:_ZN2v818PropertyDescriptorC1ENS_5LocalINS_5ValueEEEb
Boostnote:_ZN2v818PropertyDescriptorC1Ev
Boostnote:_ZN2v818PropertyDescriptorC2ENS_5LocalINS_5ValueEEE
Boostnote:_ZN2v818PropertyDescriptorC2ENS_5LocalINS_5ValueEEES3_
Boostnote:_ZN2v818PropertyDescriptorC2ENS_5LocalINS_5ValueEEEb
Boostnote:_ZN2v818PropertyDescriptorC2Ev
Boostnote:_ZN2v818PropertyDescriptorD1Ev
Boostnote:_ZN2v818PropertyDescriptorD2Ev
Boostnote:_ZN2v818TracingCpuProfiler6CreateEPNS_7IsolateE
Boostnote:_ZN2v818WasmCompiledModule11DeserializeEPNS_7IsolateENS0_15BufferReferenceES3_
Boostnote:_ZN2v818WasmCompiledModule16GetWasmWireBytesEv
Boostnote:_ZN2v818WasmCompiledModule19GetWasmWireBytesRefEv
Boostnote:_ZN2v818WasmCompiledModule20DeserializeOrCompileEPNS_7IsolateENS0_15BufferReferenceES3_
Boostnote:_ZN2v818WasmCompiledModule22GetTransferrableModuleEv
Boostnote:_ZN2v818WasmCompiledModule23FromTransferrableModuleEPNS_7IsolateERKNS0_19TransferrableModuleE
Boostnote:_ZN2v818WasmCompiledModule7CompileEPNS_7IsolateEPKhm
Boostnote:_ZN2v818WasmCompiledModule9CheckCastEPNS_5ValueE
Boostnote:_ZN2v818WasmCompiledModule9SerializeEv
Boostnote:_ZN2v819HeapSpaceStatisticsC1Ev
Boostnote:_ZN2v819HeapSpaceStatisticsC2Ev
Boostnote:_ZN2v819ResourceConstraints17ConfigureDefaultsEmm
Boostnote:_ZN2v819ResourceConstraintsC1Ev
Boostnote:_ZN2v819ResourceConstraintsC2Ev
Boostnote:_ZN2v820EscapableHandleScope6EscapeEPPNS_8internal6ObjectE
Boostnote:_ZN2v820EscapableHandleScopeC1EPNS_7IsolateE
Boostnote:_ZN2v820EscapableHandleScopeC2EPNS_7IsolateE
Boostnote:_ZN2v820EscapableHandleScopedaEPvm
Boostnote:_ZN2v820EscapableHandleScopedlEPvm
Boostnote:_ZN2v820EscapableHandleScopenaEm
Boostnote:_ZN2v820EscapableHandleScopenwEm
Boostnote:_ZN2v820HeapObjectStatisticsC1Ev
Boostnote:_ZN2v820HeapObjectStatisticsC2Ev
Boostnote:_ZN2v82V810EternalizeEPNS_7IsolateEPNS_5ValueE
Boostnote:_ZN2v82V810GetVersionEv
Boostnote:_ZN2v82V810InitializeEv
Boostnote:_ZN2v82V812ToLocalEmptyEv
Boostnote:_ZN2v82V813DisposeGlobalEPPNS_8internal6ObjectE
Boostnote:_ZN2v82V813InitializeICUEPKc
Boostnote:_ZN2v82V814CopyPersistentEPPNS_8internal6ObjectE
Boostnote:_ZN2v82V815TryHandleSignalEiPvS1_
Boostnote:_ZN2v82V816SetEntropySourceEPFbPhmE
Boostnote:_ZN2v82V816ShutdownPlatformEv
Boostnote:_ZN2v82V817FromJustIsNothingEv
Boostnote:_ZN2v82V818GlobalizeReferenceEPNS_8internal7IsolateEPPNS1_6ObjectE
Boostnote:_ZN2v82V818InitializePlatformEPNS_8PlatformE
Boostnote:_ZN2v82V818SetFlagsFromStringEPKci
Boostnote:_ZN2v82V818SetNativesDataBlobEPNS_11StartupDataE
Boostnote:_ZN2v82V819SetSnapshotDataBlobEPNS_11StartupDataE
Boostnote:_ZN2v82V821SetDcheckErrorHandlerEPFvPKciS2_E
Boostnote:_ZN2v82V822AnnotateStrongRetainerEPPNS_8internal6ObjectEPKc
Boostnote:_ZN2v82V822CreateSnapshotDataBlobEPKc
Boostnote:_ZN2v82V822WarmUpSnapshotDataBlobENS_11StartupDataEPKc
Boostnote:_ZN2v82V823SetFlagsFromCommandLineEPiPPcb
Boostnote:_ZN2v82V824InternalFieldOutOfBoundsEi
Boostnote:_ZN2v82V828EnableWebAssemblyTrapHandlerEb
Boostnote:_ZN2v82V828InitializeICUDefaultLocationEPKcS2_
Boostnote:_ZN2v82V828RegisterDefaultSignalHandlerEv
Boostnote:_ZN2v82V829InitializeExternalStartupDataEPKc
Boostnote:_ZN2v82V829InitializeExternalStartupDataEPKcS2_
Boostnote:_ZN2v82V832SetReturnAddressLocationResolverEPFmmE
Boostnote:_ZN2v82V834RegisterExternallyReferencedObjectEPPNS_8internal6ObjectEPNS1_7IsolateE
Boostnote:_ZN2v82V87DisposeEv
Boostnote:_ZN2v82V88MakeWeakEPPNS_8internal6ObjectEPvPFvRKNS_16WeakCallbackInfoIvEEENS_16WeakCallbackTypeE
Boostnote:_ZN2v82V88MakeWeakEPPNS_8internal6ObjectEPviiPFvRKNS_16WeakCallbackInfoIvEEE
Boostnote:_ZN2v82V88MakeWeakEPPPNS_8internal6ObjectE
Boostnote:_ZN2v82V89ClearWeakEPPNS_8internal6ObjectE
Boostnote:_ZN2v832WasmModuleObjectBuilderStreaming10GetPromiseEv
Boostnote:_ZN2v832WasmModuleObjectBuilderStreaming15OnBytesReceivedEPKhm
Boostnote:_ZN2v832WasmModuleObjectBuilderStreaming5AbortENS_10MaybeLocalINS_5ValueEEE
Boostnote:_ZN2v832WasmModuleObjectBuilderStreaming6FinishEv
Boostnote:_ZN2v832WasmModuleObjectBuilderStreamingC1EPNS_7IsolateE
Boostnote:_ZN2v832WasmModuleObjectBuilderStreamingC2EPNS_7IsolateE
Boostnote:_ZN2v832WasmModuleObjectBuilderStreamingD1Ev
Boostnote:_ZN2v832WasmModuleObjectBuilderStreamingD2Ev
Boostnote:_ZN2v83Map3GetENS_5LocalINS_7ContextEEENS1_INS_5ValueEEE
Boostnote:_ZN2v83Map3HasENS_5LocalINS_7ContextEEENS1_INS_5ValueEEE
Boostnote:_ZN2v83Map3NewEPNS_7IsolateE
Boostnote:_ZN2v83Map3SetENS_5LocalINS_7ContextEEENS1_INS_5ValueEEES5_
Boostnote:_ZN2v83Map5ClearEv
Boostnote:_ZN2v83Map6DeleteENS_5LocalINS_7ContextEEENS1_INS_5ValueEEE
Boostnote:_ZN2v83Map9CheckCastEPNS_5ValueE
Boostnote:_ZN2v83Set3AddENS_5LocalINS_7ContextEEENS1_INS_5ValueEEE
Boostnote:_ZN2v83Set3HasENS_5LocalINS_7ContextEEENS1_INS_5ValueEEE
Boostnote:_ZN2v83Set3NewEPNS_7IsolateE
Boostnote:_ZN2v83Set5ClearEv
Boostnote:_ZN2v83Set6DeleteENS_5LocalINS_7ContextEEENS1_INS_5ValueEEE
Boostnote:_ZN2v83Set9CheckCastEPNS_5ValueE
Boostnote:_ZN2v84Date39DateTimeConfigurationChangeNotificationEPNS_7IsolateE
Boostnote:_ZN2v84Date3NewENS_5LocalINS_7ContextEEEd
Boostnote:_ZN2v84Date3NewEPNS_7IsolateEd
Boostnote:_ZN2v84Date9CheckCastEPNS_5ValueE
Boostnote:_ZN2v84JSON5ParseENS_5LocalINS_7ContextEEENS1_INS_6StringEEE
Boostnote:_ZN2v84JSON5ParseEPNS_7IsolateENS_5LocalINS_6StringEEE
Boostnote:_ZN2v84JSON9StringifyENS_5LocalINS_7ContextEEENS1_INS_5ValueEEENS1_INS_6StringEEE
Boostnote:_ZN2v84Name15GetIdentityHashEv
Boostnote:_ZN2v84Name9CheckCastEPNS_5ValueE
Boostnote:_ZN2v85Array3NewEPNS_7IsolateEi
Boostnote:_ZN2v85Array9CheckCastEPNS_5ValueE
Boostnote:_ZN2v85Int329CheckCastEPNS_5ValueE
Boostnote:_ZN2v85Proxy10GetHandlerEv
Boostnote:_ZN2v85Proxy3NewENS_5LocalINS_7ContextEEENS1_INS_6ObjectEEES5_
Boostnote:_ZN2v85Proxy6RevokeEv
Boostnote:_ZN2v85Proxy9CheckCastEPNS_5ValueE
Boostnote:_ZN2v85Proxy9GetTargetEv
Boostnote:_ZN2v85Proxy9IsRevokedEv
Boostnote:_ZN2v85Value10InstanceOfENS_5LocalINS_7ContextEEENS1_INS_6ObjectEEE
Boostnote:_ZN2v85Value6TypeOfEPNS_7IsolateE
Boostnote:_ZN2v85debug11TypeProfile10ScriptDataC1EmNSt3__110shared_ptrINS_8internal11TypeProfileEEE
Boostnote:_ZN2v85debug11TypeProfile10ScriptDataC2EmNSt3__110shared_ptrINS_8internal11TypeProfileEEE
Boostnote:_ZN2v85debug11TypeProfile10SelectModeEPNS_7IsolateENS1_4ModeE
Boostnote:_ZN2v85debug11TypeProfile7CollectEPNS_7IsolateE
Boostnote:_ZN2v85debug18SetConsoleDelegateEPNS_7IsolateEPNS0_15ConsoleDelegateE
Boostnote:_ZN2v85debug8Coverage10ScriptDataC1EmNSt3__110shared_ptrINS_8internal8CoverageEEE
Boostnote:_ZN2v85debug8Coverage10ScriptDataC2EmNSt3__110shared_ptrINS_8internal8CoverageEEE
Boostnote:_ZN2v85debug8Coverage10SelectModeEPNS_7IsolateENS1_4ModeE
Boostnote:_ZN2v85debug8Coverage14CollectPreciseEPNS_7IsolateE
Boostnote:_ZN2v85debug8Coverage17CollectBestEffortEPNS_7IsolateE
Boostnote:_ZN2v85debug8LocationC1Eii
Boostnote:_ZN2v85debug8LocationC1Ev
Boostnote:_ZN2v85debug8LocationC2Eii
Boostnote:_ZN2v85debug8LocationC2Ev
Boostnote:_ZN2v86BigInt12NewFromWordsENS_5LocalINS_7ContextEEEiiPKm
Boostnote:_ZN2v86BigInt15NewFromUnsignedEPNS_7IsolateEm
Boostnote:_ZN2v86BigInt3NewEPNS_7IsolateEl
Boostnote:_ZN2v86BigInt9CheckCastEPNS_5ValueE
Boostnote:_ZN2v86Locker10InitializeEPNS_7IsolateE
Boostnote:_ZN2v86Locker8IsActiveEv
Boostnote:_ZN2v86Locker8IsLockedEPNS_7IsolateE
Boostnote:_ZN2v86LockerD1Ev
Boostnote:_ZN2v86LockerD2Ev
Boostnote:_ZN2v86Module17InstantiateModuleENS_5LocalINS_7ContextEEEPFNS_10MaybeLocalIS0_EES3_NS1_INS_6StringEEENS1_IS0_EEE
Boostnote:_ZN2v86Module18GetModuleNamespaceEv
Boostnote:_ZN2v86Module22GetUnboundModuleScriptEv
Boostnote:_ZN2v86Module8EvaluateENS_5LocalINS_7ContextEEE
Boostnote:_ZN2v86Number3NewEPNS_7IsolateEd
Boostnote:_ZN2v86Number9CheckCastEPNS_5ValueE
Boostnote:_ZN2v86Object10GetIsolateEv
Boostnote:_ZN2v86Object10GetPrivateENS_5LocalINS_7ContextEEENS1_INS_7PrivateEEE
Boostnote:_ZN2v86Object10HasPrivateENS_5LocalINS_7ContextEEENS1_INS_7PrivateEEE
Boostnote:_ZN2v86Object10IsCallableEv
Boostnote:_ZN2v86Object10SetPrivateENS_5LocalINS_7ContextEEENS1_INS_7PrivateEEENS1_INS_5ValueEEE
Boostnote:_ZN2v86Object11SetAccessorENS_5LocalINS_7ContextEEENS1_INS_4NameEEEPFvS5_RKNS_20PropertyCallbackInfoINS_5ValueEEEEPFvS5_NS1_IS7_EERKNS6_IvEEENS_10MaybeLocalIS7_EENS_13AccessControlENS_17PropertyAttributeENS_14SideEffectTypeE
Boostnote:_ZN2v86Object12GetPrototypeEv
Boostnote:_ZN2v86Object12SetPrototypeENS_5LocalINS_7ContextEEENS1_INS_5ValueEEE
Boostnote:_ZN2v86Object13DeletePrivateENS_5LocalINS_7ContextEEENS1_INS_7PrivateEEE
Boostnote:_ZN2v86Object13IsConstructorEv
Boostnote:_ZN2v86Object14CallAsFunctionENS_5LocalINS_7ContextEEENS1_INS_5ValueEEEiPS5_
Boostnote:_ZN2v86Object14DefinePropertyENS_5LocalINS_7ContextEEENS1_INS_4NameEEERNS_18PropertyDescriptorE
Boostnote:_ZN2v86Object14HasOwnPropertyENS_5LocalINS_7ContextEEENS1_INS_4NameEEE
Boostnote:_ZN2v86Object14HasOwnPropertyENS_5LocalINS_7ContextEEEj
Boostnote:_ZN2v86Object14PreviewEntriesEPb
Boostnote:_ZN2v86Object15CreationContextEv
Boostnote:_ZN2v86Object15GetIdentityHashEv
Boostnote:_ZN2v86Object16GetPropertyNamesENS_5LocalINS_7ContextEEE
Boostnote:_ZN2v86Object16GetPropertyNamesENS_5LocalINS_7ContextEEENS_17KeyCollectionModeENS_14PropertyFilterENS_11IndexFilterENS_17KeyConversionModeE
Boostnote:_ZN2v86Object16GetPropertyNamesEv
Boostnote:_ZN2v86Object16SetInternalFieldEiNS_5LocalINS_5ValueEEE
Boostnote:_ZN2v86Object17CallAsConstructorENS_5LocalINS_7ContextEEEiPNS1_INS_5ValueEEE
Boostnote:_ZN2v86Object17DefineOwnPropertyENS_5LocalINS_7ContextEEENS1_INS_4NameEEENS1_INS_5ValueEEENS_17PropertyAttributeE
Boostnote:_ZN2v86Object17SetIntegrityLevelENS_5LocalINS_7ContextEEENS_14IntegrityLevelE
Boostnote:_ZN2v86Object18CreateDataPropertyENS_5LocalINS_7ContextEEENS1_INS_4NameEEENS1_INS_5ValueEEE
Boostnote:_ZN2v86Object18CreateDataPropertyENS_5LocalINS_7ContextEEEjNS1_INS_5ValueEEE
Boostnote:_ZN2v86Object18GetConstructorNameEv
Boostnote:_ZN2v86Object18InternalFieldCountEv
Boostnote:_ZN2v86Object19GetOwnPropertyNamesENS_5LocalINS_7ContextEEE
Boostnote:_ZN2v86Object19GetOwnPropertyNamesENS_5LocalINS_7ContextEEENS_14PropertyFilterENS_17KeyConversionModeE
Boostnote:_ZN2v86Object19GetOwnPropertyNamesEv
Boostnote:_ZN2v86Object19ObjectProtoToStringENS_5LocalINS_7ContextEEE
Boostnote:_ZN2v86Object19SetAccessorPropertyENS_5LocalINS_4NameEEENS1_INS_8FunctionEEES5_NS_17PropertyAttributeENS_13AccessControlE
Boostnote:_ZN2v86Object19SetLazyDataPropertyENS_5LocalINS_7ContextEEENS1_INS_4NameEEEPFvS5_RKNS_20PropertyCallbackInfoINS_5ValueEEEENS1_IS7_EENS_17PropertyAttributeENS_14SideEffectTypeE
Boostnote:_ZN2v86Object20GetRealNamedPropertyENS_5LocalINS_7ContextEEENS1_INS_4NameEEE
Boostnote:_ZN2v86Object20HasRealNamedPropertyENS_5LocalINS_6StringEEE
Boostnote:_ZN2v86Object20HasRealNamedPropertyENS_5LocalINS_7ContextEEENS1_INS_4NameEEE
Boostnote:_ZN2v86Object20SlowGetInternalFieldEi
Boostnote:_ZN2v86Object21GetPropertyAttributesENS_5LocalINS_7ContextEEENS1_INS_5ValueEEE
Boostnote:_ZN2v86Object21SetNativeDataPropertyENS_5LocalINS_7ContextEEENS1_INS_4NameEEEPFvS5_RKNS_20PropertyCallbackInfoINS_5ValueEEEEPFvS5_NS1_IS7_EERKNS6_IvEEESD_NS_17PropertyAttributeENS_14SideEffectTypeE
Boostnote:_ZN2v86Object22HasRealIndexedPropertyENS_5LocalINS_7ContextEEEj
Boostnote:_ZN2v86Object22HasRealIndexedPropertyEj
Boostnote:_ZN2v86Object24GetOwnPropertyDescriptorENS_5LocalINS_7ContextEEENS1_INS_4NameEEE
Boostnote:_ZN2v86Object25HasNamedLookupInterceptorEv
Boostnote:_ZN2v86Object27HasIndexedLookupInterceptorEv
Boostnote:_ZN2v86Object28FindInstanceInPrototypeChainENS_5LocalINS_16FunctionTemplateEEE
Boostnote:_ZN2v86Object28HasRealNamedCallbackPropertyENS_5LocalINS_6StringEEE
Boostnote:_ZN2v86Object28HasRealNamedCallbackPropertyENS_5LocalINS_7ContextEEENS1_INS_4NameEEE
Boostnote:_ZN2v86Object30GetRealNamedPropertyAttributesENS_5LocalINS_7ContextEEENS1_INS_4NameEEE
Boostnote:_ZN2v86Object32SetAlignedPointerInInternalFieldEiPv
Boostnote:_ZN2v86Object33SetAlignedPointerInInternalFieldsEiPiPPv
Boostnote:_ZN2v86Object36GetRealNamedPropertyInPrototypeChainENS_5LocalINS_7ContextEEENS1_INS_4NameEEE
Boostnote:_ZN2v86Object38SlowGetAlignedPointerFromInternalFieldEi
Boostnote:_ZN2v86Object3GetENS_5LocalINS_5ValueEEE
Boostnote:_ZN2v86Object3GetENS_5LocalINS_7ContextEEENS1_INS_5ValueEEE
Boostnote:_ZN2v86Object3GetENS_5LocalINS_7ContextEEEj
Boostnote:_ZN2v86Object3GetEj
Boostnote:_ZN2v86Object3HasENS_5LocalINS_5ValueEEE
Boostnote:_ZN2v86Object3HasENS_5LocalINS_7ContextEEENS1_INS_5ValueEEE
Boostnote:_ZN2v86Object3HasENS_5LocalINS_7ContextEEEj
Boostnote:_ZN2v86Object3NewEPNS_7IsolateE
Boostnote:_ZN2v86Object3SetENS_5LocalINS_5ValueEEES3_
Boostnote:_ZN2v86Object3SetENS_5LocalINS_7ContextEEENS1_INS_5ValueEEES5_
Boostnote:_ZN2v86Object3SetENS_5LocalINS_7ContextEEEjNS1_INS_5ValueEEE
Boostnote:_ZN2v86Object3SetEjNS_5LocalINS_5ValueEEE
Boostnote:_ZN2v86Object46GetRealNamedPropertyAttributesInPrototypeChainENS_5LocalINS_7ContextEEENS1_INS_4NameEEE
Boostnote:_ZN2v86Object5CloneEv
Boostnote:_ZN2v86Object6DeleteENS_5LocalINS_5ValueEEE
Boostnote:_ZN2v86Object6DeleteENS_5LocalINS_7ContextEEENS1_INS_5ValueEEE
Boostnote:_ZN2v86Object6DeleteENS_5LocalINS_7ContextEEEj
Boostnote:_ZN2v86Object9CheckCastEPNS_5ValueE
Boostnote:_ZN2v86RegExp3NewENS_5LocalINS_6StringEEENS0_5FlagsE
Boostnote:_ZN2v86RegExp3NewENS_5LocalINS_7ContextEEENS1_INS_6StringEEENS0_5FlagsE
Boostnote:_ZN2v86RegExp9CheckCastEPNS_5ValueE
Boostnote:_ZN2v86Script16GetUnboundScriptEv
Boostnote:_ZN2v86Script3RunENS_5LocalINS_7ContextEEE
Boostnote:_ZN2v86Script3RunEv
Boostnote:_ZN2v86Script7CompileENS_5LocalINS_6StringEEEPNS_12ScriptOriginE
Boostnote:_ZN2v86Script7CompileENS_5LocalINS_6StringEEES3_
Boostnote:_ZN2v86Script7CompileENS_5LocalINS_7ContextEEENS1_INS_6StringEEEPNS_12ScriptOriginE
Boostnote:_ZN2v86String11NewExternalEPNS_7IsolateEPNS0_29ExternalOneByteStringResourceE
Boostnote:_ZN2v86String11NewFromUtf8EPNS_7IsolateEPKcNS0_13NewStringTypeEi
Boostnote:_ZN2v86String11NewFromUtf8EPNS_7IsolateEPKcNS_13NewStringTypeEi
Boostnote:_ZN2v86String12MakeExternalEPNS0_22ExternalStringResourceE
Boostnote:_ZN2v86String12MakeExternalEPNS0_29ExternalOneByteStringResourceE
Boostnote:_ZN2v86String14NewFromOneByteEPNS_7IsolateEPKhNS_13NewStringTypeEi
Boostnote:_ZN2v86String14NewFromTwoByteEPNS_7IsolateEPKtNS0_13NewStringTypeEi
Boostnote:_ZN2v86String14NewFromTwoByteEPNS_7IsolateEPKtNS_13NewStringTypeEi
Boostnote:_ZN2v86String15CanMakeExternalEv
Boostnote:_ZN2v86String18NewExternalOneByteEPNS_7IsolateEPNS0_29ExternalOneByteStringResourceE
Boostnote:_ZN2v86String18NewExternalTwoByteEPNS_7IsolateEPNS0_22ExternalStringResourceE
Boostnote:_ZN2v86String5ValueC1ENS_5LocalINS_5ValueEEE
Boostnote:_ZN2v86String5ValueC1EPNS_7IsolateENS_5LocalINS_5ValueEEE
Boostnote:_ZN2v86String5ValueC2ENS_5LocalINS_5ValueEEE
Boostnote:_ZN2v86String5ValueC2EPNS_7IsolateENS_5LocalINS_5ValueEEE
Boostnote:_ZN2v86String5ValueD1Ev
Boostnote:_ZN2v86String5ValueD2Ev
Boostnote:_ZN2v86String6ConcatENS_5LocalIS0_EES2_
Boostnote:_ZN2v86String6ConcatEPNS_7IsolateENS_5LocalIS0_EES4_
Boostnote:_ZN2v86String9CheckCastEPNS_5ValueE
Boostnote:_ZN2v86String9Utf8ValueC1ENS_5LocalINS_5ValueEEE
Boostnote:_ZN2v86String9Utf8ValueC1EPNS_7IsolateENS_5LocalINS_5ValueEEE
Boostnote:_ZN2v86String9Utf8ValueC2ENS_5LocalINS_5ValueEEE
Boostnote:_ZN2v86String9Utf8ValueC2EPNS_7IsolateENS_5LocalINS_5ValueEEE
Boostnote:_ZN2v86String9Utf8ValueD1Ev
Boostnote:_ZN2v86String9Utf8ValueD2Ev
Boostnote:_ZN2v86Symbol10GetReplaceEPNS_7IsolateE
Boostnote:_ZN2v86Symbol11GetIteratorEPNS_7IsolateE
Boostnote:_ZN2v86Symbol14GetHasInstanceEPNS_7IsolateE
Boostnote:_ZN2v86Symbol14GetToPrimitiveEPNS_7IsolateE
Boostnote:_ZN2v86Symbol14GetToStringTagEPNS_7IsolateE
Boostnote:_ZN2v86Symbol14GetUnscopablesEPNS_7IsolateE
Boostnote:_ZN2v86Symbol21GetIsConcatSpreadableEPNS_7IsolateE
Boostnote:_ZN2v86Symbol3ForEPNS_7IsolateENS_5LocalINS_6StringEEE
Boostnote:_ZN2v86Symbol3NewEPNS_7IsolateENS_5LocalINS_6StringEEE
Boostnote:_ZN2v86Symbol6ForApiEPNS_7IsolateENS_5LocalINS_6StringEEE
Boostnote:_ZN2v86Symbol8GetMatchEPNS_7IsolateE
Boostnote:_ZN2v86Symbol8GetSplitEPNS_7IsolateE
Boostnote:_ZN2v86Symbol9CheckCastEPNS_5ValueE
Boostnote:_ZN2v86Symbol9GetSearchEPNS_7IsolateE
Boostnote:_ZN2v86Uint329CheckCastEPNS_5ValueE
Boostnote:_ZN2v87Boolean9CheckCastEPNS_5ValueE
Boostnote:_ZN2v87Context10GetIsolateEv
Boostnote:_ZN2v87Context12DetachGlobalEv
Boostnote:_ZN2v87Context12FromSnapshotEPNS_7IsolateEmNS_33DeserializeInternalFieldsCallbackEPNS_22ExtensionConfigurationENS_10MaybeLocalINS_5ValueEEE
Boostnote:_ZN2v87Context15SetEmbedderDataEiNS_5LocalINS_5ValueEEE
Boostnote:_ZN2v87Context16GetSecurityTokenEv
Boostnote:_ZN2v87Context16NewRemoteContextEPNS_7IsolateENS_5LocalINS_14ObjectTemplateEEENS_10MaybeLocalINS_5ValueEEE
Boostnote:_ZN2v87Context16SetSecurityTokenENS_5LocalINS_5ValueEEE
Boostnote:_ZN2v87Context19SlowGetEmbedderDataEi
Boostnote:_ZN2v87Context20BackupIncumbentScopeC1ENS_5LocalIS0_EE
Boostnote:_ZN2v87Context20BackupIncumbentScopeC2ENS_5LocalIS0_EE
Boostnote:_ZN2v87Context20BackupIncumbentScopeD1Ev
Boostnote:_ZN2v87Context20BackupIncumbentScopeD2Ev
Boostnote:_ZN2v87Context22GetExtrasBindingObjectEv
Boostnote:_ZN2v87Context23GetDataFromSnapshotOnceEm
Boostnote:_ZN2v87Context23UseDefaultSecurityTokenEv
Boostnote:_ZN2v87Context29GetNumberOfEmbedderDataFieldsEv
Boostnote:_ZN2v87Context30AllowCodeGenerationFromStringsEb
Boostnote:_ZN2v87Context31SetAlignedPointerInEmbedderDataEiPv
Boostnote:_ZN2v87Context34IsCodeGenerationFromStringsAllowedEv
Boostnote:_ZN2v87Context37SlowGetAlignedPointerFromEmbedderDataEi
Boostnote:_ZN2v87Context3NewEPNS_7IsolateEPNS_22ExtensionConfigurationENS_10MaybeLocalINS_14ObjectTemplateEEENS5_INS_5ValueEEENS_33DeserializeInternalFieldsCallbackE
Boostnote:_ZN2v87Context43SetErrorMessageForCodeGenerationFromStringsENS_5LocalINS_6StringEEE
Boostnote:_ZN2v87Context4ExitEv
Boostnote:_ZN2v87Context5EnterEv
Boostnote:_ZN2v87Context6GlobalEv
Boostnote:_ZN2v87Integer15NewFromUnsignedEPNS_7IsolateEj
Boostnote:_ZN2v87Integer3NewEPNS_7IsolateEi
Boostnote:_ZN2v87Integer9CheckCastEPNS_5ValueE
Boostnote:_ZN2v87Isolate10GetCurrentEv
Boostnote:_ZN2v87Isolate10InitializeEPS0_RKNS0_12CreateParamsE
Boostnote:_ZN2v87Isolate11SetRAILModeENS_8RAILModeE
Boostnote:_ZN2v87Isolate12GetCodeRangeEPPvPm
Boostnote:_ZN2v87Isolate13RunMicrotasksEv
Boostnote:_ZN2v87Isolate13SetStackLimitEm
Boostnote:_ZN2v87Isolate14GetStackSampleERKNS_13RegisterStateEPPvmPNS_10SampleInfoE
Boostnote:_ZN2v87Isolate14SetEventLoggerEPFvPKciE
Boostnote:_ZN2v87Isolate14SetPromiseHookEPFvNS_15PromiseHookTypeENS_5LocalINS_7PromiseEEENS2_INS_5ValueEEEE
Boostnote:_ZN2v87Isolate14ThrowExceptionENS_5LocalINS_5ValueEEE
Boostnote:_ZN2v87Isolate15GetHeapProfilerEv
Boostnote:_ZN2v87Isolate16EnqueueMicrotaskENS_5LocalINS_8FunctionEEE
Boostnote:_ZN2v87Isolate16EnqueueMicrotaskEPFvPvES1_
Boostnote:_ZN2v87Isolate16RequestInterruptEPFvPS0_PvES2_
Boostnote:_ZN2v87Isolate16VisitWeakHandlesEPNS_23PersistentHandleVisitorE
Boostnote:_ZN2v87Isolate17DumpAndResetStatsEv
Boostnote:_ZN2v87Isolate17GetCallingContextEv
Boostnote:_ZN2v87Isolate17GetCurrentContextEv
Boostnote:_ZN2v87Isolate17GetEnteredContextEv
Boostnote:_ZN2v87Isolate17GetHeapStatisticsEPNS_14HeapStatisticsE
Boostnote:_ZN2v87Isolate18AddMessageListenerEPFvNS_5LocalINS_7MessageEEENS1_INS_5ValueEEEES5_
Boostnote:_ZN2v87Isolate18NumberOfHeapSpacesEv
Boostnote:_ZN2v87Isolate18SetCounterFunctionEPFPiPKcE
Boostnote:_ZN2v87Isolate18SetOOMErrorHandlerEPFvPKcbE
Boostnote:_ZN2v87Isolate18TerminateExecutionEv
Boostnote:_ZN2v87Isolate19CheckMemoryPressureEv
Boostnote:_ZN2v87Isolate19GetIncumbentContextEv
Boostnote:_ZN2v87Isolate19SetAllowAtomicsWaitEb
Boostnote:_ZN2v87Isolate19SetMicrotasksPolicyENS_16MicrotasksPolicyE
Boostnote:_ZN2v87Isolate20SetAutorunMicrotasksEb
Boostnote:_ZN2v87Isolate20SetFatalErrorHandlerEPFvPKcS2_E
Boostnote:_ZN2v87Isolate21AddGCEpilogueCallbackEPFvPS0_NS_6GCTypeENS_15GCCallbackFlagsEES2_
Boostnote:_ZN2v87Isolate21AddGCEpilogueCallbackEPFvPS0_NS_6GCTypeENS_15GCCallbackFlagsEPvES4_S2_
Boostnote:_ZN2v87Isolate21AddGCPrologueCallbackEPFvPS0_NS_6GCTypeENS_15GCCallbackFlagsEES2_
Boostnote:_ZN2v87Isolate21AddGCPrologueCallbackEPFvPS0_NS_6GCTypeENS_15GCCallbackFlagsEPvES4_S2_
Boostnote:_ZN2v87Isolate21AtomicsWaitWakeHandle4WakeEv
Boostnote:_ZN2v87Isolate21LowMemoryNotificationEv
Boostnote:_ZN2v87Isolate21SetEmbedderHeapTracerEPNS_18EmbedderHeapTracerE
Boostnote:_ZN2v87Isolate21SetUseCounterCallbackEPFvPS0_NS0_17UseCounterFeatureEE
Boostnote:_ZN2v87Isolate21SetWasmModuleCallbackEPFbRKNS_20FunctionCallbackInfoINS_5ValueEEEE
Boostnote:_ZN2v87Isolate22GetHeapSpaceStatisticsEPNS_19HeapSpaceStatisticsEm
Boostnote:_ZN2v87Isolate22IsExecutionTerminatingEv
Boostnote:_ZN2v87Isolate22RemoveMessageListenersEPFvNS_5LocalINS_7MessageEEENS1_INS_5ValueEEEE
Boostnote:_ZN2v87Isolate22SetAtomicsWaitCallbackEPFvNS0_16AtomicsWaitEventENS_5LocalINS_17SharedArrayBufferEEEmidPNS0_21AtomicsWaitWakeHandleEPvES7_
Boostnote:_ZN2v87Isolate22SetJitCodeEventHandlerENS_19JitCodeEventOptionsEPFvPKNS_12JitCodeEventEE
Boostnote:_ZN2v87Isolate22VisitExternalResourcesEPNS_23ExternalResourceVisitorE
Boostnote:_ZN2v87Isolate23EnableMemorySavingsModeEv
Boostnote:_ZN2v87Isolate23GetArrayBufferAllocatorEv
Boostnote:_ZN2v87Isolate23GetDataFromSnapshotOnceEm
Boostnote:_ZN2v87Isolate23SafeForTerminationScopeC1EPS0_
Boostnote:_ZN2v87Isolate23SafeForTerminationScopeC2EPS0_
Boostnote:_ZN2v87Isolate23SafeForTerminationScopeD1Ev
Boostnote:_ZN2v87Isolate23SafeForTerminationScopeD2Ev
Boostnote:_ZN2v87Isolate23SetWasmInstanceCallbackEPFbRKNS_20FunctionCallbackInfoINS_5ValueEEEE
Boostnote:_ZN2v87Isolate24AddCallCompletedCallbackEPFvPS0_E
Boostnote:_ZN2v87Isolate24AddCallCompletedCallbackEPFvvE
Boostnote:_ZN2v87Isolate24AddNearHeapLimitCallbackEPFmPvmmES1_
Boostnote:_ZN2v87Isolate24CancelTerminateExecutionEv
Boostnote:_ZN2v87Isolate24DisableMemorySavingsModeEv
Boostnote:_ZN2v87Isolate24IdleNotificationDeadlineEd
Boostnote:_ZN2v87Isolate24RemoveGCEpilogueCallbackEPFvPS0_NS_6GCTypeENS_15GCCallbackFlagsEE
Boostnote:_ZN2v87Isolate24RemoveGCEpilogueCallbackEPFvPS0_NS_6GCTypeENS_15GCCallbackFlagsEPvES4_
Boostnote:_ZN2v87Isolate24RemoveGCPrologueCallbackEPFvPS0_NS_6GCTypeENS_15GCCallbackFlagsEE
Boostnote:_ZN2v87Isolate24RemoveGCPrologueCallbackEPFvPS0_NS_6GCTypeENS_15GCCallbackFlagsEPvES4_
Boostnote:_ZN2v87Isolate24RestoreOriginalHeapLimitEv
Boostnote:_ZN2v87Isolate24SetPromiseRejectCallbackEPFvNS_20PromiseRejectMessageEE
Boostnote:_ZN2v87Isolate24SetWasmStreamingCallbackEPFvRKNS_20FunctionCallbackInfoINS_5ValueEEEE
Boostnote:_ZN2v87Isolate24VisitHandlesWithClassIdsEPNS_23PersistentHandleVisitorE
Boostnote:_ZN2v87Isolate26MemoryPressureNotificationENS_19MemoryPressureLevelE
Boostnote:_ZN2v87Isolate26SetCreateHistogramFunctionEPFPvPKciimE
Boostnote:_ZN2v87Isolate27ContextDisposedNotificationEb
Boostnote:_ZN2v87Isolate27RemoveCallCompletedCallbackEPFvPS0_E
Boostnote:_ZN2v87Isolate27RemoveCallCompletedCallbackEPFvvE
Boostnote:_ZN2v87Isolate27RemoveNearHeapLimitCallbackEPFmPvmmEm
Boostnote:_ZN2v87Isolate28AddBeforeCallEnteredCallbackEPFvPS0_E
Boostnote:_ZN2v87Isolate28GetEnteredOrMicrotaskContextEv
Boostnote:_ZN2v87Isolate29AllowJavascriptExecutionScopeC1EPS0_
Boostnote:_ZN2v87Isolate29AllowJavascriptExecutionScopeC2EPS0_
Boostnote:_ZN2v87Isolate29AllowJavascriptExecutionScopeD1Ev
Boostnote:_ZN2v87Isolate29AllowJavascriptExecutionScopeD2Ev
Boostnote:_ZN2v87Isolate29DiscardThreadSpecificMetadataEv
Boostnote:_ZN2v87Isolate29IncreaseHeapLimitForDebuggingEv
Boostnote:_ZN2v87Isolate29SetAddHistogramSampleFunctionEPFvPviE
Boostnote:_ZN2v87Isolate30AddMicrotasksCompletedCallbackEPFvPS0_E
Boostnote:_ZN2v87Isolate30NumberOfTrackedHeapObjectTypesEv
Boostnote:_ZN2v87Isolate31GetHeapObjectStatisticsAtLastGCEPNS_20HeapObjectStatisticsEm
Boostnote:_ZN2v87Isolate31IsolateInBackgroundNotificationEv
Boostnote:_ZN2v87Isolate31IsolateInForegroundNotificationEv
Boostnote:_ZN2v87Isolate31RemoveBeforeCallEnteredCallbackEPFvPS0_E
Boostnote:_ZN2v87Isolate31SetWasmCompileStreamingCallbackEPFvRKNS_20FunctionCallbackInfoINS_5ValueEEEE
Boostnote:_ZN2v87Isolate31SuppressMicrotaskExecutionScopeC1EPS0_
Boostnote:_ZN2v87Isolate31SuppressMicrotaskExecutionScopeC2EPS0_
Boostnote:_ZN2v87Isolate31SuppressMicrotaskExecutionScopeD1Ev
Boostnote:_ZN2v87Isolate31SuppressMicrotaskExecutionScopeD2Ev
Boostnote:_ZN2v87Isolate32AddMessageListenerWithErrorLevelEPFvNS_5LocalINS_7MessageEEENS1_INS_5ValueEEEEiS5_
Boostnote:_ZN2v87Isolate32DisallowJavascriptExecutionScopeC1EPS0_NS1_9OnFailureE
Boostnote:_ZN2v87Isolate32DisallowJavascriptExecutionScopeC2EPS0_NS1_9OnFailureE
Boostnote:_ZN2v87Isolate32DisallowJavascriptExecutionScopeD1Ev
Boostnote:_ZN2v87Isolate32DisallowJavascriptExecutionScopeD2Ev
Boostnote:_ZN2v87Isolate32GetHeapCodeAndMetadataStatisticsEPNS_18HeapCodeStatisticsE
Boostnote:_ZN2v87Isolate32IsHeapLimitIncreasedForDebuggingEv
Boostnote:_ZN2v87Isolate32VisitHandlesForPartialDependenceEPNS_23PersistentHandleVisitorE
Boostnote:_ZN2v87Isolate33RemoveMicrotasksCompletedCallbackEPFvPS0_E
Boostnote:_ZN2v87Isolate34RequestGarbageCollectionForTestingENS0_21GarbageCollectionTypeE
Boostnote:_ZN2v87Isolate34SetAllowWasmCodeGenerationCallbackEPFbNS_5LocalINS_7ContextEEENS1_INS_6StringEEEE
Boostnote:_ZN2v87Isolate35SetAbortOnUncaughtExceptionCallbackEPFbPS0_E
Boostnote:_ZN2v87Isolate36ReportExternalAllocationLimitReachedEv
Boostnote:_ZN2v87Isolate36SetFailedAccessCheckCallbackFunctionEPFvNS_5LocalINS_6ObjectEEENS_10AccessTypeENS1_INS_5ValueEEEE
Boostnote:_ZN2v87Isolate38SetHostImportModuleDynamicallyCallbackEPFNS_10MaybeLocalINS_7PromiseEEENS_5LocalINS_7ContextEEENS4_INS_14ScriptOrModuleEEENS4_INS_6StringEEEE
Boostnote:_ZN2v87Isolate3NewERKNS0_12CreateParamsE
Boostnote:_ZN2v87Isolate40NumberOfPhantomHandleResetsSinceLastCallEv
Boostnote:_ZN2v87Isolate41SetAllowCodeGenerationFromStringsCallbackEPFbNS_5LocalINS_7ContextEEENS1_INS_6StringEEEE
Boostnote:_ZN2v87Isolate41SetCaptureStackTraceForUncaughtExceptionsEbiNS_10StackTrace17StackTraceOptionsE
Boostnote:_ZN2v87Isolate41SetHostInitializeImportMetaObjectCallbackEPFvNS_5LocalINS_7ContextEEENS1_INS_6ModuleEEENS1_INS_6ObjectEEEE
Boostnote:_ZN2v87Isolate46SetGetExternallyAllocatedMemoryInBytesCallbackEPFmvE
Boostnote:_ZN2v87Isolate4ExitEv
Boostnote:_ZN2v87Isolate5EnterEv
Boostnote:_ZN2v87Isolate6IsDeadEv
Boostnote:_ZN2v87Isolate7DisposeEv
Boostnote:_ZN2v87Isolate7IsInUseEv
Boostnote:_ZN2v87Isolate7SetIdleEb
Boostnote:_ZN2v87Isolate8AllocateEv
Boostnote:_ZN2v87Isolate9InContextEv
Boostnote:_ZN2v87Message22PrintCurrentStackTraceEPNS_7IsolateEP8_IO_FILE
Boostnote:_ZN2v87Private3NewEPNS_7IsolateENS_5LocalINS_6StringEEE
Boostnote:_ZN2v87Private6ForApiEPNS_7IsolateENS_5LocalINS_6StringEEE
Boostnote:_ZN2v87Private9CheckCastEPNS_4DataE
Boostnote:_ZN2v87Promise10HasHandlerEv
Boostnote:_ZN2v87Promise4ThenENS_5LocalINS_7ContextEEENS1_INS_8FunctionEEE
Boostnote:_ZN2v87Promise5CatchENS_5LocalINS_7ContextEEENS1_INS_8FunctionEEE
Boostnote:_ZN2v87Promise5StateEv
Boostnote:_ZN2v87Promise6ResultEv
Boostnote:_ZN2v87Promise8Resolver10GetPromiseEv
Boostnote:_ZN2v87Promise8Resolver3NewENS_5LocalINS_7ContextEEE
Boostnote:_ZN2v87Promise8Resolver3NewEPNS_7IsolateE
Boostnote:_ZN2v87Promise8Resolver6RejectENS_5LocalINS_5ValueEEE
Boostnote:_ZN2v87Promise8Resolver6RejectENS_5LocalINS_7ContextEEENS2_INS_5ValueEEE
Boostnote:_ZN2v87Promise8Resolver7ResolveENS_5LocalINS_5ValueEEE
Boostnote:_ZN2v87Promise8Resolver7ResolveENS_5LocalINS_7ContextEEENS2_INS_5ValueEEE
Boostnote:_ZN2v87Promise8Resolver9CheckCastEPNS_5ValueE
Boostnote:_ZN2v87Promise9CheckCastEPNS_5ValueE
Boostnote:_ZN2v87Testing13DeoptimizeAllEPNS_7IsolateE
Boostnote:_ZN2v87Testing13GetStressRunsEv
Boostnote:_ZN2v87Testing16PrepareStressRunEi
Boostnote:_ZN2v87Testing16SetStressRunTypeENS0_10StressTypeE
Boostnote:_ZN2v88DataView3NewENS_5LocalINS_11ArrayBufferEEEmm
Boostnote:_ZN2v88DataView3NewENS_5LocalINS_17SharedArrayBufferEEEmm
Boostnote:_ZN2v88DataView9CheckCastEPNS_5ValueE
Boostnote:_ZN2v88External3NewEPNS_7IsolateEPv
Boostnote:_ZN2v88External9CheckCastEPNS_5ValueE
Boostnote:_ZN2v88Function19kLineOffsetNotFoundE
Boostnote:_ZN2v88Function3NewENS_5LocalINS_7ContextEEEPFvRKNS_20FunctionCallbackInfoINS_5ValueEEEENS1_IS5_EEiNS_19ConstructorBehaviorENS_14SideEffectTypeE
Boostnote:_ZN2v88Function3NewEPNS_7IsolateEPFvRKNS_20FunctionCallbackInfoINS_5ValueEEEENS_5LocalIS4_EEi
Boostnote:_ZN2v88Function4CallENS_5LocalINS_5ValueEEEiPS3_
Boostnote:_ZN2v88Function4CallENS_5LocalINS_7ContextEEENS1_INS_5ValueEEEiPS5_
Boostnote:_ZN2v88Function7SetNameENS_5LocalINS_6StringEEE
Boostnote:_ZN2v88Function9CheckCastEPNS_5ValueE
Boostnote:_ZN2v88Platform21SystemClockTimeMillisEv
Boostnote:_ZN2v88Template10SetPrivateENS_5LocalINS_7PrivateEEENS1_INS_4DataEEENS_17PropertyAttributeE
Boostnote:_ZN2v88Template19SetAccessorPropertyENS_5LocalINS_4NameEEENS1_INS_16FunctionTemplateEEES5_NS_17PropertyAttributeENS_13AccessControlE
Boostnote:_ZN2v88Template19SetLazyDataPropertyENS_5LocalINS_4NameEEEPFvS3_RKNS_20PropertyCallbackInfoINS_5ValueEEEENS1_IS5_EENS_17PropertyAttributeENS_14SideEffectTypeE
Boostnote:_ZN2v88Template21SetNativeDataPropertyENS_5LocalINS_4NameEEEPFvS3_RKNS_20PropertyCallbackInfoINS_5ValueEEEEPFvS3_NS1_IS5_EERKNS4_IvEEESB_NS_17PropertyAttributeENS1_INS_17AccessorSignatureEEENS_13AccessControlENS_14SideEffectTypeE
Boostnote:_ZN2v88Template21SetNativeDataPropertyENS_5LocalINS_6StringEEEPFvS3_RKNS_20PropertyCallbackInfoINS_5ValueEEEEPFvS3_NS1_IS5_EERKNS4_IvEEESB_NS_17PropertyAttributeENS1_INS_17AccessorSignatureEEENS_13AccessControlENS_14SideEffectTypeE
Boostnote:_ZN2v88Template24SetIntrinsicDataPropertyENS_5LocalINS_4NameEEENS_9IntrinsicENS_17PropertyAttributeE
Boostnote:_ZN2v88Template3SetENS_5LocalINS_4NameEEENS1_INS_4DataEEENS_17PropertyAttributeE
Boostnote:_ZN2v88TryCatch10SetVerboseEb
Boostnote:_ZN2v88TryCatch13ResetInternalEv
Boostnote:_ZN2v88TryCatch17SetCaptureMessageEb
Boostnote:_ZN2v88TryCatch5ResetEv
Boostnote:_ZN2v88TryCatch7ReThrowEv
Boostnote:_ZN2v88TryCatchC1EPNS_7IsolateE
Boostnote:_ZN2v88TryCatchC2EPNS_7IsolateE
Boostnote:_ZN2v88TryCatchD1Ev
Boostnote:_ZN2v88TryCatchD2Ev
Boostnote:_ZN2v88TryCatchdaEPvm
Boostnote:_ZN2v88TryCatchdlEPvm
Boostnote:_ZN2v88TryCatchnaEm
Boostnote:_ZN2v88TryCatchnwEm
Boostnote:_ZN2v88Unlocker10InitializeEPNS_7IsolateE
Boostnote:_ZN2v88UnlockerD1Ev
Boostnote:_ZN2v88UnlockerD2Ev
Boostnote:_ZN2v88internal10CancelableC1EPNS0_21CancelableTaskManagerE
Boostnote:_ZN2v88internal10CancelableC2EPNS0_21CancelableTaskManagerE
Boostnote:_ZN2v88internal10CancelableD0Ev
Boostnote:_ZN2v88internal10CancelableD1Ev
Boostnote:_ZN2v88internal10CancelableD2Ev
Boostnote:_ZN2v88internal10ConsString13ConsStringGetEi
Boostnote:_ZN2v88internal10FLAG_traceE
Boostnote:_ZN2v88internal10HeapNumber15HeapNumberPrintERNSt3__113basic_ostreamIcNS2_11char_traitsIcEEEE
Boostnote:_ZN2v88internal10JSReceiver10class_nameEv
Boostnote:_ZN2v88internal10JSReceiver24GetOwnPropertyDescriptorEPNS0_7IsolateENS0_6HandleIS1_EENS4_INS0_6ObjectEEEPNS0_18PropertyDescriptorE
Boostnote:_ZN2v88internal10PagedSpace10RemovePageEPNS0_4PageE
Boostnote:_ZN2v88internal10PagedSpace11ReleasePageEPNS0_4PageE
Boostnote:_ZN2v88internal10PagedSpace12ContainsSlowEm
Boostnote:_ZN2v88internal10PagedSpace13DecreaseLimitEm
Boostnote:_ZN2v88internal10PagedSpace13ResetFreeListEv
Boostnote:_ZN2v88internal10PagedSpace13SizeOfObjectsEv
Boostnote:_ZN2v88internal10PagedSpace14InitializePageEPNS0_11MemoryChunkENS0_13ExecutabilityE
Boostnote:_ZN2v88internal10PagedSpace14RefillFreeListEv
Boostnote:_ZN2v88internal10PagedSpace14RemovePageSafeEi
Boostnote:_ZN2v88internal10PagedSpace15CountTotalPagesEv
Boostnote:_ZN2v88internal10PagedSpace17GetObjectIteratorEv
Boostnote:_ZN2v88internal10PagedSpace18SetReadAndWritableEv
Boostnote:_ZN2v88internal10PagedSpace20MergeCompactionSpaceEPNS0_15CompactionSpaceE
Boostnote:_ZN2v88internal10PagedSpace20SetReadAndExecutableEv
Boostnote:_ZN2v88internal10PagedSpace21PrepareForMarkCompactEv
Boostnote:_ZN2v88internal10PagedSpace23CommittedPhysicalMemoryEv
Boostnote:_ZN2v88internal10PagedSpace23ResetFreeListStatisticsEv
Boostnote:_ZN2v88internal10PagedSpace23SetLinearAllocationAreaEmm
Boostnote:_ZN2v88internal10PagedSpace23SweepAndRetryAllocationEi
Boostnote:_ZN2v88internal10PagedSpace24FreeLinearAllocationAreaEv
Boostnote:_ZN2v88internal10PagedSpace25ShrinkPageToHighWaterMarkEPNS0_4PageE
Boostnote:_ZN2v88internal10PagedSpace26UnmarkLinearAllocationAreaEv
Boostnote:_ZN2v88internal10PagedSpace27UpdateInlineAllocationLimitEm
Boostnote:_ZN2v88internal10PagedSpace28ShrinkImmortalImmovablePagesEv
Boostnote:_ZN2v88internal10PagedSpace29MarkLinearAllocationAreaBlackEv
Boostnote:_ZN2v88internal10PagedSpace30SlowRefillLinearAllocationAreaEi
Boostnote:_ZN2v88internal10PagedSpace33RawSlowRefillLinearAllocationAreaEi
Boostnote:_ZN2v88internal10PagedSpace33RefineAllocatedBytesAfterSweepingEPNS0_4PageE
Boostnote:_ZN2v88internal10PagedSpace35RepairFreeListsAfterDeserializationEv
Boostnote:_ZN2v88internal10PagedSpace38RefillLinearAllocationAreaFromFreeListEm
Boostnote:_ZN2v88internal10PagedSpace6ExpandEv
Boostnote:_ZN2v88internal10PagedSpace7AddPageEPNS0_4PageE
Boostnote:_ZN2v88internal10PagedSpace8TearDownEv
Boostnote:_ZN2v88internal10PagedSpaceC1EPNS0_4HeapENS0_15AllocationSpaceENS0_13ExecutabilityE
Boostnote:_ZN2v88internal10PagedSpaceC2EPNS0_4HeapENS0_15AllocationSpaceENS0_13ExecutabilityE
Boostnote:_ZN2v88internal10RegExpImpl4ExecEPNS0_7IsolateENS0_6HandleINS0_8JSRegExpEEENS4_INS0_6StringEEEiNS4_INS0_15RegExpMatchInfoEEE
Boostnote:_ZN2v88internal10StackGuard10InitThreadERKNS0_15ExecutionAccessE
Boostnote:_ZN2v88internal10StackGuard11ClearThreadERKNS0_15ExecutionAccessE
Boostnote:_ZN2v88internal10StackGuard11ThreadLocal10InitializeEPNS0_7IsolateE
Boostnote:_ZN2v88internal10StackGuard11ThreadLocal5ClearEv
Boostnote:_ZN2v88internal10StackGuard13SetStackLimitEm
Boostnote:_ZN2v88internal10StackGuard14CheckInterruptENS1_13InterruptFlagE
Boostnote:_ZN2v88internal10StackGuard14ClearInterruptENS1_13InterruptFlagE
Boostnote:_ZN2v88internal10StackGuard16EnableInterruptsEv
Boostnote:_ZN2v88internal10StackGuard16HandleInterruptsEv
Boostnote:_ZN2v88internal10StackGuard16RequestInterruptENS1_13InterruptFlagE
Boostnote:_ZN2v88internal10StackGuard17ArchiveStackGuardEPc
Boostnote:_ZN2v88internal10StackGuard17DisableInterruptsEv
Boostnote:_ZN2v88internal10StackGuard17RestoreStackGuardEPc
Boostnote:_ZN2v88internal10StackGuard18PopInterruptsScopeEv
Boostnote:_ZN2v88internal10StackGuard19FreeThreadResourcesEv
Boostnote:_ZN2v88internal10StackGuard19PushInterruptsScopeEPNS0_15InterruptsScopeE
Boostnote:_ZN2v88internal10StackGuard22CheckAndClearInterruptENS1_13InterruptFlagE
Boostnote:_ZN2v88internal10StackGuard28AdjustStackLimitForSimulatorEv
Boostnote:_ZN2v88internal10StackGuardC1Ev
Boostnote:_ZN2v88internal10StackGuardC2Ev
Boostnote:_ZN2v88internal10ThinString13ThinStringGetEi
Boostnote:_ZN2v88internal10WhiteSpace2IsEi
Boostnote:_ZN2v88internal11CodeFactory10StoreOwnICEPNS0_7IsolateE
Boostnote:_ZN2v88internal11CodeFactory11CallVarargsEPNS0_7IsolateE
Boostnote:_ZN2v88internal11CodeFactory12CallFunctionEPNS0_7IsolateENS0_19ConvertReceiverModeE
Boostnote:_ZN2v88internal11CodeFactory12LoadGlobalICEPNS0_7IsolateENS0_10TypeofModeE
Boostnote:_ZN2v88internal11CodeFactory13RuntimeCEntryEPNS0_7IsolateEi
Boostnote:_ZN2v88internal11CodeFactory14CallWithSpreadEPNS0_7IsolateE
Boostnote:_ZN2v88internal11CodeFactory15ArgumentAdaptorEPNS0_7IsolateE
Boostnote:_ZN2v88internal11CodeFactory15BinaryOperationEPNS0_7IsolateENS0_9OperationE
Boostnote:_ZN2v88internal11CodeFactory15CallApiCallbackEPNS0_7IsolateEi
Boostnote:_ZN2v88internal11CodeFactory15ResumeGeneratorEPNS0_7IsolateE
Boostnote:_ZN2v88internal11CodeFactory16ConstructVarargsEPNS0_7IsolateE
Boostnote:_ZN2v88internal11CodeFactory17CallWithArrayLikeEPNS0_7IsolateE
Boostnote:_ZN2v88internal11CodeFactory17ConstructFunctionEPNS0_7IsolateE
Boostnote:_ZN2v88internal11CodeFactory17InterpreterCEntryEPNS0_7IsolateEi
Boostnote:_ZN2v88internal11CodeFactory18CallForwardVarargsEPNS0_7IsolateE
Boostnote:_ZN2v88internal11CodeFactory19ConstructWithSpreadEPNS0_7IsolateE
Boostnote:_ZN2v88internal11CodeFactory19OrdinaryToPrimitiveEPNS0_7IsolateENS0_23OrdinaryToPrimitiveHintE
Boostnote:_ZN2v88internal11CodeFactory22FastNewFunctionContextEPNS0_7IsolateENS0_9ScopeTypeE
Boostnote:_ZN2v88internal11CodeFactory22FrameDropperTrampolineEPNS0_7IsolateE
Boostnote:_ZN2v88internal11CodeFactory23ConstructForwardVarargsEPNS0_7IsolateE
Boostnote:_ZN2v88internal11CodeFactory23HandleDebuggerStatementEPNS0_7IsolateE
Boostnote:_ZN2v88internal11CodeFactory23NonPrimitiveToPrimitiveEPNS0_7IsolateENS0_15ToPrimitiveHintE
Boostnote:_ZN2v88internal11CodeFactory25StoreOwnICInOptimizedCodeEPNS0_7IsolateE
Boostnote:_ZN2v88internal11CodeFactory26ArrayNoArgumentConstructorEPNS0_7IsolateENS0_12ElementsKindENS0_26AllocationSiteOverrideModeE
Boostnote:_ZN2v88internal11CodeFactory26CallFunctionForwardVarargsEPNS0_7IsolateE
Boostnote:_ZN2v88internal11CodeFactory27InterpreterPushArgsThenCallEPNS0_7IsolateENS0_19ConvertReceiverModeENS0_23InterpreterPushArgsModeE
Boostnote:_ZN2v88internal11CodeFactory27LoadGlobalICInOptimizedCodeEPNS0_7IsolateENS0_10TypeofModeE
Boostnote:_ZN2v88internal11CodeFactory29InterpreterOnStackReplacementEPNS0_7IsolateE
Boostnote:_ZN2v88internal11CodeFactory30ArraySingleArgumentConstructorEPNS0_7IsolateENS0_12ElementsKindENS0_26AllocationSiteOverrideModeE
Boostnote:_ZN2v88internal11CodeFactory31ConstructFunctionForwardVarargsEPNS0_7IsolateE
Boostnote:_ZN2v88internal11CodeFactory32InterpreterPushArgsThenConstructEPNS0_7IsolateENS0_23InterpreterPushArgsModeE
Boostnote:_ZN2v88internal11CodeFactory34InternalArrayNoArgumentConstructorEPNS0_7IsolateENS0_12ElementsKindE
Boostnote:_ZN2v88internal11CodeFactory38InternalArraySingleArgumentConstructorEPNS0_7IsolateENS0_12ElementsKindE
Boostnote:_ZN2v88internal11CodeFactory4CallEPNS0_7IsolateENS0_19ConvertReceiverModeE
Boostnote:_ZN2v88internal11CodeFactory6CEntryEPNS0_7IsolateEiNS0_14SaveFPRegsModeENS0_8ArgvModeEb
Boostnote:_ZN2v88internal11CodeFactory9ApiGetterEPNS0_7IsolateE
Boostnote:_ZN2v88internal11CodeFactory9ConstructEPNS0_7IsolateE
Boostnote:_ZN2v88internal11CodeFactory9StringAddEPNS0_7IsolateENS0_14StringAddFlagsENS0_13PretenureFlagE
Boostnote:_ZN2v88internal11FLAG_futureE
Boostnote:_ZN2v88internal11FLAG_use_icE
Boostnote:_ZN2v88internal11HandleScope15NumberOfHandlesEPNS0_7IsolateE
Boostnote:_ZN2v88internal11HandleScope16DeleteExtensionsEPNS0_7IsolateE
Boostnote:_ZN2v88internal11HandleScope6ExtendEPNS0_7IsolateE
Boostnote:_ZN2v88internal11PagedSpaces4nextEv
Boostnote:_ZN2v88internal11ScavengeJob16ScheduleIdleTaskEPNS0_4HeapE
Boostnote:_ZN2v88internal11ScavengeJob18RescheduleIdleTaskEPNS0_4HeapE
Boostnote:_ZN2v88internal11ScavengeJob24ScheduleIdleTaskIfNeededEPNS0_4HeapEi
Boostnote:_ZN2v88internal11ScavengeJob25EnoughIdleTimeForScavengeEddm
Boostnote:_ZN2v88internal11ScavengeJob26ReachedIdleAllocationLimitEdmm
Boostnote:_ZN2v88internal11ScavengeJob39kMaxAllocationLimitAsFractionOfNewSpaceE
Boostnote:_ZN2v88internal11ScavengeJob8IdleTask11RunInternalEd
Boostnote:_ZN2v88internal11StoreBuffer19StoreBufferOverflowEPNS0_7IsolateE
Boostnote:_ZN2v88internal11StringTable12LookupStringEPNS0_7IsolateENS0_6HandleINS0_6StringEEE
Boostnote:_ZN2v88internal11interpreter11Interpreter25GetDispatchCountersObjectEv
Boostnote:_ZN2v88internal11interpreter11LoopBuilder10LoopHeaderEv
Boostnote:_ZN2v88internal11interpreter11LoopBuilder12JumpToHeaderEi
Boostnote:_ZN2v88internal11interpreter11LoopBuilder18BindContinueTargetEv
Boostnote:_ZN2v88internal11interpreter11LoopBuilder8LoopBodyEv
Boostnote:_ZN2v88internal11interpreter11LoopBuilderD0Ev
Boostnote:_ZN2v88internal11interpreter11LoopBuilderD1Ev
Boostnote:_ZN2v88internal11interpreter11LoopBuilderD2Ev
Boostnote:_ZN2v88internal11interpreter13SwitchBuilder13SetCaseTargetEiPNS0_10CaseClauseE
Boostnote:_ZN2v88internal11interpreter13SwitchBuilderD0Ev
Boostnote:_ZN2v88internal11interpreter13SwitchBuilderD1Ev
Boostnote:_ZN2v88internal11interpreter13SwitchBuilderD2Ev
Boostnote:_ZN2v88internal11interpreter14BytecodeLabels11BindToLabelEPNS1_20BytecodeArrayBuilderERKNS1_13BytecodeLabelE
Boostnote:_ZN2v88internal11interpreter14BytecodeLabels3NewEv
Boostnote:_ZN2v88internal11interpreter14BytecodeLabels4BindEPNS1_20BytecodeArrayBuilderE
Boostnote:_ZN2v88internal11interpreter15BytecodeDecoder19DecodeSignedOperandEmNS1_11OperandTypeENS1_12OperandScaleE
Boostnote:_ZN2v88internal11interpreter15BytecodeDecoder21DecodeRegisterOperandEmNS1_11OperandTypeENS1_12OperandScaleE
Boostnote:_ZN2v88internal11interpreter15BytecodeDecoder21DecodeUnsignedOperandEmNS1_11OperandTypeENS1_12OperandScaleE
Boostnote:_ZN2v88internal11interpreter15BytecodeDecoder25DecodeRegisterListOperandEmjNS1_11OperandTypeENS1_12OperandScaleE
Boostnote:_ZN2v88internal11interpreter15BytecodeDecoder6DecodeERNSt3__113basic_ostreamIcNS3_11char_traitsIcEEEEPKhi
Boostnote:_ZN2v88internal11interpreter15TryCatchBuilder6EndTryEv
Boostnote:_ZN2v88internal11interpreter15TryCatchBuilder8BeginTryENS1_8RegisterE
Boostnote:_ZN2v88internal11interpreter15TryCatchBuilder8EndCatchEv
Boostnote:_ZN2v88internal11interpreter15TryCatchBuilderD0Ev
Boostnote:_ZN2v88internal11interpreter15TryCatchBuilderD1Ev
Boostnote:_ZN2v88internal11interpreter15TryCatchBuilderD2Ev
Boostnote:_ZN2v88internal11interpreter17TryFinallyBuilder10EndFinallyEv
Boostnote:_ZN2v88internal11interpreter17TryFinallyBuilder12BeginFinallyEv
Boostnote:_ZN2v88internal11interpreter17TryFinallyBuilder12BeginHandlerEv
Boostnote:_ZN2v88internal11interpreter17TryFinallyBuilder6EndTryEv
Boostnote:_ZN2v88internal11interpreter17TryFinallyBuilder8BeginTryENS1_8RegisterE
Boostnote:_ZN2v88internal11interpreter17TryFinallyBuilder8LeaveTryEv
Boostnote:_ZN2v88internal11interpreter17TryFinallyBuilderD0Ev
Boostnote:_ZN2v88internal11interpreter17TryFinallyBuilderD1Ev
Boostnote:_ZN2v88internal11interpreter17TryFinallyBuilderD2Ev
Boostnote:_ZN2v88internal11interpreter19BytecodeArrayWriter10EmitSwitchEPNS1_12BytecodeNodeEPNS1_17BytecodeJumpTableE
Boostnote:_ZN2v88internal11interpreter19BytecodeArrayWriter11WriteSwitchEPNS1_12BytecodeNodeEPNS1_17BytecodeJumpTableE
Boostnote:_ZN2v88internal11interpreter19BytecodeArrayWriter12EmitBytecodeEPKNS1_12BytecodeNodeE
Boostnote:_ZN2v88internal11interpreter19BytecodeArrayWriter15ToBytecodeArrayEPNS0_7IsolateEiiNS0_6HandleINS0_9ByteArrayEEE
Boostnote:_ZN2v88internal11interpreter19BytecodeArrayWriter18BindJumpTableEntryEPNS1_17BytecodeJumpTableEi
Boostnote:_ZN2v88internal11interpreter19BytecodeArrayWriter21UpdateExitSeenInBlockENS1_8BytecodeE
Boostnote:_ZN2v88internal11interpreter19BytecodeArrayWriter22InvalidateLastBytecodeEv
Boostnote:_ZN2v88internal11interpreter19BytecodeArrayWriter22MaybeElideLastBytecodeENS1_8BytecodeEb
Boostnote:_ZN2v88internal11interpreter19BytecodeArrayWriter24PatchJumpWith8BitOperandEmi
Boostnote:_ZN2v88internal11interpreter19BytecodeArrayWriter24kMaxSizeOfPackedBytecodeE
Boostnote:_ZN2v88internal11interpreter19BytecodeArrayWriter25PatchJumpWith16BitOperandEmi
Boostnote:_ZN2v88internal11interpreter19BytecodeArrayWriter25PatchJumpWith32BitOperandEmi
Boostnote:_ZN2v88internal11interpreter19BytecodeArrayWriter25UpdateSourcePositionTableEPKNS1_12BytecodeNodeE
Boostnote:_ZN2v88internal11interpreter19BytecodeArrayWriter5WriteEPNS1_12BytecodeNodeE
Boostnote:_ZN2v88internal11interpreter19BytecodeArrayWriter8EmitJumpEPNS1_12BytecodeNodeEPNS1_13BytecodeLabelE
Boostnote:_ZN2v88internal11interpreter19BytecodeArrayWriter9BindLabelEPNS1_13BytecodeLabelE
Boostnote:_ZN2v88internal11interpreter19BytecodeArrayWriter9BindLabelERKNS1_13BytecodeLabelEPS3_
Boostnote:_ZN2v88internal11interpreter19BytecodeArrayWriter9PatchJumpEmm
Boostnote:_ZN2v88internal11interpreter19BytecodeArrayWriter9WriteJumpEPNS1_12BytecodeNodeEPNS1_13BytecodeLabelE
Boostnote:_ZN2v88internal11interpreter19BytecodeArrayWriterC1EPNS0_4ZoneEPNS1_20ConstantArrayBuilderENS0_26SourcePositionTableBuilder13RecordingModeE
Boostnote:_ZN2v88internal11interpreter19BytecodeArrayWriterC2EPNS0_4ZoneEPNS1_20ConstantArrayBuilderENS0_26SourcePositionTableBuilder13RecordingModeE
Boostnote:_ZN2v88internal11interpreter19HandlerTableBuilder13SetPredictionEiNS0_12HandlerTable15CatchPredictionE
Boostnote:_ZN2v88internal11interpreter19HandlerTableBuilder14ToHandlerTableEPNS0_7IsolateE
Boostnote:_ZN2v88internal11interpreter19HandlerTableBuilder15NewHandlerEntryEv
Boostnote:_ZN2v88internal11interpreter19HandlerTableBuilder15SetTryRegionEndEim
Boostnote:_ZN2v88internal11interpreter19HandlerTableBuilder16SetHandlerTargetEim
Boostnote:_ZN2v88internal11interpreter19HandlerTableBuilder17SetTryRegionStartEim
Boostnote:_ZN2v88internal11interpreter19HandlerTableBuilder18SetContextRegisterEiNS1_8RegisterE
Boostnote:_ZN2v88internal11interpreter19HandlerTableBuilderC1EPNS0_4ZoneE
Boostnote:_ZN2v88internal11interpreter19HandlerTableBuilderC2EPNS0_4ZoneE
Boostnote:_ZN2v88internal11interpreter20BytecodeArrayBuilder10CompareNilENS0_5Token5ValueENS2_8NilValueE
Boostnote:_ZN2v88internal11interpreter20BytecodeArrayBuilder10JumpIfNullEPNS1_13BytecodeLabelE
Boostnote:_ZN2v88internal11interpreter20BytecodeArrayBuilder10JumpIfTrueENS2_13ToBooleanModeEPNS1_13BytecodeLabelE
Boostnote:_ZN2v88internal11interpreter20BytecodeArrayBuilder10LoadGlobalEPKNS0_12AstRawStringEiNS0_10TypeofModeE
Boostnote:_ZN2v88internal11interpreter20BytecodeArrayBuilder10LogicalNotENS2_13ToBooleanModeE
Boostnote:_ZN2v88internal11interpreter20BytecodeArrayBuilder10MarkTryEndEi
Boostnote:_ZN2v88internal11interpreter20BytecodeArrayBuilder10PopContextENS1_8RegisterE
Boostnote:_ZN2v88internal11interpreter20BytecodeArrayBuilder10StackCheckEi
Boostnote:_ZN2v88internal11interpreter20BytecodeArrayBuilder11CallRuntimeENS0_7Runtime10FunctionIdE
Boostnote:_ZN2v88internal11interpreter20BytecodeArrayBuilder11CallRuntimeENS0_7Runtime10FunctionIdENS1_12RegisterListE
Boostnote:_ZN2v88internal11interpreter20BytecodeArrayBuilder11CallRuntimeENS0_7Runtime10FunctionIdENS1_8RegisterE
Boostnote:_ZN2v88internal11interpreter20BytecodeArrayBuilder11CompareNullEv
Boostnote:_ZN2v88internal11interpreter20BytecodeArrayBuilder11JumpIfFalseENS2_13ToBooleanModeEPNS1_13BytecodeLabelE
Boostnote:_ZN2v88internal11interpreter20BytecodeArrayBuilder11LoadBooleanEb
Boostnote:_ZN2v88internal11interpreter20BytecodeArrayBuilder11LoadLiteralENS0_9AstBigIntE
Boostnote:_ZN2v88internal11interpreter20BytecodeArrayBuilder11LoadLiteralENS0_9AstSymbolE
Boostnote:_ZN2v88internal11interpreter20BytecodeArrayBuilder11LoadLiteralEPKNS0_12AstRawStringE
Boostnote:_ZN2v88internal11interpreter20BytecodeArrayBuilder11LoadLiteralEPKNS0_5ScopeE
Boostnote:_ZN2v88internal11interpreter20BytecodeArrayBuilder11LoadLiteralEPNS0_3SmiE
Boostnote:_ZN2v88internal11interpreter20BytecodeArrayBuilder11LoadLiteralEd
Boostnote:_ZN2v88internal11interpreter20BytecodeArrayBuilder11LoadTheHoleEv
Boostnote:_ZN2v88internal11interpreter20BytecodeArrayBuilder11MarkHandlerEiNS0_12HandlerTable15CatchPredictionE
Boostnote:_ZN2v88internal11interpreter20BytecodeArrayBuilder11PushContextENS1_8RegisterE
Boostnote:_ZN2v88internal11interpreter20BytecodeArrayBuilder11StoreGlobalEPKNS0_12AstRawStringEi
Boostnote:_ZN2v88internal11interpreter20BytecodeArrayBuilder11WriteSwitchEPNS1_12BytecodeNodeEPNS1_17BytecodeJumpTableE
Boostnote:_ZN2v88internal11interpreter20BytecodeArrayBuilder12CallPropertyENS1_8RegisterENS1_12RegisterListEi
Boostnote:_ZN2v88internal11interpreter20BytecodeArrayBuilder12ForInPrepareENS1_12RegisterListEi
Boostnote:_ZN2v88internal11interpreter20BytecodeArrayBuilder12JumpIfNotNilEPNS1_13BytecodeLabelENS0_5Token5ValueENS2_8NilValueE
Boostnote:_ZN2v88internal11interpreter20BytecodeArrayBuilder12MarkTryBeginEiNS1_8RegisterE
Boostnote:_ZN2v88internal11interpreter20BytecodeArrayBuilder12MoveRegisterENS1_8RegisterES3_
Boostnote:_ZN2v88internal11interpreter20BytecodeArrayBuilder12OutputMovRawENS1_8RegisterES3_
Boostnote:_ZN2v88internal11interpreter20BytecodeArrayBuilder13CallJSRuntimeEiNS1_12RegisterListE
Boostnote:_ZN2v88internal11interpreter20BytecodeArrayBuilder13CompareTypeOfENS1_15TestTypeOfFlags11LiteralFlagE
Boostnote:_ZN2v88internal11interpreter20BytecodeArrayBuilder13CreateClosureEmii
Boostnote:_ZN2v88internal11interpreter20BytecodeArrayBuilder13ForInContinueENS1_8RegisterES3_
Boostnote:_ZN2v88internal11interpreter20BytecodeArrayBuilder13JumpIfNotNullEPNS1_13BytecodeLabelE
Boostnote:_ZN2v88internal11interpreter20BytecodeArrayBuilder13LoadUndefinedEv
Boostnote:_ZN2v88internal11interpreter20BytecodeArrayBuilder13OutputLdarRawENS1_8RegisterE
Boostnote:_ZN2v88internal11interpreter20BytecodeArrayBuilder13OutputStarRawENS1_8RegisterE
Boostnote:_ZN2v88internal11interpreter20BytecodeArrayBuilder14CallWithSpreadENS1_8RegisterENS1_12RegisterListEi
Boostnote:_ZN2v88internal11interpreter20BytecodeArrayBuilder14ForInEnumerateENS1_8RegisterE
Boostnote:_ZN2v88internal11interpreter20BytecodeArrayBuilder14LoadLookupSlotEPKNS0_12AstRawStringENS0_10TypeofModeE
Boostnote:_ZN2v88internal11interpreter20BytecodeArrayBuilder14UnaryOperationENS0_5Token5ValueEi
Boostnote:_ZN2v88internal11interpreter20BytecodeArrayBuilder15BinaryOperationENS0_5Token5ValueENS1_8RegisterEi
Boostnote:_ZN2v88internal11interpreter20BytecodeArrayBuilder15CallAnyReceiverENS1_8RegisterENS1_12RegisterListEi
Boostnote:_ZN2v88internal11interpreter20BytecodeArrayBuilder15CreateArgumentsENS0_19CreateArgumentsTypeE
Boostnote:_ZN2v88internal11interpreter20BytecodeArrayBuilder15IncBlockCounterEi
Boostnote:_ZN2v88internal11interpreter20BytecodeArrayBuilder15JumpIfUndefinedEPNS1_13BytecodeLabelE
Boostnote:_ZN2v88internal11interpreter20BytecodeArrayBuilder15LoadContextSlotENS1_8RegisterEiiNS2_21ContextSlotMutabilityE
Boostnote:_ZN2v88internal11interpreter20BytecodeArrayBuilder15ResumeGeneratorENS1_8RegisterENS1_12RegisterListE
Boostnote:_ZN2v88internal11interpreter20BytecodeArrayBuilder15StoreLookupSlotEPKNS0_12AstRawStringENS0_12LanguageModeENS0_18LookupHoistingModeE
Boostnote:_ZN2v88internal11interpreter20BytecodeArrayBuilder15ToBytecodeArrayEPNS0_7IsolateE
Boostnote:_ZN2v88internal11interpreter20BytecodeArrayBuilder16CompareOperationENS0_5Token5ValueENS1_8RegisterE
Boostnote:_ZN2v88internal11interpreter20BytecodeArrayBuilder16CompareOperationENS0_5Token5ValueENS1_8RegisterEi
Boostnote:_ZN2v88internal11interpreter20BytecodeArrayBuilder16CompareReferenceENS1_8RegisterE
Boostnote:_ZN2v88internal11interpreter20BytecodeArrayBuilder16CompareUndefinedEv
Boostnote:_ZN2v88internal11interpreter20BytecodeArrayBuilder16JumpIfJSReceiverEPNS1_13BytecodeLabelE
Boostnote:_ZN2v88internal11interpreter20BytecodeArrayBuilder16StoreContextSlotENS1_8RegisterEii
Boostnote:_ZN2v88internal11interpreter20BytecodeArrayBuilder16SuspendGeneratorENS1_8RegisterENS1_12RegisterListEi
Boostnote:_ZN2v88internal11interpreter20BytecodeArrayBuilder17AllocateJumpTableEii
Boostnote:_ZN2v88internal11interpreter20BytecodeArrayBuilder17CreateEvalContextEPKNS0_5ScopeEi
Boostnote:_ZN2v88internal11interpreter20BytecodeArrayBuilder17CreateWithContextENS1_8RegisterEPKNS0_5ScopeE
Boostnote:_ZN2v88internal11interpreter20BytecodeArrayBuilder17GetTemplateObjectEmi
Boostnote:_ZN2v88internal11interpreter20BytecodeArrayBuilder17LoadKeyedPropertyENS1_8RegisterEi
Boostnote:_ZN2v88internal11interpreter20BytecodeArrayBuilder17LoadNamedPropertyENS1_8RegisterEPKNS0_12AstRawStringEi
Boostnote:_ZN2v88internal11interpreter20BytecodeArrayBuilder17SetPendingMessageEv
Boostnote:_ZN2v88internal11interpreter20BytecodeArrayBuilder18CallRuntimeForPairENS0_7Runtime10FunctionIdENS1_12RegisterListES5_
Boostnote:_ZN2v88internal11interpreter20BytecodeArrayBuilder18CallRuntimeForPairENS0_7Runtime10FunctionIdENS1_8RegisterENS1_12RegisterListE
Boostnote:_ZN2v88internal11interpreter20BytecodeArrayBuilder18CollectTypeProfileEi
Boostnote:_ZN2v88internal11interpreter20BytecodeArrayBuilder18CreateArrayLiteralEmii
Boostnote:_ZN2v88internal11interpreter20BytecodeArrayBuilder18CreateBlockContextEPKNS0_5ScopeE
Boostnote:_ZN2v88internal11interpreter20BytecodeArrayBuilder18CreateCatchContextENS1_8RegisterEPKNS0_5ScopeE
Boostnote:_ZN2v88internal11interpreter20BytecodeArrayBuilder18JumpIfNotUndefinedEPNS1_13BytecodeLabelE
Boostnote:_ZN2v88internal11interpreter20BytecodeArrayBuilder18LoadModuleVariableEii
Boostnote:_ZN2v88internal11interpreter20BytecodeArrayBuilder18StoreKeyedPropertyENS1_8RegisterES3_iNS0_12LanguageModeE
Boostnote:_ZN2v88internal11interpreter20BytecodeArrayBuilder18StoreNamedPropertyENS1_8RegisterEPKNS0_12AstRawStringEiNS0_12LanguageModeE
Boostnote:_ZN2v88internal11interpreter20BytecodeArrayBuilder18StoreNamedPropertyENS1_8RegisterEmiNS0_12LanguageModeE
Boostnote:_ZN2v88internal11interpreter20BytecodeArrayBuilder19CompareUndetectableEv
Boostnote:_ZN2v88internal11interpreter20BytecodeArrayBuilder19ConstructWithSpreadENS1_8RegisterENS1_12RegisterListEi
Boostnote:_ZN2v88internal11interpreter20BytecodeArrayBuilder19CreateObjectLiteralEmiiNS1_8RegisterE
Boostnote:_ZN2v88internal11interpreter20BytecodeArrayBuilder19CreateRegExpLiteralEPKNS0_12AstRawStringEii
Boostnote:_ZN2v88internal11interpreter20BytecodeArrayBuilder19GetSuperConstructorENS1_8RegisterE
Boostnote:_ZN2v88internal11interpreter20BytecodeArrayBuilder19StoreInArrayLiteralENS1_8RegisterES3_i
Boostnote:_ZN2v88internal11interpreter20BytecodeArrayBuilder19StoreModuleVariableEii
Boostnote:_ZN2v88internal11interpreter20BytecodeArrayBuilder20GetConstantPoolEntryENS0_9AstBigIntE
Boostnote:_ZN2v88internal11interpreter20BytecodeArrayBuilder20GetConstantPoolEntryEPKNS0_12AstRawStringE
Boostnote:_ZN2v88internal11interpreter20BytecodeArrayBuilder20GetConstantPoolEntryEPKNS0_5ScopeE
Boostnote:_ZN2v88internal11interpreter20BytecodeArrayBuilder20GetConstantPoolEntryEd
Boostnote:_ZN2v88internal11interpreter20BytecodeArrayBuilder20LoadIteratorPropertyENS1_8RegisterEi
Boostnote:_ZN2v88internal11interpreter20BytecodeArrayBuilder20LoadLookupGlobalSlotEPKNS0_12AstRawStringENS0_10TypeofModeEii
Boostnote:_ZN2v88internal11interpreter20BytecodeArrayBuilder20NaNConstantPoolEntryEv
Boostnote:_ZN2v88internal11interpreter20BytecodeArrayBuilder21CallUndefinedReceiverENS1_8RegisterENS1_12RegisterListEi
Boostnote:_ZN2v88internal11interpreter20BytecodeArrayBuilder21CreateFunctionContextEPKNS0_5ScopeEi
Boostnote:_ZN2v88internal11interpreter20BytecodeArrayBuilder21LoadConstantPoolEntryEm
Boostnote:_ZN2v88internal11interpreter20BytecodeArrayBuilder21LoadLookupContextSlotEPKNS0_12AstRawStringENS0_10TypeofModeEii
Boostnote:_ZN2v88internal11interpreter20BytecodeArrayBuilder21SetDeferredSourceInfoENS1_18BytecodeSourceInfoE
Boostnote:_ZN2v88internal11interpreter20BytecodeArrayBuilder21StoreNamedOwnPropertyENS1_8RegisterEPKNS0_12AstRawStringEi
Boostnote:_ZN2v88internal11interpreter20BytecodeArrayBuilder21SwitchOnSmiNoFeedbackEPNS1_17BytecodeJumpTableE
Boostnote:_ZN2v88internal11interpreter20BytecodeArrayBuilder22SwitchOnGeneratorStateENS1_8RegisterEPNS1_17BytecodeJumpTableE
Boostnote:_ZN2v88internal11interpreter20BytecodeArrayBuilder23CreateEmptyArrayLiteralEi
Boostnote:_ZN2v88internal11interpreter20BytecodeArrayBuilder23GetInputRegisterOperandENS1_8RegisterE
Boostnote:_ZN2v88internal11interpreter20BytecodeArrayBuilder23StoreHomeObjectPropertyENS1_8RegisterEiNS0_12LanguageModeE
Boostnote:_ZN2v88internal11interpreter20BytecodeArrayBuilder24CreateEmptyObjectLiteralEv
Boostnote:_ZN2v88internal11interpreter20BytecodeArrayBuilder24GetOutputRegisterOperandENS1_8RegisterE
Boostnote:_ZN2v88internal11interpreter20BytecodeArrayBuilder25BinaryOperationSmiLiteralENS0_5Token5ValueEPNS0_3SmiEi
Boostnote:_ZN2v88internal11interpreter20BytecodeArrayBuilder25LoadAsyncIteratorPropertyENS1_8RegisterEi
Boostnote:_ZN2v88internal11interpreter20BytecodeArrayBuilder25ThrowReferenceErrorIfHoleEPKNS0_12AstRawStringE
Boostnote:_ZN2v88internal11interpreter20BytecodeArrayBuilder25ThrowSuperNotCalledIfHoleEv
Boostnote:_ZN2v88internal11interpreter20BytecodeArrayBuilder26LoadClassFieldsInitializerENS1_8RegisterEi
Boostnote:_ZN2v88internal11interpreter20BytecodeArrayBuilder26StoreAccumulatorInRegisterENS1_8RegisterE
Boostnote:_ZN2v88internal11interpreter20BytecodeArrayBuilder26StoreDataPropertyInLiteralENS1_8RegisterES3_NS_4base5FlagsINS0_25DataPropertyInLiteralFlagEiEEi
Boostnote:_ZN2v88internal11interpreter20BytecodeArrayBuilder27GetInputRegisterListOperandENS1_12RegisterListE
Boostnote:_ZN2v88internal11interpreter20BytecodeArrayBuilder27LoadAccumulatorWithRegisterENS1_8RegisterE
Boostnote:_ZN2v88internal11interpreter20BytecodeArrayBuilder27StoreClassFieldsInitializerENS1_8RegisterEi
Boostnote:_ZN2v88internal11interpreter20BytecodeArrayBuilder28GetOutputRegisterListOperandENS1_12RegisterListE
Boostnote:_ZN2v88internal11interpreter20BytecodeArrayBuilder28SetDeferredConstantPoolEntryEmNS0_6HandleINS0_6ObjectEEE
Boostnote:_ZN2v88internal11interpreter20BytecodeArrayBuilder30AttachOrEmitDeferredSourceInfoEPNS1_12BytecodeNodeE
Boostnote:_ZN2v88internal11interpreter20BytecodeArrayBuilder31IteratorSymbolConstantPoolEntryEv
Boostnote:_ZN2v88internal11interpreter20BytecodeArrayBuilder32EmptyFixedArrayConstantPoolEntryEv
Boostnote:_ZN2v88internal11interpreter20BytecodeArrayBuilder32ThrowSuperAlreadyCalledIfNotHoleEv
Boostnote:_ZN2v88internal11interpreter20BytecodeArrayBuilder33AllocateDeferredConstantPoolEntryEv
Boostnote:_ZN2v88internal11interpreter20BytecodeArrayBuilder33HomeObjectSymbolConstantPoolEntryEv
Boostnote:_ZN2v88internal11interpreter20BytecodeArrayBuilder34ClassFieldsSymbolConstantPoolEntryEv
Boostnote:_ZN2v88internal11interpreter20BytecodeArrayBuilder36AsyncIteratorSymbolConstantPoolEntryEv
Boostnote:_ZN2v88internal11interpreter20BytecodeArrayBuilder44InterpreterTrampolineSymbolConstantPoolEntryEv
Boostnote:_ZN2v88internal11interpreter20BytecodeArrayBuilder4BindEPNS1_13BytecodeLabelE
Boostnote:_ZN2v88internal11interpreter20BytecodeArrayBuilder4BindEPNS1_17BytecodeJumpTableEi
Boostnote:_ZN2v88internal11interpreter20BytecodeArrayBuilder4BindERKNS1_13BytecodeLabelEPS3_
Boostnote:_ZN2v88internal11interpreter20BytecodeArrayBuilder4JumpEPNS1_13BytecodeLabelE
Boostnote:_ZN2v88internal11interpreter20BytecodeArrayBuilder50EmptyObjectBoilerplateDescriptionConstantPoolEntryEv
Boostnote:_ZN2v88internal11interpreter20BytecodeArrayBuilder5AbortENS0_11AbortReasonE
Boostnote:_ZN2v88internal11interpreter20BytecodeArrayBuilder5ThrowEv
Boostnote:_ZN2v88internal11interpreter20BytecodeArrayBuilder5WriteEPNS1_12BytecodeNodeE
Boostnote:_ZN2v88internal11interpreter20BytecodeArrayBuilder6DeleteENS1_8RegisterENS0_12LanguageModeE
Boostnote:_ZN2v88internal11interpreter20BytecodeArrayBuilder6ReturnEv
Boostnote:_ZN2v88internal11interpreter20BytecodeArrayBuilder6ToNameENS1_8RegisterE
Boostnote:_ZN2v88internal11interpreter20BytecodeArrayBuilder6TypeOfEv
Boostnote:_ZN2v88internal11interpreter20BytecodeArrayBuilder7ReThrowEv
Boostnote:_ZN2v88internal11interpreter20BytecodeArrayBuilder8DebuggerEv
Boostnote:_ZN2v88internal11interpreter20BytecodeArrayBuilder8JumpLoopEPNS1_13BytecodeLabelEi
Boostnote:_ZN2v88internal11interpreter20BytecodeArrayBuilder8LoadNullEv
Boostnote:_ZN2v88internal11interpreter20BytecodeArrayBuilder8LoadTrueEv
Boostnote:_ZN2v88internal11interpreter20BytecodeArrayBuilder8ToNumberEi
Boostnote:_ZN2v88internal11interpreter20BytecodeArrayBuilder8ToObjectENS1_8RegisterE
Boostnote:_ZN2v88internal11interpreter20BytecodeArrayBuilder8ToStringEv
Boostnote:_ZN2v88internal11interpreter20BytecodeArrayBuilder9ConstructENS1_8RegisterENS1_12RegisterListEi
Boostnote:_ZN2v88internal11interpreter20BytecodeArrayBuilder9ForInNextENS1_8RegisterES3_NS1_12RegisterListEi
Boostnote:_ZN2v88internal11interpreter20BytecodeArrayBuilder9ForInStepENS1_8RegisterE
Boostnote:_ZN2v88internal11interpreter20BytecodeArrayBuilder9JumpIfNilEPNS1_13BytecodeLabelENS0_5Token5ValueENS2_8NilValueE
Boostnote:_ZN2v88internal11interpreter20BytecodeArrayBuilder9LoadFalseEv
Boostnote:_ZN2v88internal11interpreter20BytecodeArrayBuilder9ToNumericEi
Boostnote:_ZN2v88internal11interpreter20BytecodeArrayBuilder9WriteJumpEPNS1_12BytecodeNodeEPNS1_13BytecodeLabelE
Boostnote:_ZN2v88internal11interpreter20BytecodeArrayBuilderC1EPNS0_4ZoneEiiPNS0_18FeedbackVectorSpecENS0_26SourcePositionTableBuilder13RecordingModeE
Boostnote:_ZN2v88internal11interpreter20BytecodeArrayBuilderC2EPNS0_4ZoneEiiPNS0_18FeedbackVectorSpecENS0_26SourcePositionTableBuilder13RecordingModeE
Boostnote:_ZN2v88internal11interpreter20ConstantArrayBuilder12ToFixedArrayEPNS0_7IsolateE
Boostnote:_ZN2v88internal11interpreter20ConstantArrayBuilder13AllocateIndexENS2_5EntryE
Boostnote:_ZN2v88internal11interpreter20ConstantArrayBuilder13SetDeferredAtEmNS0_6HandleINS0_6ObjectEEE
Boostnote:_ZN2v88internal11interpreter20ConstantArrayBuilder13k8BitCapacityE
Boostnote:_ZN2v88internal11interpreter20ConstantArrayBuilder14InsertDeferredEv
Boostnote:_ZN2v88internal11interpreter20ConstantArrayBuilder14k16BitCapacityE
Boostnote:_ZN2v88internal11interpreter20ConstantArrayBuilder14k32BitCapacityE
Boostnote:_ZN2v88internal11interpreter20ConstantArrayBuilder15InsertJumpTableEm
Boostnote:_ZN2v88internal11interpreter20ConstantArrayBuilder15SetJumpTableSmiEmPNS0_3SmiE
Boostnote:_ZN2v88internal11interpreter20ConstantArrayBuilder18AllocateIndexArrayENS2_5EntryEm
Boostnote:_ZN2v88internal11interpreter20ConstantArrayBuilder18ConstantArraySlice2AtEm
Boostnote:_ZN2v88internal11interpreter20ConstantArrayBuilder18ConstantArraySlice7ReserveEv
Boostnote:_ZN2v88internal11interpreter20ConstantArrayBuilder18ConstantArraySlice8AllocateENS2_5EntryEm
Boostnote:_ZN2v88internal11interpreter20ConstantArrayBuilder18ConstantArraySlice9UnreserveEv
Boostnote:_ZN2v88internal11interpreter20ConstantArrayBuilder18ConstantArraySliceC1EPNS0_4ZoneEmmNS1_11OperandSizeE
Boostnote:_ZN2v88internal11interpreter20ConstantArrayBuilder18ConstantArraySliceC2EPNS0_4ZoneEmmNS1_11OperandSizeE
Boostnote:_ZN2v88internal11interpreter20ConstantArrayBuilder19CommitReservedEntryENS1_11OperandSizeEPNS0_3SmiE
Boostnote:_ZN2v88internal11interpreter20ConstantArrayBuilder19CreateReservedEntryEv
Boostnote:_ZN2v88internal11interpreter20ConstantArrayBuilder20DiscardReservedEntryENS1_11OperandSizeE
Boostnote:_ZN2v88internal11interpreter20ConstantArrayBuilder20InsertIteratorSymbolEv
Boostnote:_ZN2v88internal11interpreter20ConstantArrayBuilder21AllocateReservedEntryEPNS0_3SmiE
Boostnote:_ZN2v88internal11interpreter20ConstantArrayBuilder21InsertEmptyFixedArrayEv
Boostnote:_ZN2v88internal11interpreter20ConstantArrayBuilder22InsertHomeObjectSymbolEv
Boostnote:_ZN2v88internal11interpreter20ConstantArrayBuilder23InsertClassFieldsSymbolEv
Boostnote:_ZN2v88internal11interpreter20ConstantArrayBuilder25InsertAsyncIteratorSymbolEv
Boostnote:_ZN2v88internal11interpreter20ConstantArrayBuilder33InsertInterpreterTrampolineSymbolEv
Boostnote:_ZN2v88internal11interpreter20ConstantArrayBuilder39InsertEmptyObjectBoilerplateDescriptionEv
Boostnote:_ZN2v88internal11interpreter20ConstantArrayBuilder6InsertENS0_9AstBigIntE
Boostnote:_ZN2v88internal11interpreter20ConstantArrayBuilder6InsertEPKNS0_12AstRawStringE
Boostnote:_ZN2v88internal11interpreter20ConstantArrayBuilder6InsertEPKNS0_5ScopeE
Boostnote:_ZN2v88internal11interpreter20ConstantArrayBuilder6InsertEPNS0_3SmiE
Boostnote:_ZN2v88internal11interpreter20ConstantArrayBuilder6InsertEd
Boostnote:_ZN2v88internal11interpreter20ConstantArrayBuilder9InsertNaNEv
Boostnote:_ZN2v88internal11interpreter20ConstantArrayBuilderC1EPNS0_4ZoneE
Boostnote:_ZN2v88internal11interpreter20ConstantArrayBuilderC2EPNS0_4ZoneE
Boostnote:_ZN2v88internal11interpreter21BytecodeArrayAccessor18UpdateOperandScaleEv
Boostnote:_ZN2v88internal11interpreter21BytecodeArrayAccessor9SetOffsetEi
Boostnote:_ZN2v88internal11interpreter21BytecodeArrayAccessorC1ENS0_6HandleINS0_13BytecodeArrayEEEi
Boostnote:_ZN2v88internal11interpreter21BytecodeArrayAccessorC2ENS0_6HandleINS0_13BytecodeArrayEEEi
Boostnote:_ZN2v88internal11interpreter21BytecodeArrayIterator7AdvanceEv
Boostnote:_ZN2v88internal11interpreter21BytecodeArrayIteratorC1ENS0_6HandleINS0_13BytecodeArrayEEE
Boostnote:_ZN2v88internal11interpreter21BytecodeArrayIteratorC2ENS0_6HandleINS0_13BytecodeArrayEEE
Boostnote:_ZN2v88internal11interpreter22JumpTableTargetOffsets8iterator23UpdateAndAdvanceToValidEv
Boostnote:_ZN2v88internal11interpreter22JumpTableTargetOffsets8iteratorC1EiiiPKNS1_21BytecodeArrayAccessorE
Boostnote:_ZN2v88internal11interpreter22JumpTableTargetOffsets8iteratorC2EiiiPKNS1_21BytecodeArrayAccessorE
Boostnote:_ZN2v88internal11interpreter22JumpTableTargetOffsets8iteratordeEv
Boostnote:_ZN2v88internal11interpreter22JumpTableTargetOffsets8iteratorneERKS3_
Boostnote:_ZN2v88internal11interpreter22JumpTableTargetOffsets8iteratorppEv
Boostnote:_ZN2v88internal11interpreter22JumpTableTargetOffsetsC1EPKNS1_21BytecodeArrayAccessorEiii
Boostnote:_ZN2v88internal11interpreter22JumpTableTargetOffsetsC2EPKNS1_21BytecodeArrayAccessorEiii
Boostnote:_ZN2v88internal11interpreter25BytecodeRegisterOptimizer11MaterializeEPNS2_12RegisterInfoE
Boostnote:_ZN2v88internal11interpreter25BytecodeRegisterOptimizer12RegisterInfo13GetEquivalentEv
Boostnote:_ZN2v88internal11interpreter25BytecodeRegisterOptimizer12RegisterInfo21AddToEquivalenceSetOfEPS3_
Boostnote:_ZN2v88internal11interpreter25BytecodeRegisterOptimizer12RegisterInfo22GetAllocatedEquivalentEv
Boostnote:_ZN2v88internal11interpreter25BytecodeRegisterOptimizer12RegisterInfo23MoveToNewEquivalenceSetEjb
Boostnote:_ZN2v88internal11interpreter25BytecodeRegisterOptimizer12RegisterInfo25GetMaterializedEquivalentEv
Boostnote:_ZN2v88internal11interpreter25BytecodeRegisterOptimizer12RegisterInfo26GetEquivalentToMaterializeEv
Boostnote:_ZN2v88internal11interpreter25BytecodeRegisterOptimizer12RegisterInfo31MarkTemporariesAsUnmaterializedENS1_8RegisterE
Boostnote:_ZN2v88internal11interpreter25BytecodeRegisterOptimizer12RegisterInfo34GetMaterializedEquivalentOtherThanENS1_8RegisterE
Boostnote:_ZN2v88internal11interpreter25BytecodeRegisterOptimizer15GrowRegisterMapENS1_8RegisterE
Boostnote:_ZN2v88internal11interpreter25BytecodeRegisterOptimizer16AllocateRegisterEPNS2_12RegisterInfoE
Boostnote:_ZN2v88internal11interpreter25BytecodeRegisterOptimizer16GetInputRegisterENS1_8RegisterE
Boostnote:_ZN2v88internal11interpreter25BytecodeRegisterOptimizer16RegisterTransferEPNS2_12RegisterInfoES4_
Boostnote:_ZN2v88internal11interpreter25BytecodeRegisterOptimizer19AddToEquivalenceSetEPNS2_12RegisterInfoES4_
Boostnote:_ZN2v88internal11interpreter25BytecodeRegisterOptimizer20GetInputRegisterListENS1_12RegisterListE
Boostnote:_ZN2v88internal11interpreter25BytecodeRegisterOptimizer21PrepareOutputRegisterENS1_8RegisterE
Boostnote:_ZN2v88internal11interpreter25BytecodeRegisterOptimizer21RegisterAllocateEventENS1_8RegisterE
Boostnote:_ZN2v88internal11interpreter25BytecodeRegisterOptimizer21RegisterListFreeEventENS1_12RegisterListE
Boostnote:_ZN2v88internal11interpreter25BytecodeRegisterOptimizer21kInvalidEquivalenceIdE
Boostnote:_ZN2v88internal11interpreter25BytecodeRegisterOptimizer22OutputRegisterTransferEPNS2_12RegisterInfoES4_
Boostnote:_ZN2v88internal11interpreter25BytecodeRegisterOptimizer25GetMaterializedEquivalentEPNS2_12RegisterInfoE
Boostnote:_ZN2v88internal11interpreter25BytecodeRegisterOptimizer25PrepareOutputRegisterListENS1_12RegisterListE
Boostnote:_ZN2v88internal11interpreter25BytecodeRegisterOptimizer25RegisterListAllocateEventENS1_12RegisterListE
Boostnote:_ZN2v88internal11interpreter25BytecodeRegisterOptimizer27PushToRegistersNeedingFlushEPNS2_12RegisterInfoE
Boostnote:_ZN2v88internal11interpreter25BytecodeRegisterOptimizer28CreateMaterializedEquivalentEPNS2_12RegisterInfoE
Boostnote:_ZN2v88internal11interpreter25BytecodeRegisterOptimizer39GetMaterializedEquivalentNotAccumulatorEPNS2_12RegisterInfoE
Boostnote:_ZN2v88internal11interpreter25BytecodeRegisterOptimizer5FlushEv
Boostnote:_ZN2v88internal11interpreter25BytecodeRegisterOptimizerC1EPNS0_4ZoneEPNS1_25BytecodeRegisterAllocatorEiiPNS2_14BytecodeWriterE
Boostnote:_ZN2v88internal11interpreter25BytecodeRegisterOptimizerC2EPNS0_4ZoneEPNS1_25BytecodeRegisterAllocatorEiiPNS2_14BytecodeWriterE
Boostnote:_ZN2v88internal11interpreter27BreakableControlFlowBuilder14EmitJumpIfNullEPNS1_14BytecodeLabelsE
Boostnote:_ZN2v88internal11interpreter27BreakableControlFlowBuilder14EmitJumpIfTrueENS1_20BytecodeArrayBuilder13ToBooleanModeEPNS1_14BytecodeLabelsE
Boostnote:_ZN2v88internal11interpreter27BreakableControlFlowBuilder15BindBreakTargetEv
Boostnote:_ZN2v88internal11interpreter27BreakableControlFlowBuilder15EmitJumpIfFalseENS1_20BytecodeArrayBuilder13ToBooleanModeEPNS1_14BytecodeLabelsE
Boostnote:_ZN2v88internal11interpreter27BreakableControlFlowBuilder19EmitJumpIfUndefinedEPNS1_14BytecodeLabelsE
Boostnote:_ZN2v88internal11interpreter27BreakableControlFlowBuilder8EmitJumpEPNS1_14BytecodeLabelsE
Boostnote:_ZN2v88internal11interpreter27BreakableControlFlowBuilderD0Ev
Boostnote:_ZN2v88internal11interpreter27BreakableControlFlowBuilderD1Ev
Boostnote:_ZN2v88internal11interpreter27BreakableControlFlowBuilderD2Ev
Boostnote:_ZN2v88internal11interpreter27BytecodeArrayRandomIterator21UpdateOffsetFromIndexEv
Boostnote:_ZN2v88internal11interpreter27BytecodeArrayRandomIteratorC1ENS0_6HandleINS0_13BytecodeArrayEEEPNS0_4ZoneE
Boostnote:_ZN2v88internal11interpreter27BytecodeArrayRandomIteratorC2ENS0_6HandleINS0_13BytecodeArrayEEEPNS0_4ZoneE
Boostnote:_ZN2v88internal11interpreter29ConditionalControlFlowBuilder4ElseEv
Boostnote:_ZN2v88internal11interpreter29ConditionalControlFlowBuilder4ThenEv
Boostnote:_ZN2v88internal11interpreter29ConditionalControlFlowBuilder9JumpToEndEv
Boostnote:_ZN2v88internal11interpreter29ConditionalControlFlowBuilderD0Ev
Boostnote:_ZN2v88internal11interpreter29ConditionalControlFlowBuilderD1Ev
Boostnote:_ZN2v88internal11interpreter29ConditionalControlFlowBuilderD2Ev
Boostnote:_ZN2v88internal11interpreter8Register13AreContiguousES2_S2_S2_S2_S2_
Boostnote:_ZN2v88internal11interpreter8Register14bytecode_arrayEv
Boostnote:_ZN2v88internal11interpreter8Register15bytecode_offsetEv
Boostnote:_ZN2v88internal11interpreter8Register15current_contextEv
Boostnote:_ZN2v88internal11interpreter8Register16function_closureEv
Boostnote:_ZN2v88internal11interpreter8Register18FromParameterIndexEii
Boostnote:_ZN2v88internal11interpreter8Register19virtual_accumulatorEv
Boostnote:_ZN2v88internal11interpreter9Bytecodes12IsDebugBreakENS1_8BytecodeE
Boostnote:_ZN2v88internal11interpreter9Bytecodes13GetDebugBreakENS1_8BytecodeE
Boostnote:_ZN2v88internal11interpreter9Bytecodes13kOperandCountE
Boostnote:_ZN2v88internal11interpreter9Bytecodes13kOperandSizesE
Boostnote:_ZN2v88internal11interpreter9Bytecodes13kOperandTypesE
Boostnote:_ZN2v88internal11interpreter9Bytecodes14kBytecodeSizesE
Boostnote:_ZN2v88internal11interpreter9Bytecodes15IsStarLookaheadENS1_8BytecodeENS1_12OperandScaleE
Boostnote:_ZN2v88internal11interpreter9Bytecodes15kAccumulatorUseE
Boostnote:_ZN2v88internal11interpreter9Bytecodes16GetOperandOffsetENS1_8BytecodeEiNS1_12OperandScaleE
Boostnote:_ZN2v88internal11interpreter9Bytecodes17kOperandKindSizesE
Boostnote:_ZN2v88internal11interpreter9Bytecodes17kOperandTypeInfosE
Boostnote:_ZN2v88internal11interpreter9Bytecodes18BytecodeHasHandlerENS1_8BytecodeENS1_12OperandScaleE
Boostnote:_ZN2v88internal11interpreter9Bytecodes21IsRegisterOperandTypeENS1_11OperandTypeE
Boostnote:_ZN2v88internal11interpreter9Bytecodes21IsUnsignedOperandTypeENS1_11OperandTypeE
Boostnote:_ZN2v88internal11interpreter9Bytecodes23GetJumpWithoutToBooleanENS1_8BytecodeE
Boostnote:_ZN2v88internal11interpreter9Bytecodes25IsRegisterListOperandTypeENS1_11OperandTypeE
Boostnote:_ZN2v88internal11interpreter9Bytecodes26IsRegisterInputOperandTypeENS1_11OperandTypeE
Boostnote:_ZN2v88internal11interpreter9Bytecodes26MakesCallAlongCriticalPathENS1_8BytecodeE
Boostnote:_ZN2v88internal11interpreter9Bytecodes27IsRegisterOutputOperandTypeENS1_11OperandTypeE
Boostnote:_ZN2v88internal11interpreter9Bytecodes30IsBytecodeWithScalableOperandsENS1_8BytecodeE
Boostnote:_ZN2v88internal11interpreter9Bytecodes8ToStringENS1_8BytecodeE
Boostnote:_ZN2v88internal11interpreter9Bytecodes8ToStringENS1_8BytecodeENS1_12OperandScaleE
Boostnote:_ZN2v88internal11interpreterlsERNSt3__113basic_ostreamIcNS2_11char_traitsIcEEEERKNS1_11OperandSizeE
Boostnote:_ZN2v88internal11interpreterlsERNSt3__113basic_ostreamIcNS2_11char_traitsIcEEEERKNS1_11OperandTypeE
Boostnote:_ZN2v88internal11interpreterlsERNSt3__113basic_ostreamIcNS2_11char_traitsIcEEEERKNS1_12BytecodeNodeE
Boostnote:_ZN2v88internal11interpreterlsERNSt3__113basic_ostreamIcNS2_11char_traitsIcEEEERKNS1_12OperandScaleE
Boostnote:_ZN2v88internal11interpreterlsERNSt3__113basic_ostreamIcNS2_11char_traitsIcEEEERKNS1_14AccumulatorUseE
Boostnote:_ZN2v88internal11interpreterlsERNSt3__113basic_ostreamIcNS2_11char_traitsIcEEEERKNS1_18BytecodeSourceInfoE
Boostnote:_ZN2v88internal11interpreterlsERNSt3__113basic_ostreamIcNS2_11char_traitsIcEEEERKNS1_20BytecodeArrayBuilder13ToBooleanModeE
Boostnote:_ZN2v88internal11interpreterlsERNSt3__113basic_ostreamIcNS2_11char_traitsIcEEEERKNS1_8BytecodeE
Boostnote:_ZN2v88internal12AllocatePageEPvPm
Boostnote:_ZN2v88internal12AsmJsScanner11ResetLocalsEv
Boostnote:_ZN2v88internal12AsmJsScanner13ConsumeNumberEi
Boostnote:_ZN2v88internal12AsmJsScanner13ConsumeStringEi
Boostnote:_ZN2v88internal12AsmJsScanner13IsNumberStartEi
Boostnote:_ZN2v88internal12AsmJsScanner15ConsumeCCommentEv
Boostnote:_ZN2v88internal12AsmJsScanner16IsIdentifierPartEi
Boostnote:_ZN2v88internal12AsmJsScanner17ConsumeCPPCommentEv
Boostnote:_ZN2v88internal12AsmJsScanner17ConsumeIdentifierEi
Boostnote:_ZN2v88internal12AsmJsScanner17IsIdentifierStartEi
Boostnote:_ZN2v88internal12AsmJsScanner21ConsumeCompareOrShiftEi
Boostnote:_ZN2v88internal12AsmJsScanner4NextEv
Boostnote:_ZN2v88internal12AsmJsScanner4SeekEm
Boostnote:_ZN2v88internal12AsmJsScanner6RewindEv
Boostnote:_ZN2v88internal12AsmJsScannerC1EPNS0_20Utf16CharacterStreamE
Boostnote:_ZN2v88internal12AsmJsScannerC2EPNS0_20Utf16CharacterStreamE
Boostnote:_ZN2v88internal12FLAG_harmonyE
Boostnote:_ZN2v88internal12FLAG_liftoffE
Boostnote:_ZN2v88internal12FLAG_ll_profE
Boostnote:_ZN2v88internal12FLAG_log_allE
Boostnote:_ZN2v88internal12FLAG_log_apiE
Boostnote:_ZN2v88internal12FLAG_logfileE
Boostnote:_ZN2v88internal12FLAG_minimalE
Boostnote:_ZN2v88internal12FLAG_use_osrE
Boostnote:_ZN2v88internal12HandlerTable11LookupRangeEiPiPNS1_15CatchPredictionE
Boostnote:_ZN2v88internal12HandlerTable11SetRangeEndEii
Boostnote:_ZN2v88internal12HandlerTable12LookupReturnEi
Boostnote:_ZN2v88internal12HandlerTable12SetRangeDataEii
Boostnote:_ZN2v88internal12HandlerTable13SetRangeStartEii
Boostnote:_ZN2v88internal12HandlerTable14LengthForRangeEi
Boostnote:_ZN2v88internal12HandlerTable15EmitReturnEntryEPNS0_9AssemblerEii
Boostnote:_ZN2v88internal12HandlerTable15SetRangeHandlerEiiNS1_15CatchPredictionE
Boostnote:_ZN2v88internal12HandlerTable20EmitReturnTableStartEPNS0_9AssemblerEi
Boostnote:_ZN2v88internal12HandlerTableC1EPNS0_13BytecodeArrayE
Boostnote:_ZN2v88internal12HandlerTableC1EPNS0_4CodeE
Boostnote:_ZN2v88internal12HandlerTableC1EPNS0_9ByteArrayE
Boostnote:_ZN2v88internal12HandlerTableC1Emm
Boostnote:_ZN2v88internal12HandlerTableC2EPNS0_13BytecodeArrayE
Boostnote:_ZN2v88internal12HandlerTableC2EPNS0_4CodeE
Boostnote:_ZN2v88internal12HandlerTableC2EPNS0_9ByteArrayE
Boostnote:_ZN2v88internal12HandlerTableC2Emm
Boostnote:_ZN2v88internal12JSTypedArray12element_sizeEv
Boostnote:_ZN2v88internal12PassesFilterENS0_6VectorIKcEES3_
Boostnote:_ZN2v88internal12ReleasePagesEPvmm
Boostnote:_ZN2v88internal12SlicedString15SlicedStringGetEi
Boostnote:_ZN2v88internal12StringHasher12GetHashFieldEv
Boostnote:_ZN2v88internal12StringHasher15ComputeUtf8HashENS0_6VectorIKcEEmPi
Boostnote:_ZN2v88internal12StringHasher18MakeArrayIndexHashEji
Boostnote:_ZN2v88internal12trap_handler28RestoreOriginalSignalHandlerEv
Boostnote:_ZN2v88internal13AllocatePagesEPvmmNS_13PageAllocator10PermissionE
Boostnote:_ZN2v88internal13BigIntLiteralEPNS0_7IsolateEPKc
Boostnote:_ZN2v88internal13EhFrameWriter10GetEhFrameEPNS0_8CodeDescE
Boostnote:_ZN2v88internal13EhFrameWriter10InitializeEv
Boostnote:_ZN2v88internal13EhFrameWriter12WriteSLeb128Ei
Boostnote:_ZN2v88internal13EhFrameWriter12WriteULeb128Ej
Boostnote:_ZN2v88internal13EhFrameWriter14WriteFdeHeaderEv
Boostnote:_ZN2v88internal13EhFrameWriter15AdvanceLocationEi
Boostnote:_ZN2v88internal13EhFrameWriter15WriteEhFrameHdrEi
Boostnote:_ZN2v88internal13EhFrameWriter17WriteEmptyEhFrameERNSt3__113basic_ostreamIcNS2_11char_traitsIcEEEE
Boostnote:_ZN2v88internal13EhFrameWriter17kInt32PlaceholderE
Boostnote:_ZN2v88internal13EhFrameWriter19RegisterToDwarfCodeENS0_8RegisterE
Boostnote:_ZN2v88internal13EhFrameWriter20SetBaseAddressOffsetEi
Boostnote:_ZN2v88internal13EhFrameWriter22SetBaseAddressRegisterENS0_8RegisterE
Boostnote:_ZN2v88internal13EhFrameWriter22WriteInitialStateInCieEv
Boostnote:_ZN2v88internal13EhFrameWriter25RecordRegisterNotModifiedENS0_8RegisterE
Boostnote:_ZN2v88internal13EhFrameWriter25WritePaddingToAlignedSizeEi
Boostnote:_ZN2v88internal13EhFrameWriter26RecordRegisterSavedToStackEii
Boostnote:_ZN2v88internal13EhFrameWriter30WriteReturnAddressRegisterCodeEv
Boostnote:_ZN2v88internal13EhFrameWriter31SetBaseAddressRegisterAndOffsetENS0_8RegisterEi
Boostnote:_ZN2v88internal13EhFrameWriter32RecordRegisterFollowsInitialRuleENS0_8RegisterE
Boostnote:_ZN2v88internal13EhFrameWriter6FinishEi
Boostnote:_ZN2v88internal13EhFrameWriter8WriteCieEv
Boostnote:_ZN2v88internal13EhFrameWriterC1EPNS0_4ZoneE
Boostnote:_ZN2v88internal13EhFrameWriterC2EPNS0_4ZoneE
Boostnote:_ZN2v88internal13FLAG_arm_archE
Boostnote:_ZN2v88internal13FLAG_gc_statsE
Boostnote:_ZN2v88internal13FLAG_ic_statsE
Boostnote:_ZN2v88internal13FLAG_log_codeE
Boostnote:_ZN2v88internal13FLAG_minor_mcE
Boostnote:_ZN2v88internal13FLAG_prof_cppE
Boostnote:_ZN2v88internal13FLAG_trace_gcE
Boostnote:_ZN2v88internal13FLAG_trace_icE
Boostnote:_ZN2v88internal13FLAG_turbo_jtE
Boostnote:_ZN2v88internal13FLAG_wasm_optE
Boostnote:_ZN2v88internal13JSArrayBuffer5SetupENS0_6HandleIS1_EEPNS0_7IsolateEbPvmNS0_10SharedFlagEb
Boostnote:_ZN2v88internal13MemoryReducer10WatchdogGCERKNS1_5StateERKNS1_5EventE
Boostnote:_ZN2v88internal13MemoryReducer11NotifyTimerERKNS1_5EventE
Boostnote:_ZN2v88internal13MemoryReducer12kLongDelayMsE
Boostnote:_ZN2v88internal13MemoryReducer13ScheduleTimerEd
Boostnote:_ZN2v88internal13MemoryReducer13kShortDelayMsE
Boostnote:_ZN2v88internal13MemoryReducer15kMaxNumberOfGCsE
Boostnote:_ZN2v88internal13MemoryReducer16kWatchdogDelayMsE
Boostnote:_ZN2v88internal13MemoryReducer17NotifyMarkCompactERKNS1_5EventE
Boostnote:_ZN2v88internal13MemoryReducer21NotifyPossibleGarbageERKNS1_5EventE
Boostnote:_ZN2v88internal13MemoryReducer21kCommittedMemoryDeltaE
Boostnote:_ZN2v88internal13MemoryReducer22kCommittedMemoryFactorE
Boostnote:_ZN2v88internal13MemoryReducer4StepERKNS1_5StateERKNS1_5EventE
Boostnote:_ZN2v88internal13MemoryReducer8TearDownEv
Boostnote:_ZN2v88internal13MemoryReducer9TimerTask11RunInternalEv
Boostnote:_ZN2v88internal13MemoryReducer9TimerTaskC1EPS1_
Boostnote:_ZN2v88internal13MemoryReducer9TimerTaskC2EPS1_
Boostnote:_ZN2v88internal13MemoryReducerC1EPNS0_4HeapE
Boostnote:_ZN2v88internal13MemoryReducerC2EPNS0_4HeapE
Boostnote:_ZN2v88internal13ScannerStream10ForTestingEPKc
Boostnote:_ZN2v88internal13ScannerStream10ForTestingEPKcm
Boostnote:_ZN2v88internal13ScannerStream3ForEPNS0_7IsolateENS0_6HandleINS0_6StringEEE
Boostnote:_ZN2v88internal13ScannerStream3ForEPNS0_7IsolateENS0_6HandleINS0_6StringEEEii
Boostnote:_ZN2v88internal13ScannerStream3ForEPNS_14ScriptCompiler20ExternalSourceStreamENS2_14StreamedSource8EncodingEPNS0_16RuntimeCallStatsE
Boostnote:_ZN2v88internal13VirtualMemory11TakeControlEPS1_
Boostnote:_ZN2v88internal13VirtualMemory14SetPermissionsEmmNS_13PageAllocator10PermissionE
Boostnote:_ZN2v88internal13VirtualMemory4FreeEv
Boostnote:_ZN2v88internal13VirtualMemory5ResetEv
Boostnote:_ZN2v88internal13VirtualMemory7ReleaseEm
Boostnote:_ZN2v88internal13VirtualMemoryC1EmPvm
Boostnote:_ZN2v88internal13VirtualMemoryC1Ev
Boostnote:_ZN2v88internal13VirtualMemoryC2EmPvm
Boostnote:_ZN2v88internal13VirtualMemoryC2Ev
Boostnote:_ZN2v88internal13VirtualMemoryD1Ev
Boostnote:_ZN2v88internal13VirtualMemoryD2Ev
Boostnote:_ZN2v88internal13WasmDebugInfo15SetupForTestingENS0_6HandleINS0_18WasmInstanceObjectEEE
Boostnote:_ZN2v88internal14CancelableTaskC2EPNS0_21CancelableTaskManagerE
Boostnote:_ZN2v88internal14CancelableTaskC2EPNS0_7IsolateE
Boostnote:_ZN2v88internal14CommitPageSizeEv
Boostnote:_ZN2v88internal14FLAG_debug_simE
Boostnote:_ZN2v88internal14FLAG_expose_gcE
Boostnote:_ZN2v88internal14FLAG_fast_mathE
Boostnote:_ZN2v88internal14FLAG_gc_globalE
Boostnote:_ZN2v88internal14FLAG_hash_seedE
Boostnote:_ZN2v88internal14FLAG_perf_profE
Boostnote:_ZN2v88internal14FLAG_trace_optE
Boostnote:_ZN2v88internal14FLAG_trace_osrE
Boostnote:_ZN2v88internal14FLAG_trace_simE
Boostnote:_ZN2v88internal14FeedbackVector3NewEPNS0_7IsolateENS0_6HandleINS0_18SharedFunctionInfoEEE
Boostnote:_ZN2v88internal14HeapController17HeapGrowingFactorEddd
Boostnote:_ZN2v88internal14HeapController20MaxHeapGrowingFactorEm
Boostnote:_ZN2v88internal14HeapController21kMaxHeapGrowingFactorE
Boostnote:_ZN2v88internal14HeapController21kMinHeapGrowingFactorE
Boostnote:_ZN2v88internal14HeapController30kConservativeHeapGrowingFactorE
Boostnote:_ZN2v88internal14HeapController37CalculateOldGenerationAllocationLimitEmmddmNS0_4Heap15HeapGrowingModeE
Boostnote:_ZN2v88internal14IdentifierPart2IsEi
Boostnote:_ZN2v88internal14LookupIterator14WriteDataValueENS0_6HandleINS0_6ObjectEEEb
Boostnote:_ZN2v88internal14LookupIterator17PropertyOrElementEPNS0_7IsolateENS0_6HandleINS0_6ObjectEEES6_PbNS1_13ConfigurationE
Boostnote:_ZN2v88internal14LookupIterator17PropertyOrElementEPNS0_7IsolateENS0_6HandleINS0_6ObjectEEES6_PbNS4_INS0_10JSReceiverEEENS1_13ConfigurationE
Boostnote:_ZN2v88internal14LookupIterator20ForTransitionHandlerEPNS0_7IsolateENS0_6HandleINS0_6ObjectEEENS4_INS0_4NameEEES6_NS0_11MaybeHandleINS0_3MapEEE
Boostnote:_ZN2v88internal14LookupIterator20LookupCachedPropertyEv
Boostnote:_ZN2v88internal14LookupIterator22PrepareForDataPropertyENS0_6HandleINS0_6ObjectEEE
Boostnote:_ZN2v88internal14LookupIterator23GetRootForNonJSReceiverEPNS0_7IsolateENS0_6HandleINS0_6ObjectEEEj
Boostnote:_ZN2v88internal14LookupIterator23InternalUpdateProtectorEv
Boostnote:_ZN2v88internal14LookupIterator23ReconfigureDataPropertyENS0_6HandleINS0_6ObjectEEENS0_18PropertyAttributesE
Boostnote:_ZN2v88internal14LookupIterator23TryLookupCachedPropertyEv
Boostnote:_ZN2v88internal14LookupIterator24TransitionToAccessorPairENS0_6HandleINS0_6ObjectEEENS0_18PropertyAttributesE
Boostnote:_ZN2v88internal14LookupIterator28TransitionToAccessorPropertyENS0_6HandleINS0_6ObjectEEES4_NS0_18PropertyAttributesE
Boostnote:_ZN2v88internal14LookupIterator29ApplyTransitionToDataPropertyENS0_6HandleINS0_10JSReceiverEEE
Boostnote:_ZN2v88internal14LookupIterator31PrepareTransitionToDataPropertyENS0_6HandleINS0_10JSReceiverEEENS2_INS0_6ObjectEEENS0_18PropertyAttributesENS5_14StoreFromKeyedE
Boostnote:_ZN2v88internal14LookupIterator4NextEv
Boostnote:_ZN2v88internal14LookupIterator6DeleteEv
Boostnote:_ZN2v88internal14LookupIteratorC1EPNS0_7IsolateENS0_6HandleINS0_6ObjectEEENS4_INS0_4NameEEENS4_INS0_3MapEEENS0_15PropertyDetailsEb
Boostnote:_ZN2v88internal14LookupIteratorC2EPNS0_7IsolateENS0_6HandleINS0_6ObjectEEENS4_INS0_4NameEEENS4_INS0_3MapEEENS0_15PropertyDetailsEb
Boostnote:_ZN2v88internal14SetPermissionsEPvmNS_13PageAllocator10PermissionE
Boostnote:_ZN2v88internal14StringsStorage11GetConsNameEPKcPNS0_4NameE
Boostnote:_ZN2v88internal14StringsStorage12GetFormattedEPKcz
Boostnote:_ZN2v88internal14StringsStorage12StringsMatchEPvS2_
Boostnote:_ZN2v88internal14StringsStorage13GetVFormattedEPKcP13__va_list_tag
Boostnote:_ZN2v88internal14StringsStorage18AddOrDisposeStringEPci
Boostnote:_ZN2v88internal14StringsStorage7GetCopyEPKc
Boostnote:_ZN2v88internal14StringsStorage7GetNameEPNS0_4NameE
Boostnote:_ZN2v88internal14StringsStorage7GetNameEi
Boostnote:_ZN2v88internal14StringsStorage8GetEntryEPKci
Boostnote:_ZN2v88internal14StringsStorageC1Ev
Boostnote:_ZN2v88internal14StringsStorageC2Ev
Boostnote:_ZN2v88internal14StringsStorageD1Ev
Boostnote:_ZN2v88internal14StringsStorageD2Ev
Boostnote:_ZN2v88internal14VectorSlotPairC1Ev
Boostnote:_ZN2v88internal14VectorSlotPairC2Ev
Boostnote:_ZN2v88internal14VoidDescriptor26InitializePlatformSpecificEPNS0_27CallInterfaceDescriptorDataE
Boostnote:_ZN2v88internal15AstValueFactory11InternalizeEPNS0_7IsolateE
Boostnote:_ZN2v88internal15AstValueFactory13NewConsStringEv
Boostnote:_ZN2v88internal15AstValueFactory24GetOneByteStringInternalENS0_6VectorIKhEE
Boostnote:_ZN2v88internal15CallDescriptors21call_descriptor_data_E
Boostnote:_ZN2v88internal15CallDescriptors24InitializeOncePerProcessEv
Boostnote:_ZN2v88internal15CallDescriptors8TearDownEv
Boostnote:_ZN2v88internal15CompactionSpace23SweepAndRetryAllocationEi
Boostnote:_ZN2v88internal15CompactionSpace30SlowRefillLinearAllocationAreaEi
Boostnote:_ZN2v88internal15DeferredHandles7IterateEPNS0_11RootVisitorE
Boostnote:_ZN2v88internal15DeferredHandlesD1Ev
Boostnote:_ZN2v88internal15DeferredHandlesD2Ev
Boostnote:_ZN2v88internal15EhFrameIterator13DecodeSLeb128EPKhPi
Boostnote:_ZN2v88internal15EhFrameIterator13DecodeULeb128EPKhPi
Boostnote:_ZN2v88internal15EhFrameIterator14GetNextSLeb128Ev
Boostnote:_ZN2v88internal15EhFrameIterator14GetNextULeb128Ev
Boostnote:_ZN2v88internal15FLAG_always_optE
Boostnote:_ZN2v88internal15FLAG_always_osrE
Boostnote:_ZN2v88internal15FLAG_debug_codeE
Boostnote:_ZN2v88internal15FLAG_enable_avxE
Boostnote:_ZN2v88internal15FLAG_es_stagingE
Boostnote:_ZN2v88internal15FLAG_hard_abortE
Boostnote:_ZN2v88internal15FLAG_inline_newE
Boostnote:_ZN2v88internal15FLAG_log_colourE
Boostnote:_ZN2v88internal15FLAG_stack_sizeE
Boostnote:_ZN2v88internal15FLAG_trace_mapsE
Boostnote:_ZN2v88internal15FLAG_trace_railE
Boostnote:_ZN2v88internal15FLAG_use_strictE
Boostnote:_ZN2v88internal15IdentifierStart2IsEi
Boostnote:_ZN2v88internal15ItemParallelJob3RunENSt3__110shared_ptrINS0_8CountersEEE
Boostnote:_ZN2v88internal15ItemParallelJob4Task11RunInternalEv
Boostnote:_ZN2v88internal15ItemParallelJob4Task13SetupInternalEPNS_4base9SemaphoreEPNSt3__16vectorIPNS1_4ItemENS6_9allocatorIS9_EEEEmNS3_8OptionalINS0_19AsyncTimedHistogramEEE
Boostnote:_ZN2v88internal15ItemParallelJob4TaskC2EPNS0_7IsolateE
Boostnote:_ZN2v88internal15ItemParallelJob4TaskD0Ev
Boostnote:_ZN2v88internal15ItemParallelJob4TaskD1Ev
Boostnote:_ZN2v88internal15ItemParallelJob4TaskD2Ev
Boostnote:_ZN2v88internal15ItemParallelJobC1EPNS0_21CancelableTaskManagerEPNS_4base9SemaphoreE
Boostnote:_ZN2v88internal15ItemParallelJobC2EPNS0_21CancelableTaskManagerEPNS_4base9SemaphoreE
Boostnote:_ZN2v88internal15ItemParallelJobD1Ev
Boostnote:_ZN2v88internal15ItemParallelJobD2Ev
Boostnote:_ZN2v88internal15MemoryAllocator10FreeMemoryEPNS0_13VirtualMemoryENS0_13ExecutabilityE
Boostnote:_ZN2v88internal15MemoryAllocator10FreeMemoryEmmNS0_13ExecutabilityE
Boostnote:_ZN2v88internal15MemoryAllocator11CommitBlockEmm
Boostnote:_ZN2v88internal15MemoryAllocator12CommitMemoryEmm
Boostnote:_ZN2v88internal15MemoryAllocator13AllocateChunkEmmNS0_13ExecutabilityEPNS0_5SpaceE
Boostnote:_ZN2v88internal15MemoryAllocator13PreFreeMemoryEPNS0_11MemoryChunkE
Boostnote:_ZN2v88internal15MemoryAllocator13UncommitBlockEmm
Boostnote:_ZN2v88internal15MemoryAllocator17AllocateLargePageEmPNS0_16LargeObjectSpaceENS0_13ExecutabilityE
Boostnote:_ZN2v88internal15MemoryAllocator17CodePageGuardSizeEv
Boostnote:_ZN2v88internal15MemoryAllocator17GetCommitPageSizeEv
Boostnote:_ZN2v88internal15MemoryAllocator17PartialFreeMemoryEPNS0_11MemoryChunkEmmm
Boostnote:_ZN2v88internal15MemoryAllocator17PerformFreeMemoryEPNS0_11MemoryChunkE
Boostnote:_ZN2v88internal15MemoryAllocator20ReserveAlignedMemoryEmmPvPNS0_13VirtualMemoryE
Boostnote:_ZN2v88internal15MemoryAllocator21AllocateAlignedMemoryEmmmNS0_13ExecutabilityEPvPNS0_13VirtualMemoryE
Boostnote:_ZN2v88internal15MemoryAllocator21CodePageAreaEndOffsetEv
Boostnote:_ZN2v88internal15MemoryAllocator22CommitExecutableMemoryEPNS0_13VirtualMemoryEmmm
Boostnote:_ZN2v88internal15MemoryAllocator23CodePageAreaStartOffsetEv
Boostnote:_ZN2v88internal15MemoryAllocator24CodePageGuardStartOffsetEv
Boostnote:_ZN2v88internal15MemoryAllocator8TearDownEv
Boostnote:_ZN2v88internal15MemoryAllocator8Unmapper14NumberOfChunksEv
Boostnote:_ZN2v88internal15MemoryAllocator8Unmapper16FreeQueuedChunksEv
Boostnote:_ZN2v88internal15MemoryAllocator8Unmapper19MakeRoomForNewTasksEv
Boostnote:_ZN2v88internal15MemoryAllocator8Unmapper21PrepareForMarkCompactEv
Boostnote:_ZN2v88internal15MemoryAllocator8Unmapper23CommittedBufferedMemoryEv
Boostnote:_ZN2v88internal15MemoryAllocator8Unmapper24EnsureUnmappingCompletedEv
Boostnote:_ZN2v88internal15MemoryAllocator8Unmapper28CancelAndWaitForPendingTasksEv
Boostnote:_ZN2v88internal15MemoryAllocator8Unmapper41PerformFreeMemoryOnQueuedNonRegularChunksEv
Boostnote:_ZN2v88internal15MemoryAllocator8Unmapper8TearDownEv
Boostnote:_ZN2v88internal15MemoryAllocator8ZapBlockEmmm
Boostnote:_ZN2v88internal15MemoryAllocatorC1EPNS0_7IsolateEmm
Boostnote:_ZN2v88internal15MemoryAllocatorC2EPNS0_7IsolateEmm
Boostnote:_ZN2v88internal15RegExpMatchInfo15ReserveCapturesEPNS0_7IsolateENS0_6HandleIS1_EEi
Boostnote:_ZN2v88internal16AllocatePageSizeEv
Boostnote:_ZN2v88internal16AssemblerOptions7DefaultEPNS0_7IsolateEb
Boostnote:_ZN2v88internal16DeclarationScope11DeclareThisEPNS0_15AstValueFactoryE
Boostnote:_ZN2v88internal16DeclarationScope11SetDefaultsEv
Boostnote:_ZN2v88internal16DeclarationScope14AllocateLocalsEv
Boostnote:_ZN2v88internal16DeclarationScope14set_asm_moduleEv
Boostnote:_ZN2v88internal16DeclarationScope16AllocateReceiverEv
Boostnote:_ZN2v88internal16DeclarationScope16AnalyzePartiallyEPNS0_14AstNodeFactoryE
Boostnote:_ZN2v88internal16DeclarationScope16CollectNonLocalsEPNS0_7IsolateEPNS0_9ParseInfoENS0_6HandleINS0_9StringSetEEE
Boostnote:_ZN2v88internal16DeclarationScope16DeclareArgumentsEPNS0_15AstValueFactoryE
Boostnote:_ZN2v88internal16DeclarationScope16DeclareParameterEPKNS0_12AstRawStringENS0_12VariableModeEbbPbPNS0_15AstValueFactoryEi
Boostnote:_ZN2v88internal16DeclarationScope17AllocateParameterEPNS0_8VariableEi
Boostnote:_ZN2v88internal16DeclarationScope17AllocateVariablesEPNS0_9ParseInfoE
Boostnote:_ZN2v88internal16DeclarationScope17DeclarePromiseVarEPKNS0_12AstRawStringE
Boostnote:_ZN2v88internal16DeclarationScope18AllocateScopeInfosEPNS0_9ParseInfoEPNS0_7IsolateE
Boostnote:_ZN2v88internal16DeclarationScope18DeclareFunctionVarEPKNS0_12AstRawStringE
Boostnote:_ZN2v88internal16DeclarationScope19IsDeclaredParameterEPKNS0_12AstRawStringE
Boostnote:_ZN2v88internal16DeclarationScope20AttachOuterScopeInfoEPNS0_9ParseInfoEPNS0_7IsolateE
Boostnote:_ZN2v88internal16DeclarationScope20DeclareDynamicGlobalEPKNS0_12AstRawStringENS0_12VariableKindE
Boostnote:_ZN2v88internal16DeclarationScope20DeclareParameterNameEPKNS0_12AstRawStringEbPNS0_15AstValueFactoryEbb
Boostnote:_ZN2v88internal16DeclarationScope20ResetAfterPreparsingEPNS0_15AstValueFactoryEb
Boostnote:_ZN2v88internal16DeclarationScope23AllocateParameterLocalsEv
Boostnote:_ZN2v88internal16DeclarationScope24set_should_eager_compileEv
Boostnote:_ZN2v88internal16DeclarationScope25DeclareGeneratorObjectVarEPKNS0_12AstRawStringE
Boostnote:_ZN2v88internal16DeclarationScope25HoistSloppyBlockFunctionsEPNS0_14AstNodeFactoryE
Boostnote:_ZN2v88internal16DeclarationScope26DeclareSloppyBlockFunctionEPKNS0_12AstRawStringEPNS0_5ScopeEPNS0_28SloppyBlockFunctionStatementE
Boostnote:_ZN2v88internal16DeclarationScope31DeclareDefaultFunctionVariablesEPNS0_15AstValueFactoryE
Boostnote:_ZN2v88internal16DeclarationScope41SavePreParsedScopeDataForDeclarationScopeEv
Boostnote:_ZN2v88internal16DeclarationScope7AnalyzeEPNS0_9ParseInfoE
Boostnote:_ZN2v88internal16DeclarationScope8AddLocalEPNS0_8VariableE
Boostnote:_ZN2v88internal16DeclarationScopeC1EPNS0_4ZoneENS0_9ScopeTypeENS0_6HandleINS0_9ScopeInfoEEE
Boostnote:_ZN2v88internal16DeclarationScopeC1EPNS0_4ZoneEPNS0_15AstValueFactoryE
Boostnote:_ZN2v88internal16DeclarationScopeC1EPNS0_4ZoneEPNS0_5ScopeENS0_9ScopeTypeENS0_12FunctionKindE
Boostnote:_ZN2v88internal16DeclarationScopeC2EPNS0_4ZoneENS0_9ScopeTypeENS0_6HandleINS0_9ScopeInfoEEE
Boostnote:_ZN2v88internal16DeclarationScopeC2EPNS0_4ZoneEPNS0_15AstValueFactoryE
Boostnote:_ZN2v88internal16DeclarationScopeC2EPNS0_4ZoneEPNS0_5ScopeENS0_9ScopeTypeENS0_12FunctionKindE
Boostnote:_ZN2v88internal16EhFrameConstants15kEhFrameHdrSizeE
Boostnote:_ZN2v88internal16EhFrameConstants18kEhFrameHdrVersionE
Boostnote:_ZN2v88internal16EhFrameConstants20kCodeAlignmentFactorE
Boostnote:_ZN2v88internal16EhFrameConstants20kDataAlignmentFactorE
Boostnote:_ZN2v88internal16EhFrameConstants22kEhFrameTerminatorSizeE
Boostnote:_ZN2v88internal16FLAG_enable_bmi1E
Boostnote:_ZN2v88internal16FLAG_enable_bmi2E
Boostnote:_ZN2v88internal16FLAG_enable_fma3E
Boostnote:_ZN2v88internal16FLAG_enable_neonE
Boostnote:_ZN2v88internal16FLAG_enable_sahfE
Boostnote:_ZN2v88internal16FLAG_enable_sse3E
Boostnote:_ZN2v88internal16FLAG_enable_vfp3E
Boostnote:_ZN2v88internal16FLAG_expose_wasmE
Boostnote:_ZN2v88internal16FLAG_frame_countE
Boostnote:_ZN2v88internal16FLAG_gc_intervalE
Boostnote:_ZN2v88internal16FLAG_log_handlesE
Boostnote:_ZN2v88internal16FLAG_log_suspectE
Boostnote:_ZN2v88internal16FLAG_predictableE
Boostnote:_ZN2v88internal16FLAG_random_seedE
Boostnote:_ZN2v88internal16FLAG_startup_srcE
Boostnote:_ZN2v88internal16FLAG_stop_sim_atE
Boostnote:_ZN2v88internal16FLAG_stress_runsE
Boostnote:_ZN2v88internal16FLAG_trace_allocE
Boostnote:_ZN2v88internal16FLAG_trace_deoptE
Boostnote:_ZN2v88internal16FLAG_trace_turboE
Boostnote:_ZN2v88internal16FLAG_turbo_statsE
Boostnote:_ZN2v88internal16FeedbackMetadata3NewEPNS0_7IsolateEPKNS0_18FeedbackVectorSpecE
Boostnote:_ZN2v88internal16RuntimeCallStats23CorrectCurrentCounterIdENS0_20RuntimeCallCounterIdE
Boostnote:_ZN2v88internal16RuntimeCallStats5EnterEPNS0_16RuntimeCallTimerENS0_20RuntimeCallCounterIdE
Boostnote:_ZN2v88internal16RuntimeCallStats5LeaveEPNS0_16RuntimeCallTimerE
Boostnote:_ZN2v88internal16RuntimeCallStats5PrintERNSt3__113basic_ostreamIcNS2_11char_traitsIcEEEE
Boostnote:_ZN2v88internal16RuntimeCallStats5PrintEv
Boostnote:_ZN2v88internal16RuntimeCallStats5ResetEv
Boostnote:_ZN2v88internal16RuntimeCallStatsC1Ev
Boostnote:_ZN2v88internal16RuntimeCallStatsC2Ev
Boostnote:_ZN2v88internal16RuntimeCallTimer3NowE
Boostnote:_ZN2v88internal16WasmGlobalObject3NewEPNS0_7IsolateENS0_11MaybeHandleINS0_13JSArrayBufferEEENS0_4wasm9ValueTypeEib
Boostnote:_ZN2v88internal16WasmMemoryObject3NewEPNS0_7IsolateENS0_11MaybeHandleINS0_13JSArrayBufferEEEi
Boostnote:_ZN2v88internal17CodeStubAssembler10DecodeWordENS0_8compiler11SloppyTNodeINS0_5WordTEEEjj
Boostnote:_ZN2v88internal17CodeStubAssembler10InstanceOfEPNS0_8compiler4NodeES4_S4_
Boostnote:_ZN2v88internal17CodeStubAssembler10IsCallableENS0_8compiler11SloppyTNodeINS0_10HeapObjectEEE
Boostnote:_ZN2v88internal17CodeStubAssembler10IsJSObjectENS0_8compiler11SloppyTNodeINS0_10HeapObjectEEE
Boostnote:_ZN2v88internal17CodeStubAssembler10IsJSRegExpENS0_8compiler11SloppyTNodeINS0_10HeapObjectEEE
Boostnote:_ZN2v88internal17CodeStubAssembler10IsNotFalseENS0_8compiler11SloppyTNodeINS0_6ObjectEEE
Boostnote:_ZN2v88internal17CodeStubAssembler10IsValidSmiENS0_8compiler5TNodeINS0_3SmiEEE
Boostnote:_ZN2v88internal17CodeStubAssembler10IsWeakCellENS0_8compiler11SloppyTNodeINS0_10HeapObjectEEE
Boostnote:_ZN2v88internal17CodeStubAssembler10SelectImplENS0_8compiler5TNodeINS0_5BoolTEEERKNSt3__18functionIFPNS2_4NodeEvEEESD_NS0_21MachineRepresentationE
Boostnote:_ZN2v88internal17CodeStubAssembler10SetCounterEPNS0_12StatsCounterEi
Boostnote:_ZN2v88internal17CodeStubAssembler10SmiToInt32ENS0_8compiler11SloppyTNodeINS0_3SmiEEE
Boostnote:_ZN2v88internal17CodeStubAssembler10ToSmiIndexENS0_8compiler5TNodeINS0_6ObjectEEENS3_INS0_7ContextEEEPNS2_18CodeAssemblerLabelE
Boostnote:_ZN2v88internal17CodeStubAssembler10UpdateWordENS0_8compiler5TNodeINS0_5WordTEEES5_jj
Boostnote:_ZN2v88internal17CodeStubAssembler11AllocateRawEPNS0_8compiler4NodeENS_4base5FlagsINS1_14AllocationFlagEiEES4_S4_
Boostnote:_ZN2v88internal17CodeStubAssembler11Float64CeilENS0_8compiler11SloppyTNodeINS0_8Float64TEEE
Boostnote:_ZN2v88internal17CodeStubAssembler11HasPropertyENS0_8compiler11SloppyTNodeINS0_10HeapObjectEEENS3_INS0_6ObjectEEENS3_INS0_7ContextEEENS1_21HasPropertyLookupModeE
Boostnote:_ZN2v88internal17CodeStubAssembler11HashSeedLowEv
Boostnote:_ZN2v88internal17CodeStubAssembler11IsHashTableENS0_8compiler11SloppyTNodeINS0_10HeapObjectEEE
Boostnote:_ZN2v88internal17CodeStubAssembler11IsJSPromiseENS0_8compiler11SloppyTNodeINS0_10HeapObjectEEE
Boostnote:_ZN2v88internal17CodeStubAssembler11IsMinusZeroENS0_8compiler11SloppyTNodeINS0_6ObjectEEE
Boostnote:_ZN2v88internal17CodeStubAssembler11IsSymbolMapENS0_8compiler11SloppyTNodeINS0_6ObjectEEE
Boostnote:_ZN2v88internal17CodeStubAssembler11IsTuple2MapENS0_8compiler11SloppyTNodeINS0_6ObjectEEE
Boostnote:_ZN2v88internal17CodeStubAssembler11IsTuple3MapENS0_8compiler11SloppyTNodeINS0_6ObjectEEE
Boostnote:_ZN2v88internal17CodeStubAssembler11IsUndefinedENS0_8compiler11SloppyTNodeINS0_6ObjectEEE
Boostnote:_ZN2v88internal17CodeStubAssembler11LoadBuiltinENS0_8compiler5TNodeINS0_3SmiEEE
Boostnote:_ZN2v88internal17CodeStubAssembler11NanConstantEv
Boostnote:_ZN2v88internal17CodeStubAssembler11StrictEqualEPNS0_8compiler4NodeES4_PNS2_21CodeAssemblerVariableE
Boostnote:_ZN2v88internal17CodeStubAssembler11TaggedIsSmiENS0_8compiler11SloppyTNodeINS0_6ObjectEEE
Boostnote:_ZN2v88internal17CodeStubAssembler11TaggedIsSmiENS0_8compiler5TNodeINS0_11MaybeObjectEEE
Boostnote:_ZN2v88internal17CodeStubAssembler11ToSmiLengthENS0_8compiler5TNodeINS0_6ObjectEEENS3_INS0_7ContextEEEPNS2_18CodeAssemblerLabelE
Boostnote:_ZN2v88internal17CodeStubAssembler11ToThisValueEPNS0_8compiler4NodeES4_NS0_13PrimitiveTypeEPKc
Boostnote:_ZN2v88internal17CodeStubAssembler11TryToIntptrEPNS0_8compiler4NodeEPNS2_18CodeAssemblerLabelE
Boostnote:_ZN2v88internal17CodeStubAssembler12DecodeWord32ENS0_8compiler11SloppyTNodeINS0_7Word32TEEEjj
Boostnote:_ZN2v88internal17CodeStubAssembler12Float64FloorENS0_8compiler11SloppyTNodeINS0_8Float64TEEE
Boostnote:_ZN2v88internal17CodeStubAssembler12Float64RoundENS0_8compiler11SloppyTNodeINS0_8Float64TEEE
Boostnote:_ZN2v88internal17CodeStubAssembler12Float64TruncENS0_8compiler11SloppyTNodeINS0_8Float64TEEE
Boostnote:_ZN2v88internal17CodeStubAssembler12GotoIfNumberEPNS0_8compiler4NodeEPNS2_18CodeAssemblerLabelE
Boostnote:_ZN2v88internal17CodeStubAssembler12HashSeedHighEv
Boostnote:_ZN2v88internal17CodeStubAssembler12IsBooleanMapENS0_8compiler11SloppyTNodeINS0_6ObjectEEE
Boostnote:_ZN2v88internal17CodeStubAssembler12IsFixedArrayENS0_8compiler11SloppyTNodeINS0_10HeapObjectEEE
Boostnote:_ZN2v88internal17CodeStubAssembler12IsHeapNumberENS0_8compiler11SloppyTNodeINS0_10HeapObjectEEE
Boostnote:_ZN2v88internal17CodeStubAssembler12IsJSArrayMapENS0_8compiler11SloppyTNodeINS0_3MapEEE
Boostnote:_ZN2v88internal17CodeStubAssembler12IsJSDataViewENS0_8compiler5TNodeINS0_10HeapObjectEEE
Boostnote:_ZN2v88internal17CodeStubAssembler12IsJSFunctionENS0_8compiler11SloppyTNodeINS0_10HeapObjectEEE
Boostnote:_ZN2v88internal17CodeStubAssembler12IsJSReceiverENS0_8compiler11SloppyTNodeINS0_10HeapObjectEEE
Boostnote:_ZN2v88internal17CodeStubAssembler12IsJSValueMapENS0_8compiler11SloppyTNodeINS0_3MapEEE
Boostnote:_ZN2v88internal17CodeStubAssembler12IsNotCodeMapENS0_8compiler11SloppyTNodeINS0_6ObjectEEE
Boostnote:_ZN2v88internal17CodeStubAssembler12IsNotMetaMapENS0_8compiler11SloppyTNodeINS0_6ObjectEEE
Boostnote:_ZN2v88internal17CodeStubAssembler12IsNotTheHoleENS0_8compiler11SloppyTNodeINS0_6ObjectEEE
Boostnote:_ZN2v88internal17CodeStubAssembler12LoadElementsENS0_8compiler11SloppyTNodeINS0_8JSObjectEEE
Boostnote:_ZN2v88internal17CodeStubAssembler12LoadNameHashENS0_8compiler11SloppyTNodeINS0_4NameEEEPNS2_18CodeAssemblerLabelE
Boostnote:_ZN2v88internal17CodeStubAssembler12NullConstantEv
Boostnote:_ZN2v88internal17CodeStubAssembler12SmiFromInt32ENS0_8compiler11SloppyTNodeINS0_6Int32TEEE
Boostnote:_ZN2v88internal17CodeStubAssembler12SmiToFloat64ENS0_8compiler11SloppyTNodeINS0_3SmiEEE
Boostnote:_ZN2v88internal17CodeStubAssembler12StoreElementEPNS0_8compiler4NodeENS0_12ElementsKindES4_S4_NS1_13ParameterModeE
Boostnote:_ZN2v88internal17CodeStubAssembler12ToThisStringEPNS0_8compiler4NodeES4_PKc
Boostnote:_ZN2v88internal17CodeStubAssembler12TrueConstantEv
Boostnote:_ZN2v88internal17CodeStubAssembler13BuildFastLoopERKNS0_10ZoneVectorIPNS0_8compiler21CodeAssemblerVariableEEEPNS3_4NodeESA_RKNSt3__18functionIFvSA_EEEiNS1_13ParameterModeENS1_16IndexAdvanceModeE
Boostnote:_ZN2v88internal17CodeStubAssembler13FalseConstantEv
Boostnote:_ZN2v88internal17CodeStubAssembler13InnerAllocateEPNS0_8compiler4NodeES4_
Boostnote:_ZN2v88internal17CodeStubAssembler13InnerAllocateEPNS0_8compiler4NodeEi
Boostnote:_ZN2v88internal17CodeStubAssembler13IsCallableMapENS0_8compiler11SloppyTNodeINS0_3MapEEE
Boostnote:_ZN2v88internal17CodeStubAssembler13IsConstructorENS0_8compiler11SloppyTNodeINS0_10HeapObjectEEE
Boostnote:_ZN2v88internal17CodeStubAssembler13IsDebugActiveEv
Boostnote:_ZN2v88internal17CodeStubAssembler13IsEmptyStringENS0_8compiler11SloppyTNodeINS0_6ObjectEEE
Boostnote:_ZN2v88internal17CodeStubAssembler13IsFastJSArrayENS0_8compiler11SloppyTNodeINS0_6ObjectEEENS3_INS0_7ContextEEE
Boostnote:_ZN2v88internal17CodeStubAssembler13IsJSObjectMapENS0_8compiler11SloppyTNodeINS0_3MapEEE
Boostnote:_ZN2v88internal17CodeStubAssembler13IsSafeIntegerENS0_8compiler5TNodeINS0_10HeapNumberEEE
Boostnote:_ZN2v88internal17CodeStubAssembler13IsSafeIntegerENS0_8compiler5TNodeINS0_6ObjectEEE
Boostnote:_ZN2v88internal17CodeStubAssembler13IsWeakCellMapENS0_8compiler11SloppyTNodeINS0_6ObjectEEE
Boostnote:_ZN2v88internal17CodeStubAssembler13LoadCellValueEPNS0_8compiler4NodeE
Boostnote:_ZN2v88internal17CodeStubAssembler13LoadFromFrameEiNS0_11MachineTypeE
Boostnote:_ZN2v88internal17CodeStubAssembler13NewConsStringEPNS0_8compiler4NodeENS2_5TNodeINS0_3SmiEEENS5_INS0_6StringEEES9_NS_4base5FlagsINS1_14AllocationFlagEiEE
Boostnote:_ZN2v88internal17CodeStubAssembler13StoreElementsENS0_8compiler5TNodeINS0_6ObjectEEENS3_INS0_14FixedArrayBaseEEE
Boostnote:_ZN2v88internal17CodeStubAssembler14AllocateBigIntENS0_8compiler5TNodeINS0_7IntPtrTEEE
Boostnote:_ZN2v88internal17CodeStubAssembler14AllocateStructEPNS0_8compiler4NodeENS_4base5FlagsINS1_14AllocationFlagEiEE
Boostnote:_ZN2v88internal17CodeStubAssembler14CheckEnumCacheEPNS0_8compiler4NodeEPNS2_18CodeAssemblerLabelES6_
Boostnote:_ZN2v88internal17CodeStubAssembler14IsAccessorInfoENS0_8compiler11SloppyTNodeINS0_10HeapObjectEEE
Boostnote:_ZN2v88internal17CodeStubAssembler14IsAccessorPairENS0_8compiler11SloppyTNodeINS0_10HeapObjectEEE
Boostnote:_ZN2v88internal17CodeStubAssembler14IsFeedbackCellENS0_8compiler11SloppyTNodeINS0_10HeapObjectEEE
Boostnote:_ZN2v88internal17CodeStubAssembler14IsJSPromiseMapENS0_8compiler11SloppyTNodeINS0_3MapEEE
Boostnote:_ZN2v88internal17CodeStubAssembler14IsJSTypedArrayENS0_8compiler11SloppyTNodeINS0_10HeapObjectEEE
Boostnote:_ZN2v88internal17CodeStubAssembler14IsLengthStringENS0_8compiler11SloppyTNodeINS0_6ObjectEEE
Boostnote:_ZN2v88internal17CodeStubAssembler14IsNotMinusZeroENS0_8compiler11SloppyTNodeINS0_6ObjectEEE
Boostnote:_ZN2v88internal17CodeStubAssembler14IsNotSymbolMapENS0_8compiler11SloppyTNodeINS0_6ObjectEEE
Boostnote:_ZN2v88internal17CodeStubAssembler14IsNotTuple2MapENS0_8compiler11SloppyTNodeINS0_6ObjectEEE
Boostnote:_ZN2v88internal17CodeStubAssembler14IsNotTuple3MapENS0_8compiler11SloppyTNodeINS0_6ObjectEEE
Boostnote:_ZN2v88internal17CodeStubAssembler14IsNotUndefinedENS0_8compiler11SloppyTNodeINS0_6ObjectEEE
Boostnote:_ZN2v88internal17CodeStubAssembler14IsPropertyCellENS0_8compiler11SloppyTNodeINS0_10HeapObjectEEE
Boostnote:_ZN2v88internal17CodeStubAssembler14NumberToStringENS0_8compiler5TNodeINS0_6UnionTINS0_3SmiENS0_10HeapNumberEEEEE
Boostnote:_ZN2v88internal17CodeStubAssembler14StoreAndTagSmiEPNS0_8compiler4NodeEiS4_
Boostnote:_ZN2v88internal17CodeStubAssembler14StoreCellValueEPNS0_8compiler4NodeES4_NS0_16WriteBarrierModeE
Boostnote:_ZN2v88internal17CodeStubAssembler14StringToNumberENS0_8compiler5TNodeINS0_6StringEEE
Boostnote:_ZN2v88internal17CodeStubAssembler14TaggedIsNotSmiENS0_8compiler11SloppyTNodeINS0_6ObjectEEE
Boostnote:_ZN2v88internal17CodeStubAssembler14ThrowTypeErrorEPNS0_8compiler4NodeENS0_15MessageTemplate8TemplateEPKcS8_
Boostnote:_ZN2v88internal17CodeStubAssembler14ThrowTypeErrorEPNS0_8compiler4NodeENS0_15MessageTemplate8TemplateES4_S4_S4_
Boostnote:_ZN2v88internal17CodeStubAssembler14UpdateFeedbackEPNS0_8compiler4NodeES4_S4_
Boostnote:_ZN2v88internal17CodeStubAssembler15AllocateJSArrayENS0_12ElementsKindEPNS0_8compiler4NodeES5_S5_S5_NS1_13ParameterModeE
Boostnote:_ZN2v88internal17CodeStubAssembler15CodeMapConstantEv
Boostnote:_ZN2v88internal17CodeStubAssembler15CombineFeedbackEPNS0_8compiler21CodeAssemblerVariableEPNS2_4NodeE
Boostnote:_ZN2v88internal17CodeStubAssembler15CombineFeedbackEPNS0_8compiler21CodeAssemblerVariableEi
Boostnote:_ZN2v88internal17CodeStubAssembler15GotoIfNotNumberEPNS0_8compiler4NodeEPNS2_18CodeAssemblerLabelE
Boostnote:_ZN2v88internal17CodeStubAssembler15HasInstanceTypeENS0_8compiler11SloppyTNodeINS0_10HeapObjectEEENS0_12InstanceTypeE
Boostnote:_ZN2v88internal17CodeStubAssembler15IsAnyHeapNumberENS0_8compiler11SloppyTNodeINS0_10HeapObjectEEE
Boostnote:_ZN2v88internal17CodeStubAssembler15IsDeprecatedMapENS0_8compiler11SloppyTNodeINS0_3MapEEE
Boostnote:_ZN2v88internal17CodeStubAssembler15IsDictionaryMapENS0_8compiler11SloppyTNodeINS0_3MapEEE
Boostnote:_ZN2v88internal17CodeStubAssembler15IsEmptyWeakCellENS0_8compiler11SloppyTNodeINS0_6ObjectEEE
Boostnote:_ZN2v88internal17CodeStubAssembler15IsExtensibleMapENS0_8compiler11SloppyTNodeINS0_3MapEEE
Boostnote:_ZN2v88internal17CodeStubAssembler15IsFixedArrayMapENS0_8compiler11SloppyTNodeINS0_6ObjectEEE
Boostnote:_ZN2v88internal17CodeStubAssembler15IsHeapNumberMapENS0_8compiler11SloppyTNodeINS0_6ObjectEEE
Boostnote:_ZN2v88internal17CodeStubAssembler15IsJSArrayBufferENS0_8compiler11SloppyTNodeINS0_10HeapObjectEEE
Boostnote:_ZN2v88internal17CodeStubAssembler15IsJSFunctionMapENS0_8compiler11SloppyTNodeINS0_3MapEEE
Boostnote:_ZN2v88internal17CodeStubAssembler15IsJSGlobalProxyENS0_8compiler11SloppyTNodeINS0_10HeapObjectEEE
Boostnote:_ZN2v88internal17CodeStubAssembler15IsJSReceiverMapENS0_8compiler11SloppyTNodeINS0_3MapEEE
Boostnote:_ZN2v88internal17CodeStubAssembler15IsNativeContextENS0_8compiler11SloppyTNodeINS0_10HeapObjectEEE
Boostnote:_ZN2v88internal17CodeStubAssembler15IsNotBooleanMapENS0_8compiler11SloppyTNodeINS0_6ObjectEEE
Boostnote:_ZN2v88internal17CodeStubAssembler15IsPrivateSymbolENS0_8compiler11SloppyTNodeINS0_10HeapObjectEEE
Boostnote:_ZN2v88internal17CodeStubAssembler15IsPropertyArrayENS0_8compiler11SloppyTNodeINS0_10HeapObjectEEE
Boostnote:_ZN2v88internal17CodeStubAssembler15IsZeroOrContextENS0_8compiler11SloppyTNodeINS0_6ObjectEEE
Boostnote:_ZN2v88internal17CodeStubAssembler15LoadAndUntagSmiEPNS0_8compiler4NodeEi
Boostnote:_ZN2v88internal17CodeStubAssembler15LoadBigIntDigitENS0_8compiler5TNodeINS0_6BigIntEEEi
Boostnote:_ZN2v88internal17CodeStubAssembler15LoadBoilerplateENS0_8compiler5TNodeINS0_14AllocationSiteEEE
Boostnote:_ZN2v88internal17CodeStubAssembler15LoadMapBitFieldENS0_8compiler11SloppyTNodeINS0_3MapEEE
Boostnote:_ZN2v88internal17CodeStubAssembler15LoadObjectFieldENS0_8compiler11SloppyTNodeINS0_10HeapObjectEEENS3_INS0_7IntPtrTEEENS0_11MachineTypeE
Boostnote:_ZN2v88internal17CodeStubAssembler15LoadObjectFieldENS0_8compiler11SloppyTNodeINS0_10HeapObjectEEEiNS0_11MachineTypeE
Boostnote:_ZN2v88internal17CodeStubAssembler15LoadReceiverMapENS0_8compiler11SloppyTNodeINS0_6ObjectEEE
Boostnote:_ZN2v88internal17CodeStubAssembler15MetaMapConstantEv
Boostnote:_ZN2v88internal17CodeStubAssembler15PageFromAddressENS0_8compiler5TNodeINS0_7IntPtrTEEE
Boostnote:_ZN2v88internal17CodeStubAssembler15TaggedToNumericEPNS0_8compiler4NodeES4_PNS2_18CodeAssemblerLabelEPNS2_21CodeAssemblerVariableE
Boostnote:_ZN2v88internal17CodeStubAssembler15TaggedToNumericEPNS0_8compiler4NodeES4_PNS2_18CodeAssemblerLabelEPNS2_21CodeAssemblerVariableES8_
Boostnote:_ZN2v88internal17CodeStubAssembler15TheHoleConstantEv
Boostnote:_ZN2v88internal17CodeStubAssembler15ThrowRangeErrorEPNS0_8compiler4NodeENS0_15MessageTemplate8TemplateES4_S4_S4_
Boostnote:_ZN2v88internal17CodeStubAssembler15ToLength_InlineENS0_8compiler11SloppyTNodeINS0_7ContextEEENS3_INS0_6ObjectEEE
Boostnote:_ZN2v88internal17CodeStubAssembler15ToNumber_InlineENS0_8compiler11SloppyTNodeINS0_7ContextEEENS3_INS0_6ObjectEEE
Boostnote:_ZN2v88internal17CodeStubAssembler15ToString_InlineENS0_8compiler11SloppyTNodeINS0_7ContextEEENS3_INS0_6ObjectEEE
Boostnote:_ZN2v88internal17CodeStubAssembler16CloneFastJSArrayEPNS0_8compiler4NodeES4_NS1_13ParameterModeES4_
Boostnote:_ZN2v88internal17CodeStubAssembler16DecrementCounterEPNS0_12StatsCounterEi
Boostnote:_ZN2v88internal17CodeStubAssembler16DescriptorLookupENS0_8compiler11SloppyTNodeINS0_4NameEEENS3_INS0_15DescriptorArrayEEENS3_INS0_7Uint32TEEEPNS2_18CodeAssemblerLabelEPNS2_26TypedCodeAssemblerVariableINS0_7IntPtrTEEESB_
Boostnote:_ZN2v88internal17CodeStubAssembler16EmitElementStoreEPNS0_8compiler4NodeES4_S4_bNS0_12ElementsKindENS0_20KeyedAccessStoreModeEPNS2_18CodeAssemblerLabelES4_
Boostnote:_ZN2v88internal17CodeStubAssembler16GetArgumentValueEPNS0_17CodeStubArgumentsENS0_8compiler5TNodeINS0_7IntPtrTEEE
Boostnote:_ZN2v88internal17CodeStubAssembler16IncrementCounterEPNS0_12StatsCounterEi
Boostnote:_ZN2v88internal17CodeStubAssembler16IsAllocationSiteENS0_8compiler11SloppyTNodeINS0_10HeapObjectEEE
Boostnote:_ZN2v88internal17CodeStubAssembler16IsConstructorMapENS0_8compiler11SloppyTNodeINS0_3MapEEE
Boostnote:_ZN2v88internal17CodeStubAssembler16IsDetachedBufferEPNS0_8compiler4NodeE
Boostnote:_ZN2v88internal17CodeStubAssembler16IsFeedbackVectorENS0_8compiler11SloppyTNodeINS0_10HeapObjectEEE
Boostnote:_ZN2v88internal17CodeStubAssembler16IsIteratorSymbolENS0_8compiler11SloppyTNodeINS0_6ObjectEEE
Boostnote:_ZN2v88internal17CodeStubAssembler16IsNameDictionaryENS0_8compiler11SloppyTNodeINS0_10HeapObjectEEE
Boostnote:_ZN2v88internal17CodeStubAssembler16IsNotEmptyStringENS0_8compiler11SloppyTNodeINS0_6ObjectEEE
Boostnote:_ZN2v88internal17CodeStubAssembler16IsNotWeakCellMapENS0_8compiler11SloppyTNodeINS0_6ObjectEEE
Boostnote:_ZN2v88internal17CodeStubAssembler16IsNumberPositiveENS0_8compiler11SloppyTNodeINS0_6UnionTINS0_3SmiENS0_10HeapNumberEEEEE
Boostnote:_ZN2v88internal17CodeStubAssembler16IsOffsetInBoundsENS0_8compiler11SloppyTNodeINS0_7IntPtrTEEES5_iNS0_12ElementsKindE
Boostnote:_ZN2v88internal17CodeStubAssembler16LoadArrayElementENS0_8compiler11SloppyTNodeINS0_10HeapObjectEEEiPNS2_4NodeEiNS1_13ParameterModeENS0_15LoadSensitivityE
Boostnote:_ZN2v88internal17CodeStubAssembler16LoadBufferObjectEPNS0_8compiler4NodeEiNS0_11MachineTypeE
Boostnote:_ZN2v88internal17CodeStubAssembler16LoadElementsKindENS0_8compiler11SloppyTNodeINS0_10HeapObjectEEE
Boostnote:_ZN2v88internal17CodeStubAssembler16LoadElementsKindENS0_8compiler5TNodeINS0_14AllocationSiteEEE
Boostnote:_ZN2v88internal17CodeStubAssembler16LoadInstanceTypeENS0_8compiler11SloppyTNodeINS0_10HeapObjectEEE
Boostnote:_ZN2v88internal17CodeStubAssembler16LoadJSValueValueEPNS0_8compiler4NodeE
Boostnote:_ZN2v88internal17CodeStubAssembler16LoadMapBitField2ENS0_8compiler11SloppyTNodeINS0_3MapEEE
Boostnote:_ZN2v88internal17CodeStubAssembler16LoadMapBitField3ENS0_8compiler11SloppyTNodeINS0_3MapEEE
Boostnote:_ZN2v88internal17CodeStubAssembler16LoadMapPrototypeENS0_8compiler11SloppyTNodeINS0_3MapEEE
Boostnote:_ZN2v88internal17CodeStubAssembler16StoreBigIntDigitENS0_8compiler5TNodeINS0_6BigIntEEEiNS3_INS0_8UintPtrTEEE
Boostnote:_ZN2v88internal17CodeStubAssembler16StoreObjectFieldEPNS0_8compiler4NodeES4_S4_
Boostnote:_ZN2v88internal17CodeStubAssembler16StoreObjectFieldEPNS0_8compiler4NodeEiS4_
Boostnote:_ZN2v88internal17CodeStubAssembler16StringCharCodeAtENS0_8compiler11SloppyTNodeINS0_6StringEEENS3_INS0_7IntPtrTEEE
Boostnote:_ZN2v88internal17CodeStubAssembler16TaggedIsCallableENS0_8compiler5TNodeINS0_6ObjectEEE
Boostnote:_ZN2v88internal17CodeStubAssembler16TimesPointerSizeEPNS0_8compiler4NodeE
Boostnote:_ZN2v88internal17CodeStubAssembler16ToInteger_InlineENS0_8compiler11SloppyTNodeINS0_7ContextEEENS3_INS0_6ObjectEEENS1_23ToIntegerTruncationModeE
Boostnote:_ZN2v88internal17CodeStubAssembler16ToWeakHeapObjectENS0_8compiler5TNodeINS0_11MaybeObjectEEE
Boostnote:_ZN2v88internal17CodeStubAssembler16ToWeakHeapObjectENS0_8compiler5TNodeINS0_11MaybeObjectEEEPNS2_18CodeAssemblerLabelE
Boostnote:_ZN2v88internal17CodeStubAssembler16TransitionLookupENS0_8compiler11SloppyTNodeINS0_4NameEEENS3_INS0_15TransitionArrayEEEPNS2_18CodeAssemblerLabelEPNS2_26TypedCodeAssemblerVariableINS0_7IntPtrTEEES9_
Boostnote:_ZN2v88internal17CodeStubAssembler16TryLookupElementEPNS0_8compiler4NodeES4_NS2_11SloppyTNodeINS0_6Int32TEEENS5_INS0_7IntPtrTEEEPNS2_18CodeAssemblerLabelESB_SB_SB_
Boostnote:_ZN2v88internal17CodeStubAssembler16WordIsPowerOfTwoENS0_8compiler11SloppyTNodeINS0_7IntPtrTEEE
Boostnote:_ZN2v88internal17CodeStubAssembler17AllocateRawBigIntENS0_8compiler5TNodeINS0_7IntPtrTEEE
Boostnote:_ZN2v88internal17CodeStubAssembler17BranchIfSameValueEPNS0_8compiler4NodeES4_PNS2_18CodeAssemblerLabelES6_
Boostnote:_ZN2v88internal17CodeStubAssembler17ExtractFixedArrayEPNS0_8compiler4NodeES4_S4_S4_NS_4base5FlagsINS1_21ExtractFixedArrayFlagEiEENS1_13ParameterModeE
Boostnote:_ZN2v88internal17CodeStubAssembler17HandleBreakOnNodeEv
Boostnote:_ZN2v88internal17CodeStubAssembler17InstanceTypeEqualENS0_8compiler11SloppyTNodeINS0_6Int32TEEEi
Boostnote:_ZN2v88internal17CodeStubAssembler17IsAccessorInfoMapENS0_8compiler11SloppyTNodeINS0_6ObjectEEE
Boostnote:_ZN2v88internal17CodeStubAssembler17IsAccessorPairMapENS0_8compiler11SloppyTNodeINS0_6ObjectEEE
Boostnote:_ZN2v88internal17CodeStubAssembler17IsEmptyFixedArrayENS0_8compiler11SloppyTNodeINS0_6ObjectEEE
Boostnote:_ZN2v88internal17CodeStubAssembler17IsFixedTypedArrayENS0_8compiler11SloppyTNodeINS0_10HeapObjectEEE
Boostnote:_ZN2v88internal17CodeStubAssembler17IsJSArrayIteratorENS0_8compiler11SloppyTNodeINS0_10HeapObjectEEE
Boostnote:_ZN2v88internal17CodeStubAssembler17IsNotLengthStringENS0_8compiler11SloppyTNodeINS0_6ObjectEEE
Boostnote:_ZN2v88internal17CodeStubAssembler17IsNullOrUndefinedENS0_8compiler11SloppyTNodeINS0_6ObjectEEE
Boostnote:_ZN2v88internal17CodeStubAssembler17IsPropertyCellMapENS0_8compiler11SloppyTNodeINS0_6ObjectEEE
Boostnote:_ZN2v88internal17CodeStubAssembler17IsPrototypeStringENS0_8compiler11SloppyTNodeINS0_6ObjectEEE
Boostnote:_ZN2v88internal17CodeStubAssembler17IsSimpleObjectMapENS0_8compiler5TNodeINS0_3MapEEE
Boostnote:_ZN2v88internal17CodeStubAssembler17IsUndetectableMapENS0_8compiler11SloppyTNodeINS0_3MapEEE
Boostnote:_ZN2v88internal17CodeStubAssembler17IsWeakReferenceToENS0_8compiler5TNodeINS0_11MaybeObjectEEENS3_INS0_6ObjectEEE
Boostnote:_ZN2v88internal17CodeStubAssembler17LoadJSArrayLengthENS0_8compiler11SloppyTNodeINS0_7JSArrayEEE
Boostnote:_ZN2v88internal17CodeStubAssembler17LoadMapEnumLengthENS0_8compiler11SloppyTNodeINS0_3MapEEE
Boostnote:_ZN2v88internal17CodeStubAssembler17LoadModuleContextENS0_8compiler11SloppyTNodeINS0_7ContextEEE
Boostnote:_ZN2v88internal17CodeStubAssembler17LoadNameHashFieldENS0_8compiler11SloppyTNodeINS0_4NameEEE
Boostnote:_ZN2v88internal17CodeStubAssembler17LoadNativeContextENS0_8compiler11SloppyTNodeINS0_7ContextEEE
Boostnote:_ZN2v88internal17CodeStubAssembler17LoadScriptContextENS0_8compiler5TNodeINS0_7ContextEEENS3_INS0_7IntPtrTEEE
Boostnote:_ZN2v88internal17CodeStubAssembler17LoadWeakCellValueENS0_8compiler11SloppyTNodeINS0_8WeakCellEEEPNS2_18CodeAssemblerLabelE
Boostnote:_ZN2v88internal17CodeStubAssembler17MarkerIsFrameTypeEPNS0_8compiler4NodeENS0_10StackFrame4TypeE
Boostnote:_ZN2v88internal17CodeStubAssembler17MinusZeroConstantEv
Boostnote:_ZN2v88internal17CodeStubAssembler17NoContextConstantEv
Boostnote:_ZN2v88internal17CodeStubAssembler17NonNumberToNumberENS0_8compiler11SloppyTNodeINS0_7ContextEEENS3_INS0_10HeapObjectEEENS1_14BigIntHandlingE
Boostnote:_ZN2v88internal17CodeStubAssembler17NotHasBoilerplateENS0_8compiler5TNodeINS0_6ObjectEEE
Boostnote:_ZN2v88internal17CodeStubAssembler17OverwriteFeedbackEPNS0_8compiler21CodeAssemblerVariableEi
Boostnote:_ZN2v88internal17CodeStubAssembler17PerformStackCheckENS0_8compiler5TNodeINS0_7ContextEEE
Boostnote:_ZN2v88internal17CodeStubAssembler17SelectSmiConstantENS0_8compiler11SloppyTNodeINS0_5BoolTEEEPNS0_3SmiES7_
Boostnote:_ZN2v88internal17CodeStubAssembler17SymbolMapConstantEv
Boostnote:_ZN2v88internal17CodeStubAssembler17TryGetOwnPropertyEPNS0_8compiler4NodeES4_S4_S4_S4_S4_PNS2_18CodeAssemblerLabelEPNS2_21CodeAssemblerVariableES6_S6_
Boostnote:_ZN2v88internal17CodeStubAssembler17TryGetOwnPropertyEPNS0_8compiler4NodeES4_S4_S4_S4_S4_PNS2_18CodeAssemblerLabelEPNS2_21CodeAssemblerVariableES8_S8_S6_S6_NS1_18GetOwnPropertyModeE
Boostnote:_ZN2v88internal17CodeStubAssembler17TryHasOwnPropertyEPNS0_8compiler4NodeES4_S4_S4_PNS2_18CodeAssemblerLabelES6_S6_
Boostnote:_ZN2v88internal17CodeStubAssembler17TryLookupPropertyENS0_8compiler11SloppyTNodeINS0_8JSObjectEEENS3_INS0_3MapEEENS3_INS0_6Int32TEEENS3_INS0_4NameEEEPNS2_18CodeAssemblerLabelESD_SD_PNS2_26TypedCodeAssemblerVariableINS0_10HeapObjectEEEPNSE_INS0_7IntPtrTEEESD_SD_
Boostnote:_ZN2v88internal17CodeStubAssembler17Tuple2MapConstantEv
Boostnote:_ZN2v88internal17CodeStubAssembler17Tuple3MapConstantEv
Boostnote:_ZN2v88internal17CodeStubAssembler17UndefinedConstantEv
Boostnote:_ZN2v88internal17CodeStubAssembler17WordIsWordAlignedENS0_8compiler11SloppyTNodeINS0_5WordTEEE
Boostnote:_ZN2v88internal17CodeStubAssembler18AllocateConsStringENS0_4Heap13RootListIndexENS0_8compiler5TNodeINS0_3SmiEEENS5_INS0_6StringEEES9_NS_4base5FlagsINS1_14AllocationFlagEiEE
Boostnote:_ZN2v88internal17CodeStubAssembler18AllocateFixedArrayENS0_12ElementsKindEPNS0_8compiler4NodeENS1_13ParameterModeENS_4base5FlagsINS1_14AllocationFlagEiEENS3_11SloppyTNodeINS0_3MapEEE
Boostnote:_ZN2v88internal17CodeStubAssembler18AllocateHeapNumberEv
Boostnote:_ZN2v88internal17CodeStubAssembler18AllocateInNewSpaceEPNS0_8compiler4NodeENS_4base5FlagsINS1_14AllocationFlagEiEE
Boostnote:_ZN2v88internal17CodeStubAssembler18AllocateInNewSpaceEiNS_4base5FlagsINS1_14AllocationFlagEiEE
Boostnote:_ZN2v88internal17CodeStubAssembler18ArraySpeciesCreateENS0_8compiler5TNodeINS0_7ContextEEENS3_INS0_6ObjectEEENS3_INS0_6UnionTINS0_3SmiENS0_10HeapNumberEEEEE
Boostnote:_ZN2v88internal17CodeStubAssembler18BooleanMapConstantEv
Boostnote:_ZN2v88internal17CodeStubAssembler18BranchIfJSReceiverEPNS0_8compiler4NodeEPNS2_18CodeAssemblerLabelES6_
Boostnote:_ZN2v88internal17CodeStubAssembler18BuildAppendJSArrayENS0_12ElementsKindENS0_8compiler11SloppyTNodeINS0_7JSArrayEEEPNS0_17CodeStubArgumentsEPNS3_26TypedCodeAssemblerVariableINS0_7IntPtrTEEEPNS3_18CodeAssemblerLabelE
Boostnote:_ZN2v88internal17CodeStubAssembler18BuildAppendJSArrayENS0_12ElementsKindEPNS0_8compiler4NodeES5_PNS3_18CodeAssemblerLabelE
Boostnote:_ZN2v88internal17CodeStubAssembler18ComputeIntegerHashEPNS0_8compiler4NodeE
Boostnote:_ZN2v88internal17CodeStubAssembler18ComputeIntegerHashEPNS0_8compiler4NodeES4_
Boostnote:_ZN2v88internal17CodeStubAssembler18CopyNameDictionaryENS0_8compiler5TNodeINS0_14NameDictionaryEEEPNS2_18CodeAssemblerLabelE
Boostnote:_ZN2v88internal17CodeStubAssembler18ExtractFastJSArrayEPNS0_8compiler4NodeES4_S4_S4_NS1_13ParameterModeES4_S4_
Boostnote:_ZN2v88internal17CodeStubAssembler18Float64RoundToEvenENS0_8compiler11SloppyTNodeINS0_8Float64TEEE
Boostnote:_ZN2v88internal17CodeStubAssembler18GenerateEqual_SameEPNS0_8compiler4NodeEPNS2_18CodeAssemblerLabelES6_PNS2_21CodeAssemblerVariableE
Boostnote:_ZN2v88internal17CodeStubAssembler18GetArgumentsLengthEPNS0_17CodeStubArgumentsE
Boostnote:_ZN2v88internal17CodeStubAssembler18IsFastElementsKindEPNS0_8compiler4NodeE
Boostnote:_ZN2v88internal17CodeStubAssembler18IsFixedCOWArrayMapENS0_8compiler11SloppyTNodeINS0_6ObjectEEE
Boostnote:_ZN2v88internal17CodeStubAssembler18IsFixedDoubleArrayENS0_8compiler11SloppyTNodeINS0_10HeapObjectEEE
Boostnote:_ZN2v88internal17CodeStubAssembler18IsGlobalDictionaryENS0_8compiler11SloppyTNodeINS0_10HeapObjectEEE
Boostnote:_ZN2v88internal17CodeStubAssembler18IsHeapNumberUint32ENS0_8compiler5TNodeINS0_10HeapNumberEEE
Boostnote:_ZN2v88internal17CodeStubAssembler18IsNotEmptyWeakCellENS0_8compiler11SloppyTNodeINS0_6ObjectEEE
Boostnote:_ZN2v88internal17CodeStubAssembler18IsNotFixedArrayMapENS0_8compiler11SloppyTNodeINS0_6ObjectEEE
Boostnote:_ZN2v88internal17CodeStubAssembler18IsNotHeapNumberMapENS0_8compiler11SloppyTNodeINS0_6ObjectEEE
Boostnote:_ZN2v88internal17CodeStubAssembler18IsNullOrJSReceiverENS0_8compiler11SloppyTNodeINS0_10HeapObjectEEE
Boostnote:_ZN2v88internal17CodeStubAssembler18IsNumberArrayIndexENS0_8compiler5TNodeINS0_6UnionTINS0_3SmiENS0_10HeapNumberEEEEE
Boostnote:_ZN2v88internal17CodeStubAssembler18IsNumberDictionaryENS0_8compiler11SloppyTNodeINS0_10HeapObjectEEE
Boostnote:_ZN2v88internal17CodeStubAssembler18IsNumberNormalizedENS0_8compiler11SloppyTNodeINS0_6UnionTINS0_3SmiENS0_10HeapNumberEEEEE
Boostnote:_ZN2v88internal17CodeStubAssembler18IsStoreHandler0MapENS0_8compiler11SloppyTNodeINS0_6ObjectEEE
Boostnote:_ZN2v88internal17CodeStubAssembler18IsStrongHeapObjectENS0_8compiler5TNodeINS0_11MaybeObjectEEE
Boostnote:_ZN2v88internal17CodeStubAssembler18IsValidPositiveSmiENS0_8compiler5TNodeINS0_7IntPtrTEEE
Boostnote:_ZN2v88internal17CodeStubAssembler18LoadBigIntBitfieldENS0_8compiler5TNodeINS0_6BigIntEEE
Boostnote:_ZN2v88internal17CodeStubAssembler18LoadContextElementENS0_8compiler11SloppyTNodeINS0_7ContextEEENS3_INS0_7IntPtrTEEE
Boostnote:_ZN2v88internal17CodeStubAssembler18LoadContextElementENS0_8compiler11SloppyTNodeINS0_7ContextEEEi
Boostnote:_ZN2v88internal17CodeStubAssembler18LoadFastPropertiesENS0_8compiler11SloppyTNodeINS0_8JSObjectEEE
Boostnote:_ZN2v88internal17CodeStubAssembler18LoadFeedbackVectorENS0_8compiler11SloppyTNodeINS0_10JSFunctionEEEPNS2_18CodeAssemblerLabelE
Boostnote:_ZN2v88internal17CodeStubAssembler18LoadMapBackPointerENS0_8compiler11SloppyTNodeINS0_3MapEEE
Boostnote:_ZN2v88internal17CodeStubAssembler18LoadMapConstructorENS0_8compiler11SloppyTNodeINS0_3MapEEE
Boostnote:_ZN2v88internal17CodeStubAssembler18LoadMapDescriptorsENS0_8compiler11SloppyTNodeINS0_3MapEEE
Boostnote:_ZN2v88internal17CodeStubAssembler18LoadSlowPropertiesENS0_8compiler11SloppyTNodeINS0_8JSObjectEEE
Boostnote:_ZN2v88internal17CodeStubAssembler18LoadTransitionInfoENS0_8compiler5TNodeINS0_14AllocationSiteEEE
Boostnote:_ZN2v88internal17CodeStubAssembler18NonNumberToNumericENS0_8compiler11SloppyTNodeINS0_7ContextEEENS3_INS0_10HeapObjectEEE
Boostnote:_ZN2v88internal17CodeStubAssembler18SpeciesConstructorENS0_8compiler11SloppyTNodeINS0_7ContextEEENS3_INS0_6ObjectEEES7_
Boostnote:_ZN2v88internal17CodeStubAssembler18StoreJSArrayLengthENS0_8compiler5TNodeINS0_7JSArrayEEENS3_INS0_3SmiEEE
Boostnote:_ZN2v88internal17CodeStubAssembler18ToStrongHeapObjectENS0_8compiler5TNodeINS0_11MaybeObjectEEEPNS2_18CodeAssemblerLabelE
Boostnote:_ZN2v88internal17CodeStubAssembler18TryTaggedToFloat64EPNS0_8compiler4NodeEPNS2_18CodeAssemblerLabelE
Boostnote:_ZN2v88internal17CodeStubAssembler19BranchIfFastJSArrayEPNS0_8compiler4NodeES4_PNS2_18CodeAssemblerLabelES6_
Boostnote:_ZN2v88internal17CodeStubAssembler19ChangeInt32ToTaggedENS0_8compiler11SloppyTNodeINS0_6Int32TEEE
Boostnote:_ZN2v88internal17CodeStubAssembler19CopyElementsOnWriteEPNS0_8compiler4NodeES4_NS0_12ElementsKindES4_NS1_13ParameterModeEPNS2_18CodeAssemblerLabelE
Boostnote:_ZN2v88internal17CodeStubAssembler19CreateArrayIteratorENS0_8compiler5TNodeINS0_7ContextEEENS3_INS0_6ObjectEEENS0_13IterationKindE
Boostnote:_ZN2v88internal17CodeStubAssembler19DerefIndirectStringENS0_8compiler5TNodeINS0_6StringEEENS3_INS0_6Int32TEEEPNS2_18CodeAssemblerLabelE
Boostnote:_ZN2v88internal17CodeStubAssembler19DerefIndirectStringEPNS0_8compiler21CodeAssemblerVariableEPNS2_4NodeE
Boostnote:_ZN2v88internal17CodeStubAssembler19DispatchMaybeObjectENS0_8compiler5TNodeINS0_11MaybeObjectEEEPNS2_18CodeAssemblerLabelES7_S7_S7_PNS2_26TypedCodeAssemblerVariableINS0_6ObjectEEE
Boostnote:_ZN2v88internal17CodeStubAssembler19EmptyStringConstantEv
Boostnote:_ZN2v88internal17CodeStubAssembler19EnsureArrayPushableENS0_8compiler5TNodeINS0_3MapEEEPNS2_18CodeAssemblerLabelE
Boostnote:_ZN2v88internal17CodeStubAssembler19GetSuperConstructorENS0_8compiler11SloppyTNodeINS0_7ContextEEENS3_INS0_10JSFunctionEEE
Boostnote:_ZN2v88internal17CodeStubAssembler19GotoIfForceSlowPathEPNS0_8compiler18CodeAssemblerLabelE
Boostnote:_ZN2v88internal17CodeStubAssembler19HasInPrototypeChainEPNS0_8compiler4NodeES4_S4_
Boostnote:_ZN2v88internal17CodeStubAssembler19Int32ToUint8ClampedEPNS0_8compiler4NodeE
Boostnote:_ZN2v88internal17CodeStubAssembler19IntPtrOrSmiConstantEiNS1_13ParameterModeE
Boostnote:_ZN2v88internal17CodeStubAssembler19IsAllocationSiteMapENS0_8compiler11SloppyTNodeINS0_6ObjectEEE
Boostnote:_ZN2v88internal17CodeStubAssembler19IsFeedbackVectorMapENS0_8compiler11SloppyTNodeINS0_6ObjectEEE
Boostnote:_ZN2v88internal17CodeStubAssembler19IsHasInstanceSymbolENS0_8compiler11SloppyTNodeINS0_6ObjectEEE
Boostnote:_ZN2v88internal17CodeStubAssembler19IsJSGeneratorObjectENS0_8compiler11SloppyTNodeINS0_10HeapObjectEEE
Boostnote:_ZN2v88internal17CodeStubAssembler19IsMutableHeapNumberENS0_8compiler11SloppyTNodeINS0_10HeapObjectEEE
Boostnote:_ZN2v88internal17CodeStubAssembler19IsNoClosuresCellMapENS0_8compiler11SloppyTNodeINS0_6ObjectEEE
Boostnote:_ZN2v88internal17CodeStubAssembler19IsNotIteratorSymbolENS0_8compiler11SloppyTNodeINS0_6ObjectEEE
Boostnote:_ZN2v88internal17CodeStubAssembler19IsOneClosureCellMapENS0_8compiler11SloppyTNodeINS0_6ObjectEEE
Boostnote:_ZN2v88internal17CodeStubAssembler19IsPromiseCapabilityENS0_8compiler11SloppyTNodeINS0_10HeapObjectEEE
Boostnote:_ZN2v88internal17CodeStubAssembler19IsStrongReferenceToENS0_8compiler5TNodeINS0_11MaybeObjectEEENS3_INS0_6ObjectEEE
Boostnote:_ZN2v88internal17CodeStubAssembler19IsWeakFixedArrayMapENS0_8compiler11SloppyTNodeINS0_6ObjectEEE
Boostnote:_ZN2v88internal17CodeStubAssembler19LoadFromParentFrameEiNS0_11MachineTypeE
Boostnote:_ZN2v88internal17CodeStubAssembler19LoadHeapNumberValueENS0_8compiler11SloppyTNodeINS0_10HeapNumberEEE
Boostnote:_ZN2v88internal17CodeStubAssembler19LoadMapElementsKindENS0_8compiler11SloppyTNodeINS0_3MapEEE
Boostnote:_ZN2v88internal17CodeStubAssembler19LoadMapInstanceTypeENS0_8compiler11SloppyTNodeINS0_3MapEEE
Boostnote:_ZN2v88internal17CodeStubAssembler19LoadTargetFromFrameEv
Boostnote:_ZN2v88internal17CodeStubAssembler19LoadValueByKeyIndexENS0_8compiler5TNodeINS0_15DescriptorArrayEEENS3_INS0_7IntPtrTEEE
Boostnote:_ZN2v88internal17CodeStubAssembler19OrdinaryHasInstanceEPNS0_8compiler4NodeES4_S4_
Boostnote:_ZN2v88internal17CodeStubAssembler19SelectInt32ConstantENS0_8compiler11SloppyTNodeINS0_5BoolTEEEii
Boostnote:_ZN2v88internal17CodeStubAssembler19StoreBigIntBitfieldENS0_8compiler5TNodeINS0_6BigIntEEENS3_INS0_5WordTEEE
Boostnote:_ZN2v88internal17CodeStubAssembler19StoreContextElementENS0_8compiler11SloppyTNodeINS0_7ContextEEENS3_INS0_7IntPtrTEEENS3_INS0_6ObjectEEE
Boostnote:_ZN2v88internal17CodeStubAssembler19StoreContextElementENS0_8compiler11SloppyTNodeINS0_7ContextEEEiNS3_INS0_6ObjectEEE
Boostnote:_ZN2v88internal17CodeStubAssembler19TaggedIsPositiveSmiENS0_8compiler11SloppyTNodeINS0_6ObjectEEE
Boostnote:_ZN2v88internal17CodeStubAssembler19WeakCellMapConstantEv
Boostnote:_ZN2v88internal17CodeStubAssembler20AllocateRawUnalignedEPNS0_8compiler4NodeENS_4base5FlagsINS1_14AllocationFlagEiEES4_S4_
Boostnote:_ZN2v88internal17CodeStubAssembler20AllocateSlicedStringENS0_4Heap13RootListIndexENS0_8compiler5TNodeINS0_3SmiEEENS5_INS0_6StringEEES7_
Boostnote:_ZN2v88internal17CodeStubAssembler20CallGetterIfAccessorEPNS0_8compiler4NodeES4_S4_S4_PNS2_18CodeAssemblerLabelENS1_18GetOwnPropertyModeE
Boostnote:_ZN2v88internal17CodeStubAssembler20ChangeUint32ToTaggedENS0_8compiler11SloppyTNodeINS0_7Uint32TEEE
Boostnote:_ZN2v88internal17CodeStubAssembler20CheckForCapacityGrowEPNS0_8compiler4NodeES4_NS0_12ElementsKindENS0_20KeyedAccessStoreModeES4_S4_NS1_13ParameterModeEbPNS2_18CodeAssemblerLabelE
Boostnote:_ZN2v88internal17CodeStubAssembler20CopyStringCharactersEPNS0_8compiler4NodeES4_NS2_5TNodeINS0_7IntPtrTEEES7_S7_NS0_6String8EncodingES9_
Boostnote:_ZN2v88internal17CodeStubAssembler20GrowElementsCapacityEPNS0_8compiler4NodeES4_NS0_12ElementsKindES5_S4_S4_NS1_13ParameterModeEPNS2_18CodeAssemblerLabelE
Boostnote:_ZN2v88internal17CodeStubAssembler20InitializeStructBodyEPNS0_8compiler4NodeES4_S4_i
Boostnote:_ZN2v88internal17CodeStubAssembler20IsBigIntInstanceTypeENS0_8compiler11SloppyTNodeINS0_6Int32TEEE
Boostnote:_ZN2v88internal17CodeStubAssembler20IsDoubleElementsKindENS0_8compiler5TNodeINS0_6Int32TEEE
Boostnote:_ZN2v88internal17CodeStubAssembler20IsEphemeronHashTableENS0_8compiler11SloppyTNodeINS0_10HeapObjectEEE
Boostnote:_ZN2v88internal17CodeStubAssembler20IsFixedArraySubclassENS0_8compiler11SloppyTNodeINS0_10HeapObjectEEE
Boostnote:_ZN2v88internal17CodeStubAssembler20IsFixedArrayWithKindENS0_8compiler11SloppyTNodeINS0_10HeapObjectEEENS0_12ElementsKindE
Boostnote:_ZN2v88internal17CodeStubAssembler20IsHeapNumberPositiveENS0_8compiler5TNodeINS0_10HeapNumberEEE
Boostnote:_ZN2v88internal17CodeStubAssembler20IsNotAccessorInfoMapENS0_8compiler11SloppyTNodeINS0_6ObjectEEE
Boostnote:_ZN2v88internal17CodeStubAssembler20IsNotAccessorPairMapENS0_8compiler11SloppyTNodeINS0_6ObjectEEE
Boostnote:_ZN2v88internal17CodeStubAssembler20IsNotEmptyFixedArrayENS0_8compiler11SloppyTNodeINS0_6ObjectEEE
Boostnote:_ZN2v88internal17CodeStubAssembler20IsNotPropertyCellMapENS0_8compiler11SloppyTNodeINS0_6ObjectEEE
Boostnote:_ZN2v88internal17CodeStubAssembler20IsNotPrototypeStringENS0_8compiler11SloppyTNodeINS0_6ObjectEEE
Boostnote:_ZN2v88internal17CodeStubAssembler20IsNotWeakReferenceToENS0_8compiler5TNodeINS0_11MaybeObjectEEENS3_INS0_6ObjectEEE
Boostnote:_ZN2v88internal17CodeStubAssembler20IsPromiseHookEnabledEv
Boostnote:_ZN2v88internal17CodeStubAssembler20IsStringInstanceTypeENS0_8compiler11SloppyTNodeINS0_6Int32TEEE
Boostnote:_ZN2v88internal17CodeStubAssembler20IsSymbolInstanceTypeENS0_8compiler11SloppyTNodeINS0_6Int32TEEE
Boostnote:_ZN2v88internal17CodeStubAssembler20IsTransitionArrayMapENS0_8compiler11SloppyTNodeINS0_6ObjectEEE
Boostnote:_ZN2v88internal17CodeStubAssembler20LengthStringConstantEv
Boostnote:_ZN2v88internal17CodeStubAssembler20LoadMapPrototypeInfoENS0_8compiler11SloppyTNodeINS0_3MapEEEPNS2_18CodeAssemblerLabelE
Boostnote:_ZN2v88internal17CodeStubAssembler20LoadTypedArrayLengthENS0_8compiler5TNodeINS0_12JSTypedArrayEEE
Boostnote:_ZN2v88internal17CodeStubAssembler20MarkerIsNotFrameTypeEPNS0_8compiler4NodeENS0_10StackFrame4TypeE
Boostnote:_ZN2v88internal17CodeStubAssembler20MatchesParameterModeEPNS0_8compiler4NodeENS1_13ParameterModeE
Boostnote:_ZN2v88internal17CodeStubAssembler20RelationalComparisonENS0_9OperationEPNS0_8compiler4NodeES5_S5_PNS3_21CodeAssemblerVariableE
Boostnote:_ZN2v88internal17CodeStubAssembler20ReportFeedbackUpdateENS0_8compiler11SloppyTNodeINS0_14FeedbackVectorEEENS3_INS0_7IntPtrTEEEPKc
Boostnote:_ZN2v88internal17CodeStubAssembler20SelectIntPtrConstantENS0_8compiler11SloppyTNodeINS0_5BoolTEEEii
Boostnote:_ZN2v88internal17CodeStubAssembler20SmiShiftBitsConstantEv
Boostnote:_ZN2v88internal17CodeStubAssembler20StoreHeapNumberValueENS0_8compiler11SloppyTNodeINS0_10HeapNumberEEENS3_INS0_8Float64TEEE
Boostnote:_ZN2v88internal17CodeStubAssembler20StoreObjectFieldRootEPNS0_8compiler4NodeEiNS0_4Heap13RootListIndexE
Boostnote:_ZN2v88internal17CodeStubAssembler20ThrowIfNotJSReceiverEPNS0_8compiler4NodeES4_NS0_15MessageTemplate8TemplateEPKc
Boostnote:_ZN2v88internal17CodeStubAssembler20TryInternalizeStringEPNS0_8compiler4NodeEPNS2_18CodeAssemblerLabelEPNS2_21CodeAssemblerVariableES6_S8_S6_S6_
Boostnote:_ZN2v88internal17CodeStubAssembler20TryStoreArrayElementENS0_12ElementsKindENS1_13ParameterModeEPNS0_8compiler18CodeAssemblerLabelEPNS4_4NodeES8_S8_
Boostnote:_ZN2v88internal17CodeStubAssembler21AllocateCellWithValueEPNS0_8compiler4NodeENS0_16WriteBarrierModeE
Boostnote:_ZN2v88internal17CodeStubAssembler21AllocatePropertyArrayEPNS0_8compiler4NodeENS1_13ParameterModeENS_4base5FlagsINS1_14AllocationFlagEiEE
Boostnote:_ZN2v88internal17CodeStubAssembler21ChangeFloat64ToTaggedENS0_8compiler11SloppyTNodeINS0_8Float64TEEE
Boostnote:_ZN2v88internal17CodeStubAssembler21ChangeNumberToFloat64ENS0_8compiler11SloppyTNodeINS0_6UnionTINS0_3SmiENS0_10HeapNumberEEEEE
Boostnote:_ZN2v88internal17CodeStubAssembler21EmptyWeakCellConstantEv
Boostnote:_ZN2v88internal17CodeStubAssembler21FixedArrayMapConstantEv
Boostnote:_ZN2v88internal17CodeStubAssembler21Float64ToUint8ClampedEPNS0_8compiler4NodeE
Boostnote:_ZN2v88internal17CodeStubAssembler21HasAsyncEventDelegateEv
Boostnote:_ZN2v88internal17CodeStubAssembler21HeapNumberMapConstantEv
Boostnote:_ZN2v88internal17CodeStubAssembler21IsFastSmiElementsKindEPNS0_8compiler4NodeE
Boostnote:_ZN2v88internal17CodeStubAssembler21IsFixedDoubleArrayMapENS0_8compiler11SloppyTNodeINS0_6ObjectEEE
Boostnote:_ZN2v88internal17CodeStubAssembler21IsJSArrayInstanceTypeENS0_8compiler11SloppyTNodeINS0_6Int32TEEE
Boostnote:_ZN2v88internal17CodeStubAssembler21IsJSValueInstanceTypeENS0_8compiler11SloppyTNodeINS0_6Int32TEEE
Boostnote:_ZN2v88internal17CodeStubAssembler21IsManyClosuresCellMapENS0_8compiler11SloppyTNodeINS0_6ObjectEEE
Boostnote:_ZN2v88internal17CodeStubAssembler21IsNotFixedCOWArrayMapENS0_8compiler11SloppyTNodeINS0_6ObjectEEE
Boostnote:_ZN2v88internal17CodeStubAssembler21IsNotStoreHandler0MapENS0_8compiler11SloppyTNodeINS0_6ObjectEEE
Boostnote:_ZN2v88internal17CodeStubAssembler21JSReceiverToPrimitiveEPNS0_8compiler4NodeES4_
Boostnote:_ZN2v88internal17CodeStubAssembler21LoadDetailsByKeyIndexENS0_8compiler5TNodeINS0_15DescriptorArrayEEENS3_INS0_7IntPtrTEEE
Boostnote:_ZN2v88internal17CodeStubAssembler21LoadFastJSArrayLengthENS0_8compiler11SloppyTNodeINS0_7JSArrayEEE
Boostnote:_ZN2v88internal17CodeStubAssembler21LoadFixedArrayElementENS0_8compiler11SloppyTNodeINS0_10HeapObjectEEEPNS2_4NodeEiNS1_13ParameterModeENS0_15LoadSensitivityE
Boostnote:_ZN2v88internal17CodeStubAssembler21LoadStringLengthAsSmiENS0_8compiler11SloppyTNodeINS0_6StringEEE
Boostnote:_ZN2v88internal17CodeStubAssembler21SelectBooleanConstantENS0_8compiler11SloppyTNodeINS0_5BoolTEEE
Boostnote:_ZN2v88internal17CodeStubAssembler21TrapAllocationMementoEPNS0_8compiler4NodeEPNS2_18CodeAssemblerLabelE
Boostnote:_ZN2v88internal17CodeStubAssembler21TruncateIntPtrToInt32ENS0_8compiler11SloppyTNodeINS0_7IntPtrTEEE
Boostnote:_ZN2v88internal17CodeStubAssembler22AllocateNameDictionaryENS0_8compiler5TNodeINS0_7IntPtrTEEE
Boostnote:_ZN2v88internal17CodeStubAssembler22AllocateNameDictionaryEi
Boostnote:_ZN2v88internal17CodeStubAssembler22ConvertToRelativeIndexENS0_8compiler5TNodeINS0_7ContextEEENS3_INS0_6ObjectEEENS3_INS0_7IntPtrTEEE
Boostnote:_ZN2v88internal17CodeStubAssembler22CopyFixedArrayElementsENS0_12ElementsKindEPNS0_8compiler4NodeES2_S5_S5_S5_S5_NS0_16WriteBarrierModeENS1_13ParameterModeE
Boostnote:_ZN2v88internal17CodeStubAssembler22DescriptorArrayForEachERNS0_10ZoneVectorIPNS0_8compiler21CodeAssemblerVariableEEENS3_5TNodeINS0_7Uint32TEEESA_RKNSt3__18functionIFvNS8_INS0_8UintPtrTEEEEEE
Boostnote:_ZN2v88internal17CodeStubAssembler22DoesntHaveInstanceTypeENS0_8compiler11SloppyTNodeINS0_10HeapObjectEEENS0_12InstanceTypeE
Boostnote:_ZN2v88internal17CodeStubAssembler22ElementOffsetFromIndexEPNS0_8compiler4NodeENS0_12ElementsKindENS1_13ParameterModeEi
Boostnote:_ZN2v88internal17CodeStubAssembler22IsJSObjectInstanceTypeENS0_8compiler11SloppyTNodeINS0_6Int32TEEE
Boostnote:_ZN2v88internal17CodeStubAssembler22IsMutableHeapNumberMapENS0_8compiler11SloppyTNodeINS0_6ObjectEEE
Boostnote:_ZN2v88internal17CodeStubAssembler22IsNotAllocationSiteMapENS0_8compiler11SloppyTNodeINS0_6ObjectEEE
Boostnote:_ZN2v88internal17CodeStubAssembler22IsNotFeedbackVectorMapENS0_8compiler11SloppyTNodeINS0_6ObjectEEE
Boostnote:_ZN2v88internal17CodeStubAssembler22IsNotHasInstanceSymbolENS0_8compiler11SloppyTNodeINS0_6ObjectEEE
Boostnote:_ZN2v88internal17CodeStubAssembler22IsNotNoClosuresCellMapENS0_8compiler11SloppyTNodeINS0_6ObjectEEE
Boostnote:_ZN2v88internal17CodeStubAssembler22IsNotOneClosureCellMapENS0_8compiler11SloppyTNodeINS0_6ObjectEEE
Boostnote:_ZN2v88internal17CodeStubAssembler22IsNotWeakFixedArrayMapENS0_8compiler11SloppyTNodeINS0_6ObjectEEE
Boostnote:_ZN2v88internal17CodeStubAssembler22IteratorSymbolConstantEv
Boostnote:_ZN2v88internal17CodeStubAssembler22LoadFeedbackVectorSlotEPNS0_8compiler4NodeES4_iNS1_13ParameterModeE
Boostnote:_ZN2v88internal17CodeStubAssembler22LoadJSArrayElementsMapENS0_12ElementsKindENS0_8compiler11SloppyTNodeINS0_7ContextEEE
Boostnote:_ZN2v88internal17CodeStubAssembler22LoadJSArrayElementsMapENS0_8compiler11SloppyTNodeINS0_6Int32TEEENS3_INS0_7ContextEEE
Boostnote:_ZN2v88internal17CodeStubAssembler22LoadStringLengthAsWordENS0_8compiler11SloppyTNodeINS0_6StringEEE
Boostnote:_ZN2v88internal17CodeStubAssembler22NumberDictionaryLookupENS0_8compiler5TNodeINS0_16NumberDictionaryEEENS3_INS0_7IntPtrTEEEPNS2_18CodeAssemblerLabelEPNS2_26TypedCodeAssemblerVariableIS6_EES9_
Boostnote:_ZN2v88internal17CodeStubAssembler22PointerToSeqStringDataEPNS0_8compiler4NodeE
Boostnote:_ZN2v88internal17CodeStubAssembler22StoreFixedArrayElementEPNS0_8compiler4NodeES4_S4_NS0_16WriteBarrierModeEiNS1_13ParameterModeE
Boostnote:_ZN2v88internal17CodeStubAssembler22StoreMapNoWriteBarrierEPNS0_8compiler4NodeENS0_4Heap13RootListIndexE
Boostnote:_ZN2v88internal17CodeStubAssembler22StoreMapNoWriteBarrierEPNS0_8compiler4NodeES4_
Boostnote:_ZN2v88internal17CodeStubAssembler22TaggedToWord32OrBigIntEPNS0_8compiler4NodeES4_PNS2_18CodeAssemblerLabelEPNS2_21CodeAssemblerVariableES6_S8_
Boostnote:_ZN2v88internal17CodeStubAssembler22ThrowIfNotInstanceTypeEPNS0_8compiler4NodeES4_NS0_12InstanceTypeEPKc
Boostnote:_ZN2v88internal17CodeStubAssembler22TransitionElementsKindEPNS0_8compiler4NodeES4_NS0_12ElementsKindES5_bPNS2_18CodeAssemblerLabelE
Boostnote:_ZN2v88internal17CodeStubAssembler22TruncateTaggedToWord32EPNS0_8compiler4NodeES4_
Boostnote:_ZN2v88internal17CodeStubAssembler23AccessorInfoMapConstantEv
Boostnote:_ZN2v88internal17CodeStubAssembler23AccessorPairMapConstantEv
Boostnote:_ZN2v88internal17CodeStubAssembler23AllocateJSObjectFromMapEPNS0_8compiler4NodeES4_S4_NS_4base5FlagsINS1_14AllocationFlagEiEENS1_17SlackTrackingModeE
Boostnote:_ZN2v88internal17CodeStubAssembler23BranchIfToBooleanIsTrueEPNS0_8compiler4NodeEPNS2_18CodeAssemblerLabelES6_
Boostnote:_ZN2v88internal17CodeStubAssembler23CheckPrototypeEnumCacheEPNS0_8compiler4NodeES4_PNS2_18CodeAssemblerLabelES6_
Boostnote:_ZN2v88internal17CodeStubAssembler23CopyPropertyArrayValuesEPNS0_8compiler4NodeES4_S4_NS0_16WriteBarrierModeENS1_13ParameterModeE
Boostnote:_ZN2v88internal17CodeStubAssembler23EmptyFixedArrayConstantEv
Boostnote:_ZN2v88internal17CodeStubAssembler23FillFixedArrayWithValueENS0_12ElementsKindEPNS0_8compiler4NodeES5_S5_NS0_4Heap13RootListIndexENS1_13ParameterModeE
Boostnote:_ZN2v88internal17CodeStubAssembler23IsArraySpeciesProtectorENS0_8compiler11SloppyTNodeINS0_6ObjectEEE
Boostnote:_ZN2v88internal17CodeStubAssembler23IsClearedWeakHeapObjectENS0_8compiler5TNodeINS0_11MaybeObjectEEE
Boostnote:_ZN2v88internal17CodeStubAssembler23IsHoleyFastElementsKindEPNS0_8compiler4NodeE
Boostnote:_ZN2v88internal17CodeStubAssembler23IsNotTransitionArrayMapENS0_8compiler11SloppyTNodeINS0_6ObjectEEE
Boostnote:_ZN2v88internal17CodeStubAssembler23IsPreParsedScopeDataMapENS0_8compiler11SloppyTNodeINS0_6ObjectEEE
Boostnote:_ZN2v88internal17CodeStubAssembler23IsPrimitiveInstanceTypeENS0_8compiler11SloppyTNodeINS0_6Int32TEEE
Boostnote:_ZN2v88internal17CodeStubAssembler23IsRegularHeapObjectSizeEPNS0_8compiler4NodeE
Boostnote:_ZN2v88internal17CodeStubAssembler23IsSharedFunctionInfoMapENS0_8compiler11SloppyTNodeINS0_6ObjectEEE
Boostnote:_ZN2v88internal17CodeStubAssembler23LoadAndUntagObjectFieldENS0_8compiler11SloppyTNodeINS0_10HeapObjectEEEi
Boostnote:_ZN2v88internal17CodeStubAssembler23LoadDoubleWithHoleCheckENS0_8compiler11SloppyTNodeINS0_6ObjectEEENS3_INS0_7IntPtrTEEEPNS2_18CodeAssemblerLabelENS0_11MachineTypeE
Boostnote:_ZN2v88internal17CodeStubAssembler23LoadDoubleWithHoleCheckENS0_8compiler5TNodeINS0_16FixedDoubleArrayEEENS3_INS0_3SmiEEEPNS2_18CodeAssemblerLabelE
Boostnote:_ZN2v88internal17CodeStubAssembler23LoadFieldTypeByKeyIndexENS0_8compiler5TNodeINS0_15DescriptorArrayEEENS3_INS0_7IntPtrTEEE
Boostnote:_ZN2v88internal17CodeStubAssembler23LoadJSFunctionPrototypeEPNS0_8compiler4NodeEPNS2_18CodeAssemblerLabelE
Boostnote:_ZN2v88internal17CodeStubAssembler23PropertyCellMapConstantEv
Boostnote:_ZN2v88internal17CodeStubAssembler23PrototypeStringConstantEv
Boostnote:_ZN2v88internal17CodeStubAssembler23StoreFeedbackVectorSlotEPNS0_8compiler4NodeES4_S4_NS0_16WriteBarrierModeEiNS1_13ParameterModeE
Boostnote:_ZN2v88internal17CodeStubAssembler23TruncateTaggedToFloat64EPNS0_8compiler4NodeES4_
Boostnote:_ZN2v88internal17CodeStubAssembler23TryGrowElementsCapacityEPNS0_8compiler4NodeES4_NS0_12ElementsKindES4_PNS2_18CodeAssemblerLabelE
Boostnote:_ZN2v88internal17CodeStubAssembler23TryGrowElementsCapacityEPNS0_8compiler4NodeES4_NS0_12ElementsKindES4_S4_NS1_13ParameterModeEPNS2_18CodeAssemblerLabelE
Boostnote:_ZN2v88internal17CodeStubAssembler23TryPrototypeChainLookupEPNS0_8compiler4NodeES4_RKNSt3__18functionIFvS4_S4_S4_S4_S4_PNS2_18CodeAssemblerLabelES8_EEESC_S8_S8_S8_
Boostnote:_ZN2v88internal17CodeStubAssembler24AllocateJSIteratorResultEPNS0_8compiler4NodeES4_S4_
Boostnote:_ZN2v88internal17CodeStubAssembler24AllocateRawDoubleAlignedEPNS0_8compiler4NodeENS_4base5FlagsINS1_14AllocationFlagEiEES4_S4_
Boostnote:_ZN2v88internal17CodeStubAssembler24AllocateSeqOneByteStringEPNS0_8compiler4NodeENS2_5TNodeINS0_3SmiEEENS_4base5FlagsINS1_14AllocationFlagEiEE
Boostnote:_ZN2v88internal17CodeStubAssembler24AllocateSeqOneByteStringEiNS_4base5FlagsINS1_14AllocationFlagEiEE
Boostnote:_ZN2v88internal17CodeStubAssembler24AllocateSeqTwoByteStringEPNS0_8compiler4NodeENS2_5TNodeINS0_3SmiEEENS_4base5FlagsINS1_14AllocationFlagEiEE
Boostnote:_ZN2v88internal17CodeStubAssembler24AllocateSeqTwoByteStringEiNS_4base5FlagsINS1_14AllocationFlagEiEE
Boostnote:_ZN2v88internal17CodeStubAssembler24CollectFeedbackForStringENS0_8compiler11SloppyTNodeINS0_6Int32TEEE
Boostnote:_ZN2v88internal17CodeStubAssembler24EmitKeyedSloppyArgumentsEPNS0_8compiler4NodeES4_S4_PNS2_18CodeAssemblerLabelE
Boostnote:_ZN2v88internal17CodeStubAssembler24FixedCOWArrayMapConstantEv
Boostnote:_ZN2v88internal17CodeStubAssembler24HashTableComputeCapacityENS0_8compiler5TNodeINS0_7IntPtrTEEE
Boostnote:_ZN2v88internal17CodeStubAssembler24InitializeFieldsWithRootEPNS0_8compiler4NodeES4_S4_NS0_4Heap13RootListIndexE
Boostnote:_ZN2v88internal17CodeStubAssembler24IsConsStringInstanceTypeENS0_8compiler11SloppyTNodeINS0_6Int32TEEE
Boostnote:_ZN2v88internal17CodeStubAssembler24IsJSAsyncGeneratorObjectENS0_8compiler11SloppyTNodeINS0_10HeapObjectEEE
Boostnote:_ZN2v88internal17CodeStubAssembler24IsJSFunctionInstanceTypeENS0_8compiler11SloppyTNodeINS0_6Int32TEEE
Boostnote:_ZN2v88internal17CodeStubAssembler24IsJSReceiverInstanceTypeENS0_8compiler11SloppyTNodeINS0_6Int32TEEE
Boostnote:_ZN2v88internal17CodeStubAssembler24IsNotFixedDoubleArrayMapENS0_8compiler11SloppyTNodeINS0_6ObjectEEE
Boostnote:_ZN2v88internal17CodeStubAssembler24IsNotManyClosuresCellMapENS0_8compiler11SloppyTNodeINS0_6ObjectEEE
Boostnote:_ZN2v88internal17CodeStubAssembler24LoadAndUntagToWord32RootENS0_4Heap13RootListIndexE
Boostnote:_ZN2v88internal17CodeStubAssembler24LoadFeedbackVectorLengthENS0_8compiler5TNodeINS0_14FeedbackVectorEEE
Boostnote:_ZN2v88internal17CodeStubAssembler24LoadFixedArrayBaseLengthENS0_8compiler11SloppyTNodeINS0_14FixedArrayBaseEEE
Boostnote:_ZN2v88internal17CodeStubAssembler24LoadPropertyArrayElementENS0_8compiler11SloppyTNodeINS0_13PropertyArrayEEENS3_INS0_7IntPtrTEEE
Boostnote:_ZN2v88internal17CodeStubAssembler24LoadWeakFixedArrayLengthENS0_8compiler5TNodeINS0_14WeakFixedArrayEEE
Boostnote:_ZN2v88internal17CodeStubAssembler24MaybeDerefIndirectStringEPNS0_8compiler21CodeAssemblerVariableEPNS2_4NodeEPNS2_18CodeAssemblerLabelES8_
Boostnote:_ZN2v88internal17CodeStubAssembler24StoreHandler0MapConstantEv
Boostnote:_ZN2v88internal17CodeStubAssembler24StringFromSingleCharCodeENS0_8compiler5TNodeINS0_6Int32TEEE
Boostnote:_ZN2v88internal17CodeStubAssembler25AllocateMutableHeapNumberEv
Boostnote:_ZN2v88internal17CodeStubAssembler25AllocateOneByteConsStringENS0_8compiler5TNodeINS0_3SmiEEENS3_INS0_6StringEEES7_NS_4base5FlagsINS1_14AllocationFlagEiEE
Boostnote:_ZN2v88internal17CodeStubAssembler25AllocateTwoByteConsStringENS0_8compiler5TNodeINS0_3SmiEEENS3_INS0_6StringEEES7_NS_4base5FlagsINS1_14AllocationFlagEiEE
Boostnote:_ZN2v88internal17CodeStubAssembler25AllocationSiteMapConstantEv
Boostnote:_ZN2v88internal17CodeStubAssembler25BranchIfMaybeSpecialIndexENS0_8compiler5TNodeINS0_6StringEEEPNS2_18CodeAssemblerLabelES7_
Boostnote:_ZN2v88internal17CodeStubAssembler25DescriptorArrayGetDetailsENS0_8compiler5TNodeINS0_15DescriptorArrayEEENS3_INS0_7Uint32TEEE
Boostnote:_ZN2v88internal17CodeStubAssembler25EnsureArrayLengthWritableENS0_8compiler5TNodeINS0_3MapEEEPNS2_18CodeAssemblerLabelE
Boostnote:_ZN2v88internal17CodeStubAssembler25FeedbackVectorMapConstantEv
Boostnote:_ZN2v88internal17CodeStubAssembler25GetSharedFunctionInfoCodeENS0_8compiler11SloppyTNodeINS0_18SharedFunctionInfoEEEPNS2_18CodeAssemblerLabelE
Boostnote:_ZN2v88internal17CodeStubAssembler25HasInstanceSymbolConstantEv
Boostnote:_ZN2v88internal17CodeStubAssembler25InitializeFunctionContextEPNS0_8compiler4NodeES4_i
Boostnote:_ZN2v88internal17CodeStubAssembler25InitializeJSObjectFromMapEPNS0_8compiler4NodeES4_S4_S4_S4_NS1_17SlackTrackingModeE
Boostnote:_ZN2v88internal17CodeStubAssembler25IsElementsKindGreaterThanEPNS0_8compiler4NodeENS0_12ElementsKindE
Boostnote:_ZN2v88internal17CodeStubAssembler25IsEmptyPropertyDictionaryENS0_8compiler11SloppyTNodeINS0_6ObjectEEE
Boostnote:_ZN2v88internal17CodeStubAssembler25IsFunctionTemplateInfoMapENS0_8compiler11SloppyTNodeINS0_6ObjectEEE
Boostnote:_ZN2v88internal17CodeStubAssembler25IsIntPtrOrSmiConstantZeroEPNS0_8compiler4NodeENS1_13ParameterModeE
Boostnote:_ZN2v88internal17CodeStubAssembler25IsNotMutableHeapNumberMapENS0_8compiler11SloppyTNodeINS0_6ObjectEEE
Boostnote:_ZN2v88internal17CodeStubAssembler25IsPromiseSpeciesProtectorENS0_8compiler11SloppyTNodeINS0_6ObjectEEE
Boostnote:_ZN2v88internal17CodeStubAssembler25IsWeakOrClearedHeapObjectENS0_8compiler5TNodeINS0_11MaybeObjectEEE
Boostnote:_ZN2v88internal17CodeStubAssembler25LoadArrayBufferViewBufferENS0_8compiler5TNodeINS0_17JSArrayBufferViewEEE
Boostnote:_ZN2v88internal17CodeStubAssembler25LoadFeedbackVectorForStubEv
Boostnote:_ZN2v88internal17CodeStubAssembler25LoadWeakFixedArrayElementENS0_8compiler5TNodeINS0_14WeakFixedArrayEEEPNS2_4NodeEiNS1_13ParameterModeENS0_15LoadSensitivityE
Boostnote:_ZN2v88internal17CodeStubAssembler25MaybeDerefIndirectStringsEPNS0_8compiler21CodeAssemblerVariableEPNS2_4NodeES4_S6_PNS2_18CodeAssemblerLabelE
Boostnote:_ZN2v88internal17CodeStubAssembler25NoClosuresCellMapConstantEv
Boostnote:_ZN2v88internal17CodeStubAssembler25OneClosureCellMapConstantEv
Boostnote:_ZN2v88internal17CodeStubAssembler25StoreFieldsNoWriteBarrierEPNS0_8compiler4NodeES4_S4_
Boostnote:_ZN2v88internal17CodeStubAssembler25StringFromSingleCodePointENS0_8compiler5TNodeINS0_6Int32TEEENS0_15UnicodeEncodingE
Boostnote:_ZN2v88internal17CodeStubAssembler25WeakFixedArrayMapConstantEv
Boostnote:_ZN2v88internal17CodeStubAssembler26BranchIfFastJSArrayForCopyEPNS0_8compiler4NodeES4_PNS2_18CodeAssemblerLabelES6_
Boostnote:_ZN2v88internal17CodeStubAssembler26BuildFastFixedArrayForEachERKNS0_10ZoneVectorIPNS0_8compiler21CodeAssemblerVariableEEEPNS3_4NodeENS0_12ElementsKindESA_SA_RKNSt3__18functionIFvSA_SA_EEENS1_13ParameterModeENS1_16ForEachDirectionE
Boostnote:_ZN2v88internal17CodeStubAssembler26IsNotArraySpeciesProtectorENS0_8compiler11SloppyTNodeINS0_6ObjectEEE
Boostnote:_ZN2v88internal17CodeStubAssembler26IsNotClearedWeakHeapObjectENS0_8compiler5TNodeINS0_11MaybeObjectEEE
Boostnote:_ZN2v88internal17CodeStubAssembler26IsNotPreParsedScopeDataMapENS0_8compiler11SloppyTNodeINS0_6ObjectEEE
Boostnote:_ZN2v88internal17CodeStubAssembler26IsNotSharedFunctionInfoMapENS0_8compiler11SloppyTNodeINS0_6ObjectEEE
Boostnote:_ZN2v88internal17CodeStubAssembler26LoadJSReceiverIdentityHashENS0_8compiler11SloppyTNodeINS0_6ObjectEEEPNS2_18CodeAssemblerLabelE
Boostnote:_ZN2v88internal17CodeStubAssembler26LoadMapInstanceSizeInWordsENS0_8compiler11SloppyTNodeINS0_3MapEEE
Boostnote:_ZN2v88internal17CodeStubAssembler26LoadPropertyFromFastObjectEPNS0_8compiler4NodeES4_NS2_5TNodeINS0_15DescriptorArrayEEES4_PNS2_21CodeAssemblerVariableES9_
Boostnote:_ZN2v88internal17CodeStubAssembler26LoadPropertyFromFastObjectEPNS0_8compiler4NodeES4_NS2_5TNodeINS0_15DescriptorArrayEEES4_S4_PNS2_21CodeAssemblerVariableE
Boostnote:_ZN2v88internal17CodeStubAssembler26LoadWeakCellValueUncheckedENS0_8compiler11SloppyTNodeINS0_10HeapObjectEEE
Boostnote:_ZN2v88internal17CodeStubAssembler26NonNumberToNumberOrNumericEPNS0_8compiler4NodeES4_NS0_6Object10ConversionENS1_14BigIntHandlingE
Boostnote:_ZN2v88internal17CodeStubAssembler26TransitionArrayMapConstantEv
Boostnote:_ZN2v88internal17CodeStubAssembler27AllocateHeapNumberWithValueENS0_8compiler11SloppyTNodeINS0_8Float64TEEE
Boostnote:_ZN2v88internal17CodeStubAssembler27AllocateSlicedOneByteStringENS0_8compiler5TNodeINS0_3SmiEEENS3_INS0_6StringEEES5_
Boostnote:_ZN2v88internal17CodeStubAssembler27AllocateSlicedTwoByteStringENS0_8compiler5TNodeINS0_3SmiEEENS3_INS0_6StringEEES5_
Boostnote:_ZN2v88internal17CodeStubAssembler27CheckForAssociatedProtectorEPNS0_8compiler4NodeEPNS2_18CodeAssemblerLabelE
Boostnote:_ZN2v88internal17CodeStubAssembler27FixedDoubleArrayMapConstantEv
Boostnote:_ZN2v88internal17CodeStubAssembler27InitializeAllocationMementoEPNS0_8compiler4NodeES4_S4_
Boostnote:_ZN2v88internal17CodeStubAssembler27IntPtrRoundUpToPowerOfTwo32ENS0_8compiler5TNodeINS0_7IntPtrTEEE
Boostnote:_ZN2v88internal17CodeStubAssembler27IsFixedArrayWithKindOrEmptyENS0_8compiler11SloppyTNodeINS0_10HeapObjectEEENS0_12ElementsKindE
Boostnote:_ZN2v88internal17CodeStubAssembler27IsJSGlobalProxyInstanceTypeENS0_8compiler11SloppyTNodeINS0_6Int32TEEE
Boostnote:_ZN2v88internal17CodeStubAssembler27IsNotWeakFixedArraySubclassENS0_8compiler11SloppyTNodeINS0_10HeapObjectEEE
Boostnote:_ZN2v88internal17CodeStubAssembler27IsOneByteStringInstanceTypeENS0_8compiler11SloppyTNodeINS0_6Int32TEEE
Boostnote:_ZN2v88internal17CodeStubAssembler27LoadArrayBufferBackingStoreENS0_8compiler5TNodeINS0_13JSArrayBufferEEE
Boostnote:_ZN2v88internal17CodeStubAssembler27LoadFixedDoubleArrayElementENS0_8compiler11SloppyTNodeINS0_16FixedDoubleArrayEEEPNS2_4NodeENS0_11MachineTypeEiNS1_13ParameterModeEPNS2_18CodeAssemblerLabelE
Boostnote:_ZN2v88internal17CodeStubAssembler27ManyClosuresCellMapConstantEv
Boostnote:_ZN2v88internal17CodeStubAssembler27StoreMutableHeapNumberValueENS0_8compiler11SloppyTNodeINS0_17MutableHeapNumberEEENS3_INS0_8Float64TEEE
Boostnote:_ZN2v88internal17CodeStubAssembler27TaggedToNumericWithFeedbackEPNS0_8compiler4NodeES4_PNS2_18CodeAssemblerLabelEPNS2_21CodeAssemblerVariableES8_
Boostnote:_ZN2v88internal17CodeStubAssembler28AllocAndCopyStringCharactersEPNS0_8compiler4NodeES4_NS2_5TNodeINS0_7IntPtrTEEENS5_INS0_3SmiEEE
Boostnote:_ZN2v88internal17CodeStubAssembler28AllocateUninitializedJSArrayEPNS0_8compiler4NodeES4_S4_S4_
Boostnote:_ZN2v88internal17CodeStubAssembler28CalculateNewElementsCapacityEPNS0_8compiler4NodeENS1_13ParameterModeE
Boostnote:_ZN2v88internal17CodeStubAssembler28IsAllocationSiteInstanceTypeENS0_8compiler11SloppyTNodeINS0_6Int32TEEE
Boostnote:_ZN2v88internal17CodeStubAssembler28IsEmptySlowElementDictionaryENS0_8compiler11SloppyTNodeINS0_6ObjectEEE
Boostnote:_ZN2v88internal17CodeStubAssembler28IsExternalStringInstanceTypeENS0_8compiler11SloppyTNodeINS0_6Int32TEEE
Boostnote:_ZN2v88internal17CodeStubAssembler28IsIndirectStringInstanceTypeENS0_8compiler11SloppyTNodeINS0_6Int32TEEE
Boostnote:_ZN2v88internal17CodeStubAssembler28IsNotEmptyPropertyDictionaryENS0_8compiler11SloppyTNodeINS0_6ObjectEEE
Boostnote:_ZN2v88internal17CodeStubAssembler28IsNotFunctionTemplateInfoMapENS0_8compiler11SloppyTNodeINS0_6ObjectEEE
Boostnote:_ZN2v88internal17CodeStubAssembler28IsNotPromiseSpeciesProtectorENS0_8compiler11SloppyTNodeINS0_6ObjectEEE
Boostnote:_ZN2v88internal17CodeStubAssembler28IsTypedArraySpeciesProtectorENS0_8compiler11SloppyTNodeINS0_6ObjectEEE
Boostnote:_ZN2v88internal17CodeStubAssembler28MutableHeapNumberMapConstantEv
Boostnote:_ZN2v88internal17CodeStubAssembler28PossiblyGrowElementsCapacityENS1_13ParameterModeENS0_12ElementsKindEPNS0_8compiler4NodeES6_PNS4_21CodeAssemblerVariableES6_PNS4_18CodeAssemblerLabelE
Boostnote:_ZN2v88internal17CodeStubAssembler28StoreFixedDoubleArrayElementEPNS0_8compiler4NodeES4_S4_NS1_13ParameterModeE
Boostnote:_ZN2v88internal17CodeStubAssembler28TaggedDoesntHaveInstanceTypeENS0_8compiler11SloppyTNodeINS0_10HeapObjectEEENS0_12InstanceTypeE
Boostnote:_ZN2v88internal17CodeStubAssembler29ArraySpeciesProtectorConstantEv
Boostnote:_ZN2v88internal17CodeStubAssembler29EmitBigTypedArrayElementStoreENS0_8compiler5TNodeINS0_12JSTypedArrayEEENS3_INS0_19FixedTypedArrayBaseEEENS3_INS0_7IntPtrTEEENS3_INS0_6ObjectEEENS3_INS0_7ContextEEEPNS2_18CodeAssemblerLabelE
Boostnote:_ZN2v88internal17CodeStubAssembler29EmitBigTypedArrayElementStoreENS0_8compiler5TNodeINS0_19FixedTypedArrayBaseEEENS3_INS0_7RawPtrTEEENS3_INS0_7IntPtrTEEENS3_INS0_6BigIntEEE
Boostnote:_ZN2v88internal17CodeStubAssembler29InitializePropertyArrayLengthEPNS0_8compiler4NodeES4_NS1_13ParameterModeE
Boostnote:_ZN2v88internal17CodeStubAssembler29IsFastSmiOrTaggedElementsKindEPNS0_8compiler4NodeE
Boostnote:_ZN2v88internal17CodeStubAssembler29IsSpecialReceiverInstanceTypeENS0_8compiler5TNodeINS0_6Int32TEEE
Boostnote:_ZN2v88internal17CodeStubAssembler29LoadElementAndPrepareForStoreEPNS0_8compiler4NodeES4_NS0_12ElementsKindES5_PNS2_18CodeAssemblerLabelE
Boostnote:_ZN2v88internal17CodeStubAssembler29PreParsedScopeDataMapConstantEv
Boostnote:_ZN2v88internal17CodeStubAssembler29SharedFunctionInfoMapConstantEv
Boostnote:_ZN2v88internal17CodeStubAssembler29StoreObjectByteNoWriteBarrierENS0_8compiler5TNodeINS0_10HeapObjectEEEiNS3_INS0_7Word32TEEE
Boostnote:_ZN2v88internal17CodeStubAssembler30BranchIfCanDerefIndirectStringEPNS0_8compiler4NodeES4_PNS2_18CodeAssemblerLabelES6_
Boostnote:_ZN2v88internal17CodeStubAssembler30FillPropertyArrayWithUndefinedEPNS0_8compiler4NodeES4_S4_NS1_13ParameterModeE
Boostnote:_ZN2v88internal17CodeStubAssembler30GotoIfNumberGreaterThanOrEqualEPNS0_8compiler4NodeES4_PNS2_18CodeAssemblerLabelE
Boostnote:_ZN2v88internal17CodeStubAssembler30IsFunctionWithPrototypeSlotMapENS0_8compiler11SloppyTNodeINS0_3MapEEE
Boostnote:_ZN2v88internal17CodeStubAssembler30IsNumberNonNegativeSafeIntegerENS0_8compiler5TNodeINS0_6UnionTINS0_3SmiENS0_10HeapNumberEEEEE
Boostnote:_ZN2v88internal17CodeStubAssembler30IsPrototypeTypedArrayPrototypeENS0_8compiler11SloppyTNodeINS0_7ContextEEENS3_INS0_3MapEEE
Boostnote:_ZN2v88internal17CodeStubAssembler30IsSequentialStringInstanceTypeENS0_8compiler11SloppyTNodeINS0_6Int32TEEE
Boostnote:_ZN2v88internal17CodeStubAssembler30LoadPropertyFromNameDictionaryEPNS0_8compiler4NodeES4_PNS2_21CodeAssemblerVariableES6_
Boostnote:_ZN2v88internal17CodeStubAssembler30StoreObjectFieldNoWriteBarrierEPNS0_8compiler4NodeES4_S4_NS0_21MachineRepresentationE
Boostnote:_ZN2v88internal17CodeStubAssembler30StoreObjectFieldNoWriteBarrierEPNS0_8compiler4NodeEiS4_NS0_21MachineRepresentationE
Boostnote:_ZN2v88internal17CodeStubAssembler30TryGetIntPtrOrSmiConstantValueEPNS0_8compiler4NodeEPiNS1_13ParameterModeE
Boostnote:_ZN2v88internal17CodeStubAssembler31EmptyPropertyDictionaryConstantEv
Boostnote:_ZN2v88internal17CodeStubAssembler31FunctionTemplateInfoMapConstantEv
Boostnote:_ZN2v88internal17CodeStubAssembler31IsNotEmptySlowElementDictionaryENS0_8compiler11SloppyTNodeINS0_6ObjectEEE
Boostnote:_ZN2v88internal17CodeStubAssembler31IsNotTypedArraySpeciesProtectorENS0_8compiler11SloppyTNodeINS0_6ObjectEEE
Boostnote:_ZN2v88internal17CodeStubAssembler31LoadAndUntagToWord32ObjectFieldEPNS0_8compiler4NodeEi
Boostnote:_ZN2v88internal17CodeStubAssembler31LoadFixedTypedArrayBackingStoreENS0_8compiler5TNodeINS0_19FixedTypedArrayBaseEEE
Boostnote:_ZN2v88internal17CodeStubAssembler31LoadMapConstructorFunctionIndexENS0_8compiler11SloppyTNodeINS0_3MapEEE
Boostnote:_ZN2v88internal17CodeStubAssembler31PromiseSpeciesProtectorConstantEv
Boostnote:_ZN2v88internal17CodeStubAssembler31TruncateHeapNumberValueToWord32EPNS0_8compiler4NodeE
Boostnote:_ZN2v88internal17CodeStubAssembler31TryLookupPropertyInSimpleObjectENS0_8compiler5TNodeINS0_8JSObjectEEENS3_INS0_3MapEEENS3_INS0_4NameEEEPNS2_18CodeAssemblerLabelESB_PNS2_26TypedCodeAssemblerVariableINS0_10HeapObjectEEEPNSC_INS0_7IntPtrTEEESB_
Boostnote:_ZN2v88internal17CodeStubAssembler32AllocateJSIteratorResultForEntryEPNS0_8compiler4NodeES4_S4_
Boostnote:_ZN2v88internal17CodeStubAssembler32BasicLoadNumberDictionaryElementENS0_8compiler5TNodeINS0_16NumberDictionaryEEENS3_INS0_7IntPtrTEEEPNS2_18CodeAssemblerLabelES9_
Boostnote:_ZN2v88internal17CodeStubAssembler32BranchIfPrototypesHaveNoElementsEPNS0_8compiler4NodeEPNS2_18CodeAssemblerLabelES6_
Boostnote:_ZN2v88internal17CodeStubAssembler32ChangeNonnegativeNumberToUintPtrENS0_8compiler5TNodeINS0_6UnionTINS0_3SmiENS0_10HeapNumberEEEEE
Boostnote:_ZN2v88internal17CodeStubAssembler32IsArrayBoilerplateDescriptionMapENS0_8compiler11SloppyTNodeINS0_6ObjectEEE
Boostnote:_ZN2v88internal17CodeStubAssembler32IsNoElementsProtectorCellInvalidEv
Boostnote:_ZN2v88internal17CodeStubAssembler32IsPrototypeInitialArrayPrototypeENS0_8compiler11SloppyTNodeINS0_7ContextEEENS3_INS0_3MapEEE
Boostnote:_ZN2v88internal17CodeStubAssembler32LoadAndUntagFixedArrayBaseLengthENS0_8compiler11SloppyTNodeINS0_14FixedArrayBaseEEE
Boostnote:_ZN2v88internal17CodeStubAssembler32LoadAndUntagToWord32ArrayElementENS0_8compiler11SloppyTNodeINS0_10HeapObjectEEEiPNS2_4NodeEiNS1_13ParameterModeE
Boostnote:_ZN2v88internal17CodeStubAssembler32LoadAndUntagWeakFixedArrayLengthENS0_8compiler11SloppyTNodeINS0_14WeakFixedArrayEEE
Boostnote:_ZN2v88internal17CodeStubAssembler32LoadPropertyFromGlobalDictionaryEPNS0_8compiler4NodeES4_PNS2_21CodeAssemblerVariableES6_PNS2_18CodeAssemblerLabelE
Boostnote:_ZN2v88internal17CodeStubAssembler32PrepareValueForWriteToTypedArrayENS0_8compiler5TNodeINS0_6ObjectEEENS0_12ElementsKindENS3_INS0_7ContextEEE
Boostnote:_ZN2v88internal17CodeStubAssembler33AllocateFunctionWithMapAndContextEPNS0_8compiler4NodeES4_S4_
Boostnote:_ZN2v88internal17CodeStubAssembler33BasicStoreNumberDictionaryElementENS0_8compiler5TNodeINS0_16NumberDictionaryEEENS3_INS0_7IntPtrTEEENS3_INS0_6ObjectEEEPNS2_18CodeAssemblerLabelESB_SB_
Boostnote:_ZN2v88internal17CodeStubAssembler33ConvertFixedArrayBaseToFixedArrayENS0_8compiler5TNodeINS0_14FixedArrayBaseEEEPNS2_18CodeAssemblerLabelE
Boostnote:_ZN2v88internal17CodeStubAssembler33FixedArraySizeDoesntFitInNewSpaceEPNS0_8compiler4NodeEiNS1_13ParameterModeE
Boostnote:_ZN2v88internal17CodeStubAssembler33IsPromiseThenProtectorCellInvalidEv
Boostnote:_ZN2v88internal17CodeStubAssembler33IsShortExternalStringInstanceTypeENS0_8compiler11SloppyTNodeINS0_6Int32TEEE
Boostnote:_ZN2v88internal17CodeStubAssembler33StoreContextElementNoWriteBarrierENS0_8compiler11SloppyTNodeINS0_7ContextEEEiNS3_INS0_6ObjectEEE
Boostnote:_ZN2v88internal17CodeStubAssembler34AllocateMutableHeapNumberWithValueENS0_8compiler11SloppyTNodeINS0_8Float64TEEE
Boostnote:_ZN2v88internal17CodeStubAssembler34AllocateNameDictionaryWithCapacityENS0_8compiler5TNodeINS0_7IntPtrTEEE
Boostnote:_ZN2v88internal17CodeStubAssembler34BranchIfNumberRelationalComparisonENS0_9OperationEPNS0_8compiler4NodeES5_PNS3_18CodeAssemblerLabelES7_
Boostnote:_ZN2v88internal17CodeStubAssembler34EmptySlowElementDictionaryConstantEv
Boostnote:_ZN2v88internal17CodeStubAssembler34IsAllocationSiteWithoutWeakNextMapENS0_8compiler11SloppyTNodeINS0_6ObjectEEE
Boostnote:_ZN2v88internal17CodeStubAssembler34IsArraySpeciesProtectorCellInvalidEv
Boostnote:_ZN2v88internal17CodeStubAssembler34IsFastJSArrayWithNoCustomIterationENS0_8compiler5TNodeINS0_6ObjectEEENS3_INS0_7ContextEEES7_
Boostnote:_ZN2v88internal17CodeStubAssembler34LoadFixedTypedArrayElementAsTaggedEPNS0_8compiler4NodeES4_NS0_12ElementsKindENS1_13ParameterModeE
Boostnote:_ZN2v88internal17CodeStubAssembler34StoreWeakReferenceInFeedbackVectorENS0_8compiler11SloppyTNodeINS0_14FeedbackVectorEEENS3_INS0_7IntPtrTEEENS2_5TNodeINS0_10HeapObjectEEE
Boostnote:_ZN2v88internal17CodeStubAssembler34TaggedToWord32OrBigIntWithFeedbackEPNS0_8compiler4NodeES4_PNS2_18CodeAssemblerLabelEPNS2_21CodeAssemblerVariableES6_S8_S8_
Boostnote:_ZN2v88internal17CodeStubAssembler34TypedArraySpeciesProtectorConstantEv
Boostnote:_ZN2v88internal17CodeStubAssembler35IsNotArrayBoilerplateDescriptionMapENS0_8compiler11SloppyTNodeINS0_6ObjectEEE
Boostnote:_ZN2v88internal17CodeStubAssembler35LoadSharedFunctionInfoBytecodeArrayEPNS0_8compiler4NodeE
Boostnote:_ZN2v88internal17CodeStubAssembler36CreateAllocationSiteInFeedbackVectorENS0_8compiler11SloppyTNodeINS0_14FeedbackVectorEEENS2_5TNodeINS0_3SmiEEE
Boostnote:_ZN2v88internal17CodeStubAssembler36IsCustomElementsReceiverInstanceTypeENS0_8compiler5TNodeINS0_6Int32TEEE
Boostnote:_ZN2v88internal17CodeStubAssembler36IsPromiseResolveProtectorCellInvalidEv
Boostnote:_ZN2v88internal17CodeStubAssembler36IsPromiseSpeciesProtectorCellInvalidEv
Boostnote:_ZN2v88internal17CodeStubAssembler37InitializeJSObjectBodyNoSlackTrackingEPNS0_8compiler4NodeES4_S4_i
Boostnote:_ZN2v88internal17CodeStubAssembler37IsNotAllocationSiteWithoutWeakNextMapENS0_8compiler11SloppyTNodeINS0_6ObjectEEE
Boostnote:_ZN2v88internal17CodeStubAssembler37IsUncompiledDataWithPreParsedScopeMapENS0_8compiler11SloppyTNodeINS0_6ObjectEEE
Boostnote:_ZN2v88internal17CodeStubAssembler37LoadAndUntagToWord32FixedArrayElementENS0_8compiler11SloppyTNodeINS0_10HeapObjectEEEPNS2_4NodeEiNS1_13ParameterModeE
Boostnote:_ZN2v88internal17CodeStubAssembler37LoadFixedBigInt64ArrayElementAsTaggedEPNS0_8compiler4NodeES4_
Boostnote:_ZN2v88internal17CodeStubAssembler37LoadMapInobjectPropertiesStartInWordsENS0_8compiler11SloppyTNodeINS0_3MapEEE
Boostnote:_ZN2v88internal17CodeStubAssembler37StoreFixedTypedArrayElementFromTaggedENS0_8compiler5TNodeINS0_7ContextEEENS3_INS0_19FixedTypedArrayBaseEEENS3_INS0_6ObjectEEES9_NS0_12ElementsKindENS1_13ParameterModeE
Boostnote:_ZN2v88internal17CodeStubAssembler38ArrayBoilerplateDescriptionMapConstantEv
Boostnote:_ZN2v88internal17CodeStubAssembler38LoadFixedBigUint64ArrayElementAsTaggedEPNS0_8compiler4NodeES4_
Boostnote:_ZN2v88internal17CodeStubAssembler39GotoIfFixedArraySizeDoesntFitInNewSpaceEPNS0_8compiler4NodeEPNS2_18CodeAssemblerLabelEiNS1_13ParameterModeE
Boostnote:_ZN2v88internal17CodeStubAssembler39InitializeJSObjectBodyWithSlackTrackingEPNS0_8compiler4NodeES4_S4_
Boostnote:_ZN2v88internal17CodeStubAssembler39IsTypedArraySpeciesProtectorCellInvalidEv
Boostnote:_ZN2v88internal17CodeStubAssembler3UseEPNS0_8compiler18CodeAssemblerLabelE
Boostnote:_ZN2v88internal17CodeStubAssembler40AllocateUninitializedJSArrayWithElementsENS0_12ElementsKindEPNS0_8compiler4NodeES5_S5_S5_NS1_13ParameterModeE
Boostnote:_ZN2v88internal17CodeStubAssembler40AllocationSiteWithoutWeakNextMapConstantEv
Boostnote:_ZN2v88internal17CodeStubAssembler40IsNotUncompiledDataWithPreParsedScopeMapENS0_8compiler11SloppyTNodeINS0_6ObjectEEE
Boostnote:_ZN2v88internal17CodeStubAssembler40IsUncompiledDataWithoutPreParsedScopeMapENS0_8compiler11SloppyTNodeINS0_6ObjectEEE
Boostnote:_ZN2v88internal17CodeStubAssembler43AllocateUninitializedJSArrayWithoutElementsEPNS0_8compiler4NodeES4_S4_
Boostnote:_ZN2v88internal17CodeStubAssembler43IsNotUncompiledDataWithoutPreParsedScopeMapENS0_8compiler11SloppyTNodeINS0_6ObjectEEE
Boostnote:_ZN2v88internal17CodeStubAssembler43IsPromiseHookEnabledOrHasAsyncEventDelegateEv
Boostnote:_ZN2v88internal17CodeStubAssembler43UncompiledDataWithPreParsedScopeMapConstantEv
Boostnote:_ZN2v88internal17CodeStubAssembler46UncompiledDataWithoutPreParsedScopeMapConstantEv
Boostnote:_ZN2v88internal17CodeStubAssembler4BindEPNS0_8compiler18CodeAssemblerLabelE
Boostnote:_ZN2v88internal17CodeStubAssembler5CheckERKNSt3__18functionIFPNS0_8compiler4NodeEvEEEPKcSC_iS6_SC_S6_SC_S6_SC_S6_SC_S6_SC_
Boostnote:_ZN2v88internal17CodeStubAssembler5CheckERKNSt3__18functionIFvPNS0_8compiler18CodeAssemblerLabelES6_EEEPKcSC_iPNS4_4NodeESC_SE_SC_SE_SC_SE_SC_SE_SC_
Boostnote:_ZN2v88internal17CodeStubAssembler5EqualEPNS0_8compiler4NodeES4_S4_PNS2_21CodeAssemblerVariableE
Boostnote:_ZN2v88internal17CodeStubAssembler5IsMapENS0_8compiler11SloppyTNodeINS0_10HeapObjectEEE
Boostnote:_ZN2v88internal17CodeStubAssembler5IsNanENS0_8compiler11SloppyTNodeINS0_6ObjectEEE
Boostnote:_ZN2v88internal17CodeStubAssembler5PrintEPKc
Boostnote:_ZN2v88internal17CodeStubAssembler5PrintEPKcPNS0_8compiler4NodeE
Boostnote:_ZN2v88internal17CodeStubAssembler6AssertERKNSt3__18functionIFPNS0_8compiler4NodeEvEEEPKcSC_iS6_SC_S6_SC_S6_SC_S6_SC_S6_SC_
Boostnote:_ZN2v88internal17CodeStubAssembler6AssertERKNSt3__18functionIFvPNS0_8compiler18CodeAssemblerLabelES6_EEEPKcSC_iPNS4_4NodeESC_SE_SC_SE_SC_SE_SC_SE_SC_
Boostnote:_ZN2v88internal17CodeStubAssembler6IsCellENS0_8compiler11SloppyTNodeINS0_10HeapObjectEEE
Boostnote:_ZN2v88internal17CodeStubAssembler6IsCodeENS0_8compiler11SloppyTNodeINS0_10HeapObjectEEE
Boostnote:_ZN2v88internal17CodeStubAssembler6IsNameENS0_8compiler11SloppyTNodeINS0_10HeapObjectEEE
Boostnote:_ZN2v88internal17CodeStubAssembler6IsNullENS0_8compiler11SloppyTNodeINS0_6ObjectEEE
Boostnote:_ZN2v88internal17CodeStubAssembler6IsTrueENS0_8compiler11SloppyTNodeINS0_6ObjectEEE
Boostnote:_ZN2v88internal17CodeStubAssembler6SmiMaxENS0_8compiler5TNodeINS0_3SmiEEES5_
Boostnote:_ZN2v88internal17CodeStubAssembler6SmiMinENS0_8compiler5TNodeINS0_3SmiEEES5_
Boostnote:_ZN2v88internal17CodeStubAssembler6SmiModENS0_8compiler5TNodeINS0_3SmiEEES5_
Boostnote:_ZN2v88internal17CodeStubAssembler6SmiMulENS0_8compiler5TNodeINS0_3SmiEEES5_
Boostnote:_ZN2v88internal17CodeStubAssembler6SmiTagENS0_8compiler11SloppyTNodeINS0_7IntPtrTEEE
Boostnote:_ZN2v88internal17CodeStubAssembler6ToNameENS0_8compiler11SloppyTNodeINS0_7ContextEEENS3_INS0_6ObjectEEE
Boostnote:_ZN2v88internal17CodeStubAssembler6TypeofEPNS0_8compiler4NodeE
Boostnote:_ZN2v88internal17CodeStubAssembler7IsFalseENS0_8compiler11SloppyTNodeINS0_6ObjectEEE
Boostnote:_ZN2v88internal17CodeStubAssembler7LoadMapENS0_8compiler11SloppyTNodeINS0_10HeapObjectEEE
Boostnote:_ZN2v88internal17CodeStubAssembler8AllocateEPNS0_8compiler4NodeENS_4base5FlagsINS1_14AllocationFlagEiEE
Boostnote:_ZN2v88internal17CodeStubAssembler8AllocateEiNS_4base5FlagsINS1_14AllocationFlagEiEE
Boostnote:_ZN2v88internal17CodeStubAssembler8HashSeedEv
Boostnote:_ZN2v88internal17CodeStubAssembler8IsBigIntENS0_8compiler11SloppyTNodeINS0_10HeapObjectEEE
Boostnote:_ZN2v88internal17CodeStubAssembler8IsNotNanENS0_8compiler11SloppyTNodeINS0_6ObjectEEE
Boostnote:_ZN2v88internal17CodeStubAssembler8IsNumberENS0_8compiler11SloppyTNodeINS0_6ObjectEEE
Boostnote:_ZN2v88internal17CodeStubAssembler8IsStringENS0_8compiler11SloppyTNodeINS0_10HeapObjectEEE
Boostnote:_ZN2v88internal17CodeStubAssembler8IsSymbolENS0_8compiler11SloppyTNodeINS0_10HeapObjectEEE
Boostnote:_ZN2v88internal17CodeStubAssembler8MakeWeakENS0_8compiler5TNodeINS0_10HeapObjectEEE
Boostnote:_ZN2v88internal17CodeStubAssembler8SmiUntagENS0_8compiler11SloppyTNodeINS0_3SmiEEE
Boostnote:_ZN2v88internal17CodeStubAssembler8StoreMapEPNS0_8compiler4NodeES4_
Boostnote:_ZN2v88internal17CodeStubAssembler8ToBigIntENS0_8compiler11SloppyTNodeINS0_7ContextEEENS3_INS0_6ObjectEEE
Boostnote:_ZN2v88internal17CodeStubAssembler8ToNumberENS0_8compiler11SloppyTNodeINS0_7ContextEEENS3_INS0_6ObjectEEENS1_14BigIntHandlingE
Boostnote:_ZN2v88internal17CodeStubAssembler8ToObjectENS0_8compiler11SloppyTNodeINS0_7ContextEEENS3_INS0_6ObjectEEE
Boostnote:_ZN2v88internal17CodeStubAssembler8ToStringENS0_8compiler11SloppyTNodeINS0_7ContextEEENS3_INS0_6ObjectEEE
Boostnote:_ZN2v88internal17CodeStubAssembler8ToUint32ENS0_8compiler11SloppyTNodeINS0_7ContextEEENS3_INS0_6ObjectEEE
Boostnote:_ZN2v88internal17CodeStubAssembler9BitwiseOpEPNS0_8compiler4NodeES4_NS0_9OperationE
Boostnote:_ZN2v88internal17CodeStubAssembler9GetMethodEPNS0_8compiler4NodeES4_NS0_6HandleINS0_4NameEEEPNS2_18CodeAssemblerLabelE
Boostnote:_ZN2v88internal17CodeStubAssembler9IncrementEPNS0_8compiler21CodeAssemblerVariableEiNS1_13ParameterModeE
Boostnote:_ZN2v88internal17CodeStubAssembler9IntPtrMaxENS0_8compiler11SloppyTNodeINS0_7IntPtrTEEES5_
Boostnote:_ZN2v88internal17CodeStubAssembler9IntPtrMinENS0_8compiler11SloppyTNodeINS0_7IntPtrTEEES5_
Boostnote:_ZN2v88internal17CodeStubAssembler9IsBooleanENS0_8compiler11SloppyTNodeINS0_10HeapObjectEEE
Boostnote:_ZN2v88internal17CodeStubAssembler9IsCodeMapENS0_8compiler11SloppyTNodeINS0_6ObjectEEE
Boostnote:_ZN2v88internal17CodeStubAssembler9IsContextENS0_8compiler11SloppyTNodeINS0_10HeapObjectEEE
Boostnote:_ZN2v88internal17CodeStubAssembler9IsIntegerENS0_8compiler5TNodeINS0_10HeapNumberEEE
Boostnote:_ZN2v88internal17CodeStubAssembler9IsIntegerENS0_8compiler5TNodeINS0_6ObjectEEE
Boostnote:_ZN2v88internal17CodeStubAssembler9IsJSArrayENS0_8compiler11SloppyTNodeINS0_10HeapObjectEEE
Boostnote:_ZN2v88internal17CodeStubAssembler9IsJSProxyENS0_8compiler11SloppyTNodeINS0_10HeapObjectEEE
Boostnote:_ZN2v88internal17CodeStubAssembler9IsJSValueENS0_8compiler11SloppyTNodeINS0_10HeapObjectEEE
Boostnote:_ZN2v88internal17CodeStubAssembler9IsMetaMapENS0_8compiler11SloppyTNodeINS0_6ObjectEEE
Boostnote:_ZN2v88internal17CodeStubAssembler9IsNotNullENS0_8compiler11SloppyTNodeINS0_6ObjectEEE
Boostnote:_ZN2v88internal17CodeStubAssembler9IsNotTrueENS0_8compiler11SloppyTNodeINS0_6ObjectEEE
Boostnote:_ZN2v88internal17CodeStubAssembler9IsNumericENS0_8compiler11SloppyTNodeINS0_6ObjectEEE
Boostnote:_ZN2v88internal17CodeStubAssembler9IsTheHoleENS0_8compiler11SloppyTNodeINS0_6ObjectEEE
Boostnote:_ZN2v88internal17CodeStubAssembler9NumberAddENS0_8compiler11SloppyTNodeINS0_6UnionTINS0_3SmiENS0_10HeapNumberEEEEES8_
Boostnote:_ZN2v88internal17CodeStubAssembler9NumberDecENS0_8compiler11SloppyTNodeINS0_6UnionTINS0_3SmiENS0_10HeapNumberEEEEE
Boostnote:_ZN2v88internal17CodeStubAssembler9NumberIncENS0_8compiler11SloppyTNodeINS0_6UnionTINS0_3SmiENS0_10HeapNumberEEEEE
Boostnote:_ZN2v88internal17CodeStubAssembler9NumberMaxENS0_8compiler11SloppyTNodeINS0_6ObjectEEES5_
Boostnote:_ZN2v88internal17CodeStubAssembler9NumberMinENS0_8compiler11SloppyTNodeINS0_6ObjectEEES5_
Boostnote:_ZN2v88internal17CodeStubAssembler9NumberSubENS0_8compiler11SloppyTNodeINS0_6UnionTINS0_3SmiENS0_10HeapNumberEEEEES8_
Boostnote:_ZN2v88internal17CodeStubAssembler9StringAddEPNS0_8compiler4NodeENS2_5TNodeINS0_6StringEEES7_NS_4base5FlagsINS1_14AllocationFlagEiEE
Boostnote:_ZN2v88internal17CodeStubAssembler9SubStringENS0_8compiler5TNodeINS0_6StringEEENS3_INS0_7IntPtrTEEES7_
Boostnote:_ZN2v88internal17CodeStubAssembler9ToIntegerENS0_8compiler11SloppyTNodeINS0_7ContextEEENS3_INS0_6ObjectEEENS1_23ToIntegerTruncationModeE
Boostnote:_ZN2v88internal17CodeStubAssembler9TrySmiAddENS0_8compiler5TNodeINS0_3SmiEEES5_PNS2_18CodeAssemblerLabelE
Boostnote:_ZN2v88internal17CodeStubAssembler9TrySmiDivENS0_8compiler5TNodeINS0_3SmiEEES5_PNS2_18CodeAssemblerLabelE
Boostnote:_ZN2v88internal17CodeStubAssembler9TrySmiSubENS0_8compiler5TNodeINS0_3SmiEEES5_PNS2_18CodeAssemblerLabelE
Boostnote:_ZN2v88internal17CodeStubAssembler9TryToNameEPNS0_8compiler4NodeEPNS2_18CodeAssemblerLabelEPNS2_21CodeAssemblerVariableES6_S8_S6_S6_
Boostnote:_ZN2v88internal17CodeStubAssemblerC1EPNS0_8compiler18CodeAssemblerStateE
Boostnote:_ZN2v88internal17CodeStubAssemblerC2EPNS0_8compiler18CodeAssemblerStateE
Boostnote:_ZN2v88internal17ExternalReference44runtime_function_table_address_for_unittestsEPNS0_7IsolateE
Boostnote:_ZN2v88internal17ExternalReference6CreateEm
Boostnote:_ZN2v88internal17FLAG_check_icacheE
Boostnote:_ZN2v88internal17FLAG_embedded_srcE
Boostnote:_ZN2v88internal17FLAG_enable_armv7E
Boostnote:_ZN2v88internal17FLAG_enable_armv8E
Boostnote:_ZN2v88internal17FLAG_enable_lzcntE
Boostnote:_ZN2v88internal17FLAG_enable_ssse3E
Boostnote:_ZN2v88internal17FLAG_enable_sudivE
Boostnote:_ZN2v88internal17FLAG_expose_gc_asE
Boostnote:_ZN2v88internal17FLAG_gc_fake_mmapE
Boostnote:_ZN2v88internal17FLAG_ignition_reoE
Boostnote:_ZN2v88internal17FLAG_js_argumentsE
Boostnote:_ZN2v88internal17FLAG_map_countersE
Boostnote:_ZN2v88internal17FLAG_startup_blobE
Boostnote:_ZN2v88internal17FLAG_thin_stringsE
Boostnote:_ZN2v88internal17FLAG_trace_gc_nvpE
Boostnote:_ZN2v88internal17FLAG_track_fieldsE
Boostnote:_ZN2v88internal17FLAG_turbo_escapeE
Boostnote:_ZN2v88internal17FLAG_turbo_filterE
Boostnote:_ZN2v88internal17FLAG_turbo_verifyE
Boostnote:_ZN2v88internal17FLAG_validate_asmE
Boostnote:_ZN2v88internal17FLAG_wasm_tier_upE
Boostnote:_ZN2v88internal17GCIdleTimeHandler13NothingOrDoneEd
Boostnote:_ZN2v88internal17GCIdleTimeHandler22kConservativeTimeRatioE
Boostnote:_ZN2v88internal17GCIdleTimeHandler23EstimateMarkingStepSizeEdd
Boostnote:_ZN2v88internal17GCIdleTimeHandler24kHighContextDisposalRateE
Boostnote:_ZN2v88internal17GCIdleTimeHandler34ShouldDoContextDisposalMarkCompactEidm
Boostnote:_ZN2v88internal17GCIdleTimeHandler34ShouldDoOverApproximateWeakClosureEd
Boostnote:_ZN2v88internal17GCIdleTimeHandler35ShouldDoFinalIncrementalMarkCompactEdmd
Boostnote:_ZN2v88internal17GCIdleTimeHandler39EstimateFinalIncrementalMarkCompactTimeEmd
Boostnote:_ZN2v88internal17GCIdleTimeHandler39kMaxFinalIncrementalMarkCompactTimeInMsE
Boostnote:_ZN2v88internal17GCIdleTimeHandler43kMinTimeForOverApproximatingWeakClosureInMsE
Boostnote:_ZN2v88internal17GCIdleTimeHandler7ComputeEdNS0_19GCIdleTimeHeapStateE
Boostnote:_ZN2v88internal17GCIdleTimeHandler7EnabledEv
Boostnote:_ZN2v88internal17GetRandomMmapAddrEv
Boostnote:_ZN2v88internal17MutableHeapNumber22MutableHeapNumberPrintERNSt3__113basic_ostreamIcNS2_11char_traitsIcEEEE
Boostnote:_ZN2v88internal17SetRandomMmapSeedEl
Boostnote:_ZN2v88internal18CompilerDispatcher10CanEnqueueENS0_6HandleINS0_18SharedFunctionInfoEEE
Boostnote:_ZN2v88internal18CompilerDispatcher10CanEnqueueEv
Boostnote:_ZN2v88internal18CompilerDispatcher10DoIdleWorkEd
Boostnote:_ZN2v88internal18CompilerDispatcher10WorkerTask11RunInternalEv
Boostnote:_ZN2v88internal18CompilerDispatcher10WorkerTaskC1EPNS0_7IsolateEPNS0_21CancelableTaskManagerEPS1_
Boostnote:_ZN2v88internal18CompilerDispatcher10WorkerTaskC2EPNS0_7IsolateEPNS0_21CancelableTaskManagerEPS1_
Boostnote:_ZN2v88internal18CompilerDispatcher10WorkerTaskD0Ev
Boostnote:_ZN2v88internal18CompilerDispatcher10WorkerTaskD1Ev
Boostnote:_ZN2v88internal18CompilerDispatcher10WorkerTaskD2Ev
Boostnote:_ZN2v88internal18CompilerDispatcher12FinishAllNowEv
Boostnote:_ZN2v88internal18CompilerDispatcher14EnqueueAndStepENS0_6HandleINS0_18SharedFunctionInfoEEE
Boostnote:_ZN2v88internal18CompilerDispatcher14EnqueueAndStepENSt3__110unique_ptrINS0_21CompilerDispatcherJobENS2_14default_deleteIS4_EEEE
Boostnote:_ZN2v88internal18CompilerDispatcher16DoBackgroundWorkEv
Boostnote:_ZN2v88internal18CompilerDispatcher16RemoveIfFinishedENSt3__120__map_const_iteratorINS2_21__tree_const_iteratorINS2_12__value_typeImNS2_10unique_ptrINS0_21CompilerDispatcherJobENS2_14default_deleteIS7_EEEEEEPNS2_11__tree_nodeISB_PvEElEEEE
Boostnote:_ZN2v88internal18CompilerDispatcher17AbortInactiveJobsEv
Boostnote:_ZN2v88internal18CompilerDispatcher17ScheduleAbortTaskEv
Boostnote:_ZN2v88internal18CompilerDispatcher24ScheduleIdleTaskIfNeededEv
Boostnote:_ZN2v88internal18CompilerDispatcher26MemoryPressureNotificationENS_19MemoryPressureLevelEb
Boostnote:_ZN2v88internal18CompilerDispatcher29ScheduleIdleTaskFromAnyThreadEv
Boostnote:_ZN2v88internal18CompilerDispatcher31ScheduleMoreWorkerTasksIfNeededEv
Boostnote:_ZN2v88internal18CompilerDispatcher31WaitForJobIfRunningOnBackgroundEPNS0_21CompilerDispatcherJobE
Boostnote:_ZN2v88internal18CompilerDispatcher34ConsiderJobForBackgroundProcessingEPNS0_21CompilerDispatcherJobE
Boostnote:_ZN2v88internal18CompilerDispatcher7EnqueueENS0_6HandleINS0_18SharedFunctionInfoEEE
Boostnote:_ZN2v88internal18CompilerDispatcher7EnqueueENSt3__110unique_ptrINS0_21CompilerDispatcherJobENS2_14default_deleteIS4_EEEE
Boostnote:_ZN2v88internal18CompilerDispatcher8AbortAllENS0_16BlockingBehaviorE
Boostnote:_ZN2v88internal18CompilerDispatcher8IdleTask11RunInternalEd
Boostnote:_ZN2v88internal18CompilerDispatcher8IdleTaskC1EPNS0_7IsolateEPNS0_21CancelableTaskManagerEPS1_
Boostnote:_ZN2v88internal18CompilerDispatcher8IdleTaskC2EPNS0_7IsolateEPNS0_21CancelableTaskManagerEPS1_
Boostnote:_ZN2v88internal18CompilerDispatcher8IdleTaskD0Ev
Boostnote:_ZN2v88internal18CompilerDispatcher8IdleTaskD1Ev
Boostnote:_ZN2v88internal18CompilerDispatcher8IdleTaskD2Ev
Boostnote:_ZN2v88internal18CompilerDispatcher9AbortTask11RunInternalEv
Boostnote:_ZN2v88internal18CompilerDispatcher9AbortTaskC1EPNS0_7IsolateEPNS0_21CancelableTaskManagerEPS1_
Boostnote:_ZN2v88internal18CompilerDispatcher9AbortTaskC2EPNS0_7IsolateEPNS0_21CancelableTaskManagerEPS1_
Boostnote:_ZN2v88internal18CompilerDispatcher9AbortTaskD0Ev
Boostnote:_ZN2v88internal18CompilerDispatcher9AbortTaskD1Ev
Boostnote:_ZN2v88internal18CompilerDispatcher9AbortTaskD2Ev
Boostnote:_ZN2v88internal18CompilerDispatcher9FinishNowENS0_6HandleINS0_18SharedFunctionInfoEEE
Boostnote:_ZN2v88internal18CompilerDispatcher9FinishNowEPNS0_21CompilerDispatcherJobE
Boostnote:_ZN2v88internal18CompilerDispatcher9InsertJobENSt3__110unique_ptrINS0_21CompilerDispatcherJobENS2_14default_deleteIS4_EEEE
Boostnote:_ZN2v88internal18CompilerDispatcher9RemoveJobENSt3__120__map_const_iteratorINS2_21__tree_const_iteratorINS2_12__value_typeImNS2_10unique_ptrINS0_21CompilerDispatcherJobENS2_14default_deleteIS7_EEEEEEPNS2_11__tree_nodeISB_PvEElEEEE
Boostnote:_ZN2v88internal18CompilerDispatcherC1EPNS0_7IsolateEPNS_8PlatformEm
Boostnote:_ZN2v88internal18CompilerDispatcherC2EPNS0_7IsolateEPNS_8PlatformEm
Boostnote:_ZN2v88internal18CompilerDispatcherD1Ev
Boostnote:_ZN2v88internal18CompilerDispatcherD2Ev
Boostnote:_ZN2v88internal18FLAG_code_commentsE
Boostnote:_ZN2v88internal18FLAG_dump_countersE
Boostnote:_ZN2v88internal18FLAG_enable_popcntE
Boostnote:_ZN2v88internal18FLAG_enable_sse4_1E
Boostnote:_ZN2v88internal18FLAG_never_compactE
Boostnote:_ZN2v88internal18FLAG_runtime_statsE
Boostnote:_ZN2v88internal18FLAG_stress_inlineE
Boostnote:_ZN2v88internal18FeedbackVectorSpec18AddTypeProfileSlotEv
Boostnote:_ZN2v88internal18FeedbackVectorSpec7AddSlotENS0_16FeedbackSlotKindE
Boostnote:_ZN2v88internal18HeapObjectIterator17AdvanceToNextPageEv
Boostnote:_ZN2v88internal18HeapObjectIteratorC1EPNS0_10PagedSpaceE
Boostnote:_ZN2v88internal18HeapObjectIteratorC1EPNS0_4PageE
Boostnote:_ZN2v88internal18HeapObjectIteratorC2EPNS0_10PagedSpaceE
Boostnote:_ZN2v88internal18HeapObjectIteratorC2EPNS0_4PageE
Boostnote:_ZN2v88internal18IncrementalMarking10DeactivateEv
Boostnote:_ZN2v88internal18IncrementalMarking10RetainMapsEv
Boostnote:_ZN2v88internal18IncrementalMarking12StartMarkingEv
Boostnote:_ZN2v88internal18IncrementalMarking12WasActivatedEv
Boostnote:_ZN2v88internal18IncrementalMarking13RevisitObjectEPNS0_10HeapObjectE
Boostnote:_ZN2v88internal18IncrementalMarking14CanBeActivatedEv
Boostnote:_ZN2v88internal18IncrementalMarking15FinalizeMarkingENS1_16CompletionActionE
Boostnote:_ZN2v88internal18IncrementalMarking15MarkingCompleteENS1_16CompletionActionE
Boostnote:_ZN2v88internal18IncrementalMarking15RecordWriteSlowEPNS0_10HeapObjectEPPNS0_19HeapObjectReferenceEPNS0_6ObjectE
Boostnote:_ZN2v88internal18IncrementalMarking15ShouldRetainMapEPNS0_3MapEi
Boostnote:_ZN2v88internal18IncrementalMarking16FinalizeSweepingEv
Boostnote:_ZN2v88internal18IncrementalMarking16MarkBlackAndPushEPNS0_10HeapObjectE
Boostnote:_ZN2v88internal18IncrementalMarking18NotifyLeftTrimmingEPNS0_10HeapObjectES3_
Boostnote:_ZN2v88internal18IncrementalMarking18WhiteToGreyAndPushEPNS0_10HeapObjectE
Boostnote:_ZN2v88internal18IncrementalMarking19RecordWriteFromCodeEPNS0_10HeapObjectEPPNS0_11MaybeObjectEPNS0_7IsolateE
Boostnote:_ZN2v88internal18IncrementalMarking20AbortBlackAllocationEv
Boostnote:_ZN2v88internal18IncrementalMarking20PauseBlackAllocationEv
Boostnote:_ZN2v88internal18IncrementalMarking20StartBlackAllocationEv
Boostnote:_ZN2v88internal18IncrementalMarking21FinalizeIncrementallyEv
Boostnote:_ZN2v88internal18IncrementalMarking21FinishBlackAllocationEv
Boostnote:_ZN2v88internal18IncrementalMarking22StepSizeToMakeProgressEv
Boostnote:_ZN2v88internal18IncrementalMarking23RecordWriteIntoCodeSlowEPNS0_4CodeEPNS0_9RelocInfoEPNS0_6ObjectE
Boostnote:_ZN2v88internal18IncrementalMarking25AdvanceIncrementalMarkingEdNS1_16CompletionActionENS0_10StepOriginE
Boostnote:_ZN2v88internal18IncrementalMarking27ProcessBlackAllocatedObjectEPNS0_10HeapObjectE
Boostnote:_ZN2v88internal18IncrementalMarking30UpdateMarkedBytesAfterScavengeEm
Boostnote:_ZN2v88internal18IncrementalMarking31ActivateIncrementalWriteBarrierEPNS0_10PagedSpaceE
Boostnote:_ZN2v88internal18IncrementalMarking31ActivateIncrementalWriteBarrierEPNS0_8NewSpaceE
Boostnote:_ZN2v88internal18IncrementalMarking31ActivateIncrementalWriteBarrierEv
Boostnote:_ZN2v88internal18IncrementalMarking31StepSizeToKeepUpWithAllocationsEv
Boostnote:_ZN2v88internal18IncrementalMarking33DeactivateIncrementalWriteBarrierEv
Boostnote:_ZN2v88internal18IncrementalMarking33UpdateWeakReferencesAfterScavengeEv
Boostnote:_ZN2v88internal18IncrementalMarking34UpdateMarkingWorklistAfterScavengeEv
Boostnote:_ZN2v88internal18IncrementalMarking37AdvanceIncrementalMarkingOnAllocationEv
Boostnote:_ZN2v88internal18IncrementalMarking41DeactivateIncrementalWriteBarrierForSpaceEPNS0_10PagedSpaceE
Boostnote:_ZN2v88internal18IncrementalMarking41DeactivateIncrementalWriteBarrierForSpaceEPNS0_8NewSpaceE
Boostnote:_ZN2v88internal18IncrementalMarking4StepEmNS1_16CompletionActionENS0_10StepOriginENS0_17WorklistToProcessE
Boostnote:_ZN2v88internal18IncrementalMarking4StopEv
Boostnote:_ZN2v88internal18IncrementalMarking5HurryEv
Boostnote:_ZN2v88internal18IncrementalMarking5StartENS0_23GarbageCollectionReasonE
Boostnote:_ZN2v88internal18IncrementalMarking8EpilogueEv
Boostnote:_ZN2v88internal18IncrementalMarking8FinalizeEv
Boostnote:_ZN2v88internal18IncrementalMarking8Observer4StepEimm
Boostnote:_ZN2v88internal18IncrementalMarking9MarkRootsEv
Boostnote:_ZN2v88internal18IncrementalMarkingC1EPNS0_4HeapEPNS0_20MarkCompactCollector15MarkingWorklistEPNS0_11WeakObjectsE
Boostnote:_ZN2v88internal18IncrementalMarkingC2EPNS0_4HeapEPNS0_20MarkCompactCollector15MarkingWorklistEPNS0_11WeakObjectsE
Boostnote:_ZN2v88internal18SharedFunctionInfo9SetScriptENS0_6HandleIS1_EENS2_INS0_6ObjectEEEib
Boostnote:_ZN2v88internal18WasmInstanceObject6moduleEv
Boostnote:_ZN2v88internal19AccountingAllocator10GetSegmentEm
Boostnote:_ZN2v88internal19AccountingAllocator11FreeSegmentEPNS0_7SegmentE
Boostnote:_ZN2v88internal19AccountingAllocator13ReturnSegmentEPNS0_7SegmentE
Boostnote:_ZN2v88internal19AccountingAllocator15AllocateSegmentEm
Boostnote:_ZN2v88internal19AccountingAllocator16AddSegmentToPoolEPNS0_7SegmentE
Boostnote:_ZN2v88internal19AccountingAllocator18GetSegmentFromPoolEm
Boostnote:_ZN2v88internal19AccountingAllocator20ConfigureSegmentPoolEm
Boostnote:_ZN2v88internal19AccountingAllocator26MemoryPressureNotificationENS_19MemoryPressureLevelE
Boostnote:_ZN2v88internal19AccountingAllocator9ClearPoolEv
Boostnote:_ZN2v88internal19AccountingAllocatorC1Ev
Boostnote:_ZN2v88internal19AccountingAllocatorC2Ev
Boostnote:_ZN2v88internal19AccountingAllocatorD0Ev
Boostnote:_ZN2v88internal19AccountingAllocatorD1Ev
Boostnote:_ZN2v88internal19AccountingAllocatorD2Ev
Boostnote:_ZN2v88internal19AllocationSpaceNameENS0_15AllocationSpaceE
Boostnote:_ZN2v88internal19DeferredHandleScope6DetachEv
Boostnote:_ZN2v88internal19DeferredHandleScopeC1EPNS0_7IsolateE
Boostnote:_ZN2v88internal19DeferredHandleScopeC2EPNS0_7IsolateE
Boostnote:_ZN2v88internal19DeferredHandleScopeD1Ev
Boostnote:_ZN2v88internal19DeferredHandleScopeD2Ev
Boostnote:_ZN2v88internal19FLAG_always_compactE
Boostnote:_ZN2v88internal19FLAG_enable_32dregsE
Boostnote:_ZN2v88internal19FLAG_harmony_bigintE
Boostnote:_ZN2v88internal19FLAG_harmony_localeE
Boostnote:_ZN2v88internal19FLAG_memory_reducerE
Boostnote:_ZN2v88internal19FLAG_page_promotionE
Boostnote:_ZN2v88internal19FLAG_print_bytecodeE
Boostnote:_ZN2v88internal19FLAG_sim_stack_sizeE
Boostnote:_ZN2v88internal19FLAG_stress_markingE
Boostnote:_ZN2v88internal19FLAG_trace_all_usesE
Boostnote:_ZN2v88internal19FLAG_trace_asm_timeE
Boostnote:_ZN2v88internal19FLAG_trace_turbo_jtE
Boostnote:_ZN2v88internal19FLAG_trace_unmapperE
Boostnote:_ZN2v88internal19FLAG_turbo_inliningE
Boostnote:_ZN2v88internal19MachineReprToStringENS0_21MachineRepresentationE
Boostnote:_ZN2v88internal19SpaceWithLinearArea21AddAllocationObserverEPNS0_18AllocationObserverE
Boostnote:_ZN2v88internal19SpaceWithLinearArea24PauseAllocationObserversEv
Boostnote:_ZN2v88internal19SpaceWithLinearArea24RemoveAllocationObserverEPNS0_18AllocationObserverE
Boostnote:_ZN2v88internal19SpaceWithLinearArea25ResumeAllocationObserversEv
Boostnote:_ZN2v88internal19SpaceWithLinearArea29StartNextInlineAllocationStepEv
Boostnote:_ZN2v88internal20CanonicalHandleScope6LookupEPNS0_6ObjectE
Boostnote:_ZN2v88internal20CanonicalHandleScopeC1EPNS0_7IsolateE
Boostnote:_ZN2v88internal20CanonicalHandleScopeC2EPNS0_7IsolateE
Boostnote:_ZN2v88internal20CanonicalHandleScopeD1Ev
Boostnote:_ZN2v88internal20CanonicalHandleScopeD2Ev
Boostnote:_ZN2v88internal20CodeRangeAddressHint14GetAddressHintEm
Boostnote:_ZN2v88internal20CodeRangeAddressHint20NotifyFreedCodeRangeEPvm
Boostnote:_ZN2v88internal20FLAG_disable_abortjsE
Boostnote:_ZN2v88internal20FLAG_enable_vldr_immE
Boostnote:_ZN2v88internal20FLAG_force_slow_pathE
Boostnote:_ZN2v88internal20FLAG_inline_into_tryE
Boostnote:_ZN2v88internal20FLAG_log_source_codeE
Boostnote:_ZN2v88internal20FLAG_perf_basic_profE
Boostnote:_ZN2v88internal20FLAG_print_wasm_codeE
Boostnote:_ZN2v88internal20FLAG_rehash_snapshotE
Boostnote:_ZN2v88internal20FLAG_single_threadedE
Boostnote:_ZN2v88internal20FLAG_stress_scavengeE
Boostnote:_ZN2v88internal20FLAG_trace_migrationE
Boostnote:_ZN2v88internal20FLAG_trace_opt_statsE
Boostnote:_ZN2v88internal20FLAG_trace_turbo_ceqE
Boostnote:_ZN2v88internal20FLAG_turbo_profilingE
Boostnote:_ZN2v88internal20FLAG_turbo_splittingE
Boostnote:_ZN2v88internal20FLAG_turbo_stats_nvpE
Boostnote:_ZN2v88internal20FLAG_v8_os_page_sizeE
Boostnote:_ZN2v88internal20WasmExportedFunction14function_indexEv
Boostnote:_ZN2v88internal20WasmExportedFunction4castEPNS0_6ObjectE
Boostnote:_ZN2v88internal21CancelableTaskManager11TryAbortAllEv
Boostnote:_ZN2v88internal21CancelableTaskManager13CancelAndWaitEv
Boostnote:_ZN2v88internal21CancelableTaskManager18RemoveFinishedTaskEm
Boostnote:_ZN2v88internal21CancelableTaskManager8RegisterEPNS0_10CancelableE
Boostnote:_ZN2v88internal21CancelableTaskManager8TryAbortEm
Boostnote:_ZN2v88internal21CancelableTaskManagerC1Ev
Boostnote:_ZN2v88internal21CancelableTaskManagerC2Ev
Boostnote:_ZN2v88internal21FLAG_black_allocationE
Boostnote:_ZN2v88internal21FLAG_csa_trap_on_nodeE
Boostnote:_ZN2v88internal21FLAG_embedded_variantE
Boostnote:_ZN2v88internal21FLAG_harmony_shippingE
Boostnote:_ZN2v88internal21FLAG_inline_accessorsE
Boostnote:_ZN2v88internal21FLAG_log_timer_eventsE
Boostnote:_ZN2v88internal21FLAG_parallel_markingE
Boostnote:_ZN2v88internal21FLAG_print_opt_sourceE
Boostnote:_ZN2v88internal21FLAG_randomize_hashesE
Boostnote:_ZN2v88internal21FLAG_script_streamingE
Boostnote:_ZN2v88internal21FLAG_testing_int_flagE
Boostnote:_ZN2v88internal21FLAG_trace_asm_parserE
Boostnote:_ZN2v88internal21FLAG_trace_evacuationE
Boostnote:_ZN2v88internal21FLAG_trace_file_namesE
Boostnote:_ZN2v88internal21FLAG_trace_gc_verboseE
Boostnote:_ZN2v88internal21FLAG_trace_interruptsE
Boostnote:_ZN2v88internal21FLAG_trace_serializerE
Boostnote:_ZN2v88internal21FLAG_trace_turbo_loopE
Boostnote:_ZN2v88internal21FLAG_trace_turbo_pathE
Boostnote:_ZN2v88internal21FLAG_trace_verify_csaE
Boostnote:_ZN2v88internal21FLAG_trace_zone_statsE
Boostnote:_ZN2v88internal21FLAG_turbo_stats_wasmE
Boostnote:_ZN2v88internal21RegisterConfiguration24RestrictGeneralRegistersEj
Boostnote:_ZN2v88internal21RegisterConfiguration7DefaultEv
Boostnote:_ZN2v88internal21RegisterConfiguration9PoisoningEv
Boostnote:_ZN2v88internal21RegisterConfigurationC1EiiiiPKiS3_NS1_12AliasingKindEPKPKcS8_S8_S8_
Boostnote:_ZN2v88internal21RegisterConfigurationC2EiiiiPKiS3_NS1_12AliasingKindEPKPKcS8_S8_S8_
Boostnote:_ZN2v88internal21UnoptimizedCompileJob17ResetOnMainThreadEPNS0_7IsolateE
Boostnote:_ZN2v88internal21UnoptimizedCompileJob19PrepareOnMainThreadEPNS0_7IsolateE
Boostnote:_ZN2v88internal21UnoptimizedCompileJob20FinalizeOnMainThreadEPNS0_7IsolateE
Boostnote:_ZN2v88internal21UnoptimizedCompileJob21ResetDataOnMainThreadEPNS0_7IsolateE
Boostnote:_ZN2v88internal21UnoptimizedCompileJob22ShortPrintOnMainThreadEv
Boostnote:_ZN2v88internal21UnoptimizedCompileJob24ReportErrorsOnMainThreadEPNS0_7IsolateE
Boostnote:_ZN2v88internal21UnoptimizedCompileJob7CompileEb
Boostnote:_ZN2v88internal21UnoptimizedCompileJobC1EPNS0_7IsolateEPNS0_24CompilerDispatcherTracerENS0_6HandleINS0_18SharedFunctionInfoEEEm
Boostnote:_ZN2v88internal21UnoptimizedCompileJobC2EPNS0_7IsolateEPNS0_24CompilerDispatcherTracerENS0_6HandleINS0_18SharedFunctionInfoEEEm
Boostnote:_ZN2v88internal21UnoptimizedCompileJobD0Ev
Boostnote:_ZN2v88internal21UnoptimizedCompileJobD1Ev
Boostnote:_ZN2v88internal21UnoptimizedCompileJobD2Ev
Boostnote:_ZN2v88internal22FLAG_clear_free_memoryE
Boostnote:_ZN2v88internal22FLAG_compilation_cacheE
Boostnote:_ZN2v88internal22FLAG_dump_counters_nvpE
Boostnote:_ZN2v88internal22FLAG_expose_natives_asE
Boostnote:_ZN2v88internal22FLAG_icu_timezone_dataE
Boostnote:_ZN2v88internal22FLAG_move_object_startE
Boostnote:_ZN2v88internal22FLAG_optimize_for_sizeE
Boostnote:_ZN2v88internal22FLAG_parallel_scavengeE
Boostnote:_ZN2v88internal22FLAG_prof_browser_modeE
Boostnote:_ZN2v88internal22FLAG_stack_trace_limitE
Boostnote:_ZN2v88internal22FLAG_stress_compactionE
Boostnote:_ZN2v88internal22FLAG_testing_bool_flagE
Boostnote:_ZN2v88internal22FLAG_testing_prng_seedE
Boostnote:_ZN2v88internal22FLAG_trace_array_abuseE
Boostnote:_ZN2v88internal22FLAG_trace_asm_scannerE
Boostnote:_ZN2v88internal22FLAG_trace_opt_verboseE
Boostnote:_ZN2v88internal22FLAG_trace_pretenuringE
Boostnote:_ZN2v88internal22FLAG_trace_turbo_graphE
Boostnote:_ZN2v88internal22FLAG_trace_turbo_typesE
Boostnote:_ZN2v88internal22FLAG_track_field_typesE
Boostnote:_ZN2v88internal22FLAG_wasm_trace_memoryE
Boostnote:_ZN2v88internal22FLAG_wasm_trap_handlerE
Boostnote:_ZN2v88internal23CallInterfaceDescriptor15ContextRegisterEv
Boostnote:_ZN2v88internal23CallInterfaceDescriptor33DefaultInitializePlatformSpecificEPNS0_27CallInterfaceDescriptorDataEi
Boostnote:_ZN2v88internal23CallInterfaceDescriptor35JSDefaultInitializePlatformSpecificEPNS0_27CallInterfaceDescriptorDataEi
Boostnote:_ZN2v88internal23FLAG_compact_code_spaceE
Boostnote:_ZN2v88internal23FLAG_concurrent_markingE
Boostnote:_ZN2v88internal23FLAG_detailed_line_infoE
Boostnote:_ZN2v88internal23FLAG_expose_async_hooksE
Boostnote:_ZN2v88internal23FLAG_expose_free_bufferE
Boostnote:_ZN2v88internal23FLAG_fuzzer_gc_analysisE
Boostnote:_ZN2v88internal23FLAG_fuzzer_random_seedE
Boostnote:_ZN2v88internal23FLAG_harmony_array_flatE
Boostnote:_ZN2v88internal23FLAG_histogram_intervalE
Boostnote:_ZN2v88internal23FLAG_max_old_space_sizeE
Boostnote:_ZN2v88internal23FLAG_prepare_always_optE
Boostnote:_ZN2v88internal23FLAG_print_deopt_stressE
Boostnote:_ZN2v88internal23FLAG_random_gc_intervalE
Boostnote:_ZN2v88internal23FLAG_runtime_call_statsE
Boostnote:_ZN2v88internal23FLAG_single_threaded_gcE
Boostnote:_ZN2v88internal23FLAG_testing_float_flagE
Boostnote:_ZN2v88internal23FLAG_trace_maps_detailsE
Boostnote:_ZN2v88internal23FLAG_trace_sim_messagesE
Boostnote:_ZN2v88internal23FLAG_trace_turbo_filterE
Boostnote:_ZN2v88internal23FLAG_trace_wasm_ast_endE
Boostnote:_ZN2v88internal23FLAG_turbo_loop_peelingE
Boostnote:_ZN2v88internal23FLAG_wasm_interpret_allE
Boostnote:_ZN2v88internal23FLAG_wasm_max_mem_pagesE
Boostnote:_ZN2v88internal23FatalProcessOutOfMemoryEPNS0_7IsolateEPKc
Boostnote:_ZN2v88internal23LocalEmbedderHeapTracer12AbortTracingEv
Boostnote:_ZN2v88internal23LocalEmbedderHeapTracer13TraceEpilogueEv
Boostnote:_ZN2v88internal23LocalEmbedderHeapTracer13TracePrologueEv
Boostnote:_ZN2v88internal23LocalEmbedderHeapTracer15EnterFinalPauseEv
Boostnote:_ZN2v88internal23LocalEmbedderHeapTracer19IsRemoteTracingDoneEv
Boostnote:_ZN2v88internal23LocalEmbedderHeapTracer32RegisterWrappersWithRemoteTracerEv
Boostnote:_ZN2v88internal23LocalEmbedderHeapTracer34RequiresImmediateWrapperProcessingEv
Boostnote:_ZN2v88internal23LocalEmbedderHeapTracer5TraceEdNS_18EmbedderHeapTracer21AdvanceTracingActionsE
Boostnote:_ZN2v88internal24CompilerDispatcherTracer13RecordCompileEdm
Boostnote:_ZN2v88internal24CompilerDispatcherTracer13RecordPrepareEd
Boostnote:_ZN2v88internal24CompilerDispatcherTracer14RecordFinalizeEd
Boostnote:_ZN2v88internal24CompilerDispatcherTracer5Scope4NameENS1_7ScopeIDE
Boostnote:_ZN2v88internal24CompilerDispatcherTracer5ScopeC1EPS1_NS1_7ScopeIDEm
Boostnote:_ZN2v88internal24CompilerDispatcherTracer5ScopeC2EPS1_NS1_7ScopeIDEm
Boostnote:_ZN2v88internal24CompilerDispatcherTracer5ScopeD1Ev
Boostnote:_ZN2v88internal24CompilerDispatcherTracer5ScopeD2Ev
Boostnote:_ZN2v88internal24CompilerDispatcherTracer7AverageERKNS_4base10RingBufferIdEE
Boostnote:_ZN2v88internal24CompilerDispatcherTracer8EstimateERKNS_4base10RingBufferINSt3__14pairImdEEEEm
Boostnote:_ZN2v88internal24CompilerDispatcherTracerC1EPNS0_7IsolateE
Boostnote:_ZN2v88internal24CompilerDispatcherTracerC2EPNS0_7IsolateE
Boostnote:_ZN2v88internal24CompilerDispatcherTracerD1Ev
Boostnote:_ZN2v88internal24CompilerDispatcherTracerD2Ev
Boostnote:_ZN2v88internal24FLAG_assume_asmjs_originE
Boostnote:_ZN2v88internal24FLAG_compiler_dispatcherE
Boostnote:_ZN2v88internal24FLAG_concurrent_sweepingE
Boostnote:_ZN2v88internal24FLAG_deopt_every_n_timesE
Boostnote:_ZN2v88internal24FLAG_experimental_extrasE
Boostnote:_ZN2v88internal24FLAG_force_long_branchesE
Boostnote:_ZN2v88internal24FLAG_harmony_import_metaE
Boostnote:_ZN2v88internal24FLAG_incremental_markingE
Boostnote:_ZN2v88internal24FLAG_log_function_eventsE
Boostnote:_ZN2v88internal24FLAG_logfile_per_isolateE
Boostnote:_ZN2v88internal24FLAG_max_semi_space_sizeE
Boostnote:_ZN2v88internal24FLAG_min_semi_space_sizeE
Boostnote:_ZN2v88internal24FLAG_parallel_compactionE
Boostnote:_ZN2v88internal24FLAG_regexp_optimizationE
Boostnote:_ZN2v88internal24FLAG_sim_stack_alignmentE
Boostnote:_ZN2v88internal24FLAG_stress_validate_asmE
Boostnote:_ZN2v88internal24FLAG_testing_string_flagE
Boostnote:_ZN2v88internal24FLAG_trace_fragmentationE
Boostnote:_ZN2v88internal24FLAG_track_double_fieldsE
Boostnote:_ZN2v88internal24FLAG_turbo_loop_variableE
Boostnote:_ZN2v88internal24FLAG_type_info_thresholdE
Boostnote:_ZN2v88internal24FLAG_unbox_double_arraysE
Boostnote:_ZN2v88internal24FLAG_use_verbose_printerE
Boostnote:_ZN2v88internal24FLAG_wasm_max_table_sizeE
Boostnote:_ZN2v88internal24FLAG_wasm_test_streamingE
Boostnote:_ZN2v88internal24OnCriticalMemoryPressureEm
Boostnote:_ZN2v88internal24OptimizedCompilationInfo15SetTracingFlagsEb
Boostnote:_ZN2v88internal24OptimizedCompilationInfo18AddInlinedFunctionENS0_6HandleINS0_18SharedFunctionInfoEEENS0_14SourcePositionE
Boostnote:_ZN2v88internal24OptimizedCompilationInfo20set_deferred_handlesENSt3__110shared_ptrINS0_15DeferredHandlesEEE
Boostnote:_ZN2v88internal24OptimizedCompilationInfo20set_deferred_handlesEPNS0_15DeferredHandlesE
Boostnote:_ZN2v88internal24OptimizedCompilationInfo29ReopenHandlesInNewHandleScopeEPNS0_7IsolateE
Boostnote:_ZN2v88internal24OptimizedCompilationInfoC1ENS0_6VectorIKcEENS0_12AbstractCode4KindEPNS0_4ZoneE
Boostnote:_ZN2v88internal24OptimizedCompilationInfoC1ENS0_6VectorIKcEEPNS0_4ZoneENS0_4Code4KindE
Boostnote:_ZN2v88internal24OptimizedCompilationInfoC1EPNS0_4ZoneEPNS0_7IsolateENS0_6HandleINS0_18SharedFunctionInfoEEENS6_INS0_10JSFunctionEEE
Boostnote:_ZN2v88internal24OptimizedCompilationInfoC2ENS0_6VectorIKcEENS0_12AbstractCode4KindEPNS0_4ZoneE
Boostnote:_ZN2v88internal24OptimizedCompilationInfoC2ENS0_6VectorIKcEEPNS0_4ZoneENS0_4Code4KindE
Boostnote:_ZN2v88internal24OptimizedCompilationInfoC2EPNS0_4ZoneEPNS0_7IsolateENS0_6HandleINS0_18SharedFunctionInfoEEENS6_INS0_10JSFunctionEEE
Boostnote:_ZN2v88internal24OptimizedCompilationInfoD1Ev
Boostnote:_ZN2v88internal24OptimizedCompilationInfoD2Ev
Boostnote:_ZN2v88internal25FLAG_allow_natives_syntaxE
Boostnote:_ZN2v88internal25FLAG_experimental_wasm_ehE
Boostnote:_ZN2v88internal25FLAG_experimental_wasm_mvE
Boostnote:_ZN2v88internal25FLAG_experimental_wasm_seE
Boostnote:_ZN2v88internal25FLAG_harmony_class_fieldsE
Boostnote:_ZN2v88internal25FLAG_heap_growing_percentE
Boostnote:_ZN2v88internal25FLAG_lazy_deserializationE
Boostnote:_ZN2v88internal25FLAG_lazy_inner_functionsE
Boostnote:_ZN2v88internal25FLAG_log_instruction_fileE
Boostnote:_ZN2v88internal25FLAG_native_code_countersE
Boostnote:_ZN2v88internal25FLAG_polymorphic_inliningE
Boostnote:_ZN2v88internal25FLAG_print_all_exceptionsE
Boostnote:_ZN2v88internal25FLAG_redirect_code_tracesE
Boostnote:_ZN2v88internal25FLAG_retain_maps_for_n_gcE
Boostnote:_ZN2v88internal25FLAG_trace_block_coverageE
Boostnote:_ZN2v88internal25FLAG_trace_generalizationE
Boostnote:_ZN2v88internal25FLAG_trace_js_array_abuseE
Boostnote:_ZN2v88internal25FLAG_trace_representationE
Boostnote:_ZN2v88internal25FLAG_trace_stress_markingE
Boostnote:_ZN2v88internal25FLAG_trace_turbo_cfg_fileE
Boostnote:_ZN2v88internal25FLAG_trace_turbo_inliningE
Boostnote:_ZN2v88internal25FLAG_trace_turbo_trimmingE
Boostnote:_ZN2v88internal25FLAG_trace_wasm_ast_startE
Boostnote:_ZN2v88internal25FLAG_track_retaining_pathE
Boostnote:_ZN2v88internal25FLAG_use_external_stringsE
Boostnote:_ZN2v88internal25FLAG_wasm_fuzzer_gen_testE
Boostnote:_ZN2v88internal25FLAG_wasm_no_stack_checksE
Boostnote:_ZN2v88internal26FLAG_branch_load_poisoningE
Boostnote:_ZN2v88internal26FLAG_dump_wasm_module_pathE
Boostnote:_ZN2v88internal26FLAG_harmony_public_fieldsE
Boostnote:_ZN2v88internal26FLAG_harmony_static_fieldsE
Boostnote:_ZN2v88internal26FLAG_log_instruction_statsE
Boostnote:_ZN2v88internal26FLAG_print_bytecode_filterE
Boostnote:_ZN2v88internal26FLAG_regexp_mode_modifiersE
Boostnote:_ZN2v88internal26FLAG_suppress_asm_messagesE
Boostnote:_ZN2v88internal26FLAG_trace_gc_object_statsE
Boostnote:_ZN2v88internal26FLAG_trace_prototype_usersE
Boostnote:_ZN2v88internal26FLAG_trace_stress_scavengeE
Boostnote:_ZN2v88internal26FLAG_trace_turbo_reductionE
Boostnote:_ZN2v88internal26FLAG_trace_turbo_scheduledE
Boostnote:_ZN2v88internal26FLAG_trace_turbo_schedulerE
Boostnote:_ZN2v88internal26FLAG_track_computed_fieldsE
Boostnote:_ZN2v88internal26FLAG_track_gc_object_statsE
Boostnote:_ZN2v88internal26FLAG_turbo_cf_optimizationE
Boostnote:_ZN2v88internal26FLAG_turbo_sp_frame_accessE
Boostnote:_ZN2v88internal26FLAG_use_idle_notificationE
Boostnote:_ZN2v88internal26FLAG_wasm_lazy_compilationE
Boostnote:_ZN2v88internal26FLAG_wasm_no_bounds_checksE
Boostnote:_ZN2v88internal26SourcePositionTableBuilder11AddPositionEmNS0_14SourcePositionEb
Boostnote:_ZN2v88internal26SourcePositionTableBuilder21ToSourcePositionTableEPNS0_7IsolateE
Boostnote:_ZN2v88internal26SourcePositionTableBuilder27ToSourcePositionTableVectorEv
Boostnote:_ZN2v88internal26SourcePositionTableBuilder8AddEntryERKNS0_18PositionTableEntryE
Boostnote:_ZN2v88internal26SourcePositionTableBuilderC1ENS1_13RecordingModeE
Boostnote:_ZN2v88internal26SourcePositionTableBuilderC2ENS1_13RecordingModeE
Boostnote:_ZN2v88internal26UnoptimizedCompilationInfo21has_simple_parametersEv
Boostnote:_ZN2v88internal26UnoptimizedCompilationInfoC1EPNS0_4ZoneEPNS0_9ParseInfoEPNS0_15FunctionLiteralE
Boostnote:_ZN2v88internal26UnoptimizedCompilationInfoC2EPNS0_4ZoneEPNS0_9ParseInfoEPNS0_15FunctionLiteralE
Boostnote:_ZN2v88internal27CallInterfaceDescriptorData26InitializePlatformSpecificEiPKNS0_8RegisterE
Boostnote:_ZN2v88internal27CallInterfaceDescriptorData29InitializePlatformIndependentENS_4base5FlagsINS1_4FlagEiEEiiPKNS0_11MachineTypeEi
Boostnote:_ZN2v88internal27CallInterfaceDescriptorData5ResetEv
Boostnote:_ZN2v88internal27FLAG_experimental_wasm_simdE
Boostnote:_ZN2v88internal27FLAG_expose_trigger_failureE
Boostnote:_ZN2v88internal27FLAG_feedback_normalizationE
Boostnote:_ZN2v88internal27FLAG_harmony_do_expressionsE
Boostnote:_ZN2v88internal27FLAG_harmony_dynamic_importE
Boostnote:_ZN2v88internal27FLAG_harmony_private_fieldsE
Boostnote:_ZN2v88internal27FLAG_initial_old_space_sizeE
Boostnote:_ZN2v88internal27FLAG_log_instruction_periodE
Boostnote:_ZN2v88internal27FLAG_min_inlining_frequencyE
Boostnote:_ZN2v88internal27FLAG_prof_sampling_intervalE
Boostnote:_ZN2v88internal27FLAG_stack_trace_on_illegalE
Boostnote:_ZN2v88internal27FLAG_trace_for_in_enumerateE
Boostnote:_ZN2v88internal27FLAG_trace_ignition_codegenE
Boostnote:_ZN2v88internal27FLAG_turbo_load_eliminationE
Boostnote:_ZN2v88internal27FLAG_wasm_async_compilationE
Boostnote:_ZN2v88internal27OptimizingCompileDispatcher11CompileNextEPNS0_23OptimizedCompilationJobE
Boostnote:_ZN2v88internal27OptimizingCompileDispatcher16FlushOutputQueueEb
Boostnote:_ZN2v88internal27OptimizingCompileDispatcher20QueueForOptimizationEPNS0_23OptimizedCompilationJobE
Boostnote:_ZN2v88internal27OptimizingCompileDispatcher25InstallOptimizedFunctionsEv
Boostnote:_ZN2v88internal27OptimizingCompileDispatcher4StopEv
Boostnote:_ZN2v88internal27OptimizingCompileDispatcher5FlushENS0_16BlockingBehaviorE
Boostnote:_ZN2v88internal27OptimizingCompileDispatcher7UnblockEv
Boostnote:_ZN2v88internal27OptimizingCompileDispatcher9NextInputEb
Boostnote:_ZN2v88internal27OptimizingCompileDispatcherD1Ev
Boostnote:_ZN2v88internal27OptimizingCompileDispatcherD2Ev
Boostnote:_ZN2v88internal27SourcePositionTableIterator7AdvanceEv
Boostnote:_ZN2v88internal27SourcePositionTableIteratorC1ENS0_6HandleINS0_9ByteArrayEEE
Boostnote:_ZN2v88internal27SourcePositionTableIteratorC1ENS0_6VectorIKhEE
Boostnote:_ZN2v88internal27SourcePositionTableIteratorC1EPNS0_9ByteArrayE
Boostnote:_ZN2v88internal27SourcePositionTableIteratorC2ENS0_6HandleINS0_9ByteArrayEEE
Boostnote:_ZN2v88internal27SourcePositionTableIteratorC2ENS0_6VectorIKhEE
Boostnote:_ZN2v88internal27SourcePositionTableIteratorC2EPNS0_9ByteArrayE
Boostnote:_ZN2v88internal28FLAG_concurrent_store_bufferE
Boostnote:_ZN2v88internal28FLAG_harmony_string_matchallE
Boostnote:_ZN2v88internal28FLAG_harmony_string_trimmingE
Boostnote:_ZN2v88internal28FLAG_parallel_pointer_updateE
Boostnote:_ZN2v88internal28FLAG_profile_deserializationE
Boostnote:_ZN2v88internal28FLAG_redirect_code_traces_toE
Boostnote:_ZN2v88internal28FLAG_testing_maybe_bool_flagE
Boostnote:_ZN2v88internal28FLAG_trace_detached_contextsE
Boostnote:_ZN2v88internal28FLAG_trace_idle_notificationE
Boostnote:_ZN2v88internal28FLAG_trace_parallel_scavengeE
Boostnote:_ZN2v88internal28FLAG_trace_store_eliminationE
Boostnote:_ZN2v88internal28FLAG_track_detached_contextsE
Boostnote:_ZN2v88internal28FLAG_turbo_move_optimizationE
Boostnote:_ZN2v88internal28FLAG_turbo_preprocess_rangesE
Boostnote:_ZN2v88internal28FLAG_turbo_rewrite_far_jumpsE
Boostnote:_ZN2v88internal28FLAG_turbo_store_eliminationE
Boostnote:_ZN2v88internal28FLAG_turbo_verify_allocationE
Boostnote:_ZN2v88internal29FLAG_builtins_in_stack_tracesE
Boostnote:_ZN2v88internal29FLAG_concurrent_recompilationE
Boostnote:_ZN2v88internal29FLAG_experimental_wasm_anyrefE
Boostnote:_ZN2v88internal29FLAG_expose_inspector_scriptsE
Boostnote:_ZN2v88internal29FLAG_fast_promotion_new_spaceE
Boostnote:_ZN2v88internal29FLAG_page_promotion_thresholdE
Boostnote:_ZN2v88internal29FLAG_perf_prof_unwinding_infoE
Boostnote:_ZN2v88internal29FLAG_preparser_scope_analysisE
Boostnote:_ZN2v88internal29FLAG_semi_space_growth_factorE
Boostnote:_ZN2v88internal29FLAG_serialization_chunk_sizeE
Boostnote:_ZN2v88internal29FLAG_serialization_statisticsE
Boostnote:_ZN2v88internal29FLAG_stress_compaction_randomE
Boostnote:_ZN2v88internal29FLAG_trace_concurrent_markingE
Boostnote:_ZN2v88internal29FLAG_track_heap_object_fieldsE
Boostnote:_ZN2v88internal29FLAG_turbo_allocation_foldingE
Boostnote:_ZN2v88internal29FLAG_use_marking_progress_barE
Boostnote:_ZN2v88internal29FLAG_wasm_trace_serializationE
Boostnote:_ZN2v88internal29InterpreterDispatchDescriptor26InitializePlatformSpecificEPNS0_27CallInterfaceDescriptorDataE
Boostnote:_ZN2v88internal2V818GetCurrentPlatformEv
Boostnote:_ZN2v88internal30FLAG_asm_wasm_lazy_compilationE
Boostnote:_ZN2v88internal30FLAG_disable_old_api_accessorsE
Boostnote:_ZN2v88internal30FLAG_experimental_wasm_threadsE
Boostnote:_ZN2v88internal30FLAG_expose_externalize_stringE
Boostnote:_ZN2v88internal30FLAG_harmony_function_tostringE
Boostnote:_ZN2v88internal30FLAG_harmony_numeric_separatorE
Boostnote:_ZN2v88internal30FLAG_harmony_sharedarraybufferE
Boostnote:_ZN2v88internal30FLAG_log_internal_timer_eventsE
Boostnote:_ZN2v88internal30FLAG_max_inlined_bytecode_sizeE
Boostnote:_ZN2v88internal30FLAG_minor_mc_parallel_markingE
Boostnote:_ZN2v88internal30FLAG_trace_compiler_dispatcherE
Boostnote:_ZN2v88internal30FLAG_trace_gc_ignore_scavengerE
Boostnote:_ZN2v88internal30FLAG_trace_ignition_dispatchesE
Boostnote:_ZN2v88internal30FLAG_trace_incremental_markingE
Boostnote:_ZN2v88internal30FLAG_trace_mutator_utilizationE
Boostnote:_ZN2v88internal30FLAG_write_protect_code_memoryE
Boostnote:_ZN2v88internal31FLAG_harmony_await_optimizationE
Boostnote:_ZN2v88internal31FLAG_harmony_symbol_descriptionE
Boostnote:_ZN2v88internal31FLAG_heap_snapshot_string_limitE
Boostnote:_ZN2v88internal31FLAG_stress_incremental_markingE
Boostnote:_ZN2v88internal31FLAG_trace_environment_livenessE
Boostnote:_ZN2v88internal31FLAG_trace_external_array_abuseE
Boostnote:_ZN2v88internal31FLAG_trace_lazy_deserializationE
Boostnote:_ZN2v88internal31FLAG_turbo_verify_machine_graphE
Boostnote:_ZN2v88internal31FLAG_untrusted_code_mitigationsE
Boostnote:_ZN2v88internal31FLAG_wasm_num_compilation_tasksE
Boostnote:_ZN2v88internal31FLAG_wasm_tier_mask_for_testingE
Boostnote:_ZN2v88internal31FLAG_wasm_trap_handler_fallbackE
Boostnote:_ZN2v88internal32FLAG_abort_on_uncaught_exceptionE
Boostnote:_ZN2v88internal32FLAG_allocation_site_pretenuringE
Boostnote:_ZN2v88internal32FLAG_cache_prototype_transitionsE
Boostnote:_ZN2v88internal32FLAG_heap_profiler_trace_objectsE
Boostnote:_ZN2v88internal32FLAG_trace_fragmentation_verboseE
Boostnote:_ZN2v88internal32FLAG_turbo_inline_array_builtinsE
Boostnote:_ZN2v88internal33FLAG_analyze_environment_livenessE
Boostnote:_ZN2v88internal33FLAG_clear_exceptions_on_js_entryE
Boostnote:_ZN2v88internal33FLAG_enable_experimental_builtinsE
Boostnote:_ZN2v88internal33FLAG_experimental_wasm_mut_globalE
Boostnote:_ZN2v88internal33FLAG_incremental_marking_wrappersE
Boostnote:_ZN2v88internal33FLAG_lazy_handler_deserializationE
Boostnote:_ZN2v88internal33FLAG_trace_duplicate_threshold_kbE
Boostnote:_ZN2v88internal33FLAG_trace_pretenuring_statisticsE
Boostnote:_ZN2v88internal33FLAG_trace_track_allocation_sitesE
Boostnote:_ZN2v88internal33FLAG_trace_turbo_load_eliminationE
Boostnote:_ZN2v88internal33FLAG_turbo_instruction_schedulingE
Boostnote:_ZN2v88internal34FLAG_ephemeron_fixpoint_iterationsE
Boostnote:_ZN2v88internal34FLAG_force_marking_deque_overflowsE
Boostnote:_ZN2v88internal34FLAG_max_stack_trace_source_lengthE
Boostnote:_ZN2v88internal35FLAG_block_concurrent_recompilationE
Boostnote:_ZN2v88internal35FLAG_concurrent_recompilation_delayE
Boostnote:_ZN2v88internal35FLAG_cpu_profiler_sampling_intervalE
Boostnote:_ZN2v88internal35FLAG_harmony_array_prototype_valuesE
Boostnote:_ZN2v88internal35FLAG_ignore_asm_unimplemented_breakE
Boostnote:_ZN2v88internal35FLAG_perf_basic_prof_only_functionsE
Boostnote:_ZN2v88internal35FLAG_trace_compiler_dispatcher_jobsE
Boostnote:_ZN2v88internal35FLAG_trace_concurrent_recompilationE
Boostnote:_ZN2v88internal35FLAG_wasm_write_protect_code_memoryE
Boostnote:_ZN2v88internal35FLAG_young_generation_large_objectsE
Boostnote:_ZN2v88internal36FLAG_aggressive_lazy_inner_functionsE
Boostnote:_ZN2v88internal36FLAG_concurrent_array_buffer_freeingE
Boostnote:_ZN2v88internal36FLAG_function_context_specializationE
Boostnote:_ZN2v88internal36FLAG_interpreted_frames_native_stackE
Boostnote:_ZN2v88internal36FLAG_max_inlined_bytecode_size_smallE
Boostnote:_ZN2v88internal36FLAG_trace_allocation_stack_intervalE
Boostnote:_ZN2v88internal36FLAG_trace_idle_notification_verboseE
Boostnote:_ZN2v88internal36FLAG_trace_minor_mc_parallel_markingE
Boostnote:_ZN2v88internal36FLAG_wasm_disable_structured_cloningE
Boostnote:_ZN2v88internal37FLAG_enable_regexp_unaligned_accessesE
Boostnote:_ZN2v88internal37FLAG_heap_profiler_use_embedder_graphE
Boostnote:_ZN2v88internal38FLAG_allow_unsafe_function_constructorE
Boostnote:_ZN2v88internal38FLAG_harmony_intl_relative_time_formatE
Boostnote:_ZN2v88internal39FLAG_max_inlined_bytecode_size_absoluteE
Boostnote:_ZN2v88internal39FLAG_reserve_inline_budget_scale_factorE
Boostnote:_ZN2v88internal40FLAG_stress_sampling_allocation_profilerE
Boostnote:_ZN2v88internal40FLAG_turbo_stress_instruction_schedulingE
Boostnote:_ZN2v88internal41FLAG_ignition_filter_expression_positionsE
Boostnote:_ZN2v88internal41FLAG_max_inlined_bytecode_size_cumulativeE
Boostnote:_ZN2v88internal42FLAG_concurrent_recompilation_queue_lengthE
Boostnote:_ZN2v88internal42FLAG_disallow_code_generation_from_stringsE
Boostnote:_ZN2v88internal42FLAG_experimental_wasm_sat_f2i_conversionsE
Boostnote:_ZN2v88internal42FLAG_ignition_elide_noneffectful_bytecodesE
Boostnote:_ZN2v88internal42FLAG_trace_ignition_dispatches_output_fileE
Boostnote:_ZN2v88internal42FLAG_trace_side_effect_free_debug_evaluateE
Boostnote:_ZN2v88internal43FLAG_detect_ineffective_gcs_near_heap_limitE
Boostnote:_ZN2v88internal43FLAG_ignition_share_named_property_feedbackE
Boostnote:_ZN2v88internal43FLAG_manual_evacuation_candidates_selectionE
Boostnote:_ZN2v88internal44FLAG_experimental_inline_promise_constructorE
Boostnote:_ZN2v88internal44FLAG_experimental_new_space_growth_heuristicE
Boostnote:_ZN2v88internal45FLAG_abort_on_stack_or_string_length_overflowE
Boostnote:_ZN2v88internal47FLAG_sampling_heap_profiler_suppress_randomnessE
Boostnote:_ZN2v88internal4Heap14CollectGarbageENS0_15AllocationSpaceENS0_23GarbageCollectionReasonENS_15GCCallbackFlagsE
Boostnote:_ZN2v88internal4Heap17CollectAllGarbageEiNS0_23GarbageCollectionReasonENS_15GCCallbackFlagsE
Boostnote:_ZN2v88internal4Heap20CreateFillerObjectAtEmiNS0_18ClearRecordedSlotsENS0_20ClearFreedMemoryModeE
Boostnote:_ZN2v88internal4Heap23RootIsImmortalImmovableEi
Boostnote:_ZN2v88internal4Heap27ComputeMaxOldGenerationSizeEm
Boostnote:_ZN2v88internal4Heap30ProtectUnprotectedMemoryChunksEv
Boostnote:_ZN2v88internal4Page15CreateBlackAreaEmm
Boostnote:_ZN2v88internal4Zone3NewEm
Boostnote:_ZN2v88internal4Zone9DeleteAllEv
Boostnote:_ZN2v88internal4Zone9NewExpandEm
Boostnote:_ZN2v88internal4ZoneC1EPNS0_19AccountingAllocatorEPKcNS0_11SegmentSizeE
Boostnote:_ZN2v88internal4ZoneC2EPNS0_19AccountingAllocatorEPKcNS0_11SegmentSizeE
Boostnote:_ZN2v88internal4ZoneD1Ev
Boostnote:_ZN2v88internal4ZoneD2Ev
Boostnote:_ZN2v88internal4wasm10GetExportsEPNS0_7IsolateENS0_6HandleINS0_16WasmModuleObjectEEE
Boostnote:_ZN2v88internal4wasm10GetImportsEPNS0_7IsolateENS0_6HandleINS0_16WasmModuleObjectEEE
Boostnote:_ZN2v88internal4wasm10OrderCasesEPNS0_10ZoneVectorIiEEPNS0_4ZoneE
Boostnote:_ZN2v88internal4wasm10ResultBase5errorEjNSt3__112basic_stringIcNS3_11char_traitsIcEENS3_9allocatorIcEEEE
Boostnote:_ZN2v88internal4wasm10ResultBase6verrorEPKcP13__va_list_tag
Boostnote:_ZN2v88internal4wasm10WasmEngine10UnregisterEPNS0_21CancelableTaskManagerE
Boostnote:_ZN2v88internal4wasm10WasmEngine11SyncCompileEPNS0_7IsolateEPNS1_12ErrorThrowerERKNS1_15ModuleWireBytesE
Boostnote:_ZN2v88internal4wasm10WasmEngine12AsyncCompileEPNS0_7IsolateENSt3__110unique_ptrINS1_25CompilationResultResolverENS5_14default_deleteIS7_EEEERKNS1_15ModuleWireBytesEb
Boostnote:_ZN2v88internal4wasm10WasmEngine12SyncValidateEPNS0_7IsolateERKNS1_15ModuleWireBytesE
Boostnote:_ZN2v88internal4wasm10WasmEngine13GetCodeTracerEv
Boostnote:_ZN2v88internal4wasm10WasmEngine15SyncInstantiateEPNS0_7IsolateEPNS1_12ErrorThrowerENS0_6HandleINS0_16WasmModuleObjectEEENS0_11MaybeHandleINS0_10JSReceiverEEENSA_INS0_13JSArrayBufferEEE
Boostnote:_ZN2v88internal4wasm10WasmEngine16AsyncInstantiateEPNS0_7IsolateENSt3__110unique_ptrINS1_27InstantiationResultResolverENS5_14default_deleteIS7_EEEENS0_6HandleINS0_16WasmModuleObjectEEENS0_11MaybeHandleINS0_10JSReceiverEEE
Boostnote:_ZN2v88internal4wasm10WasmEngine16RemoveCompileJobEPNS1_15AsyncCompileJobE
Boostnote:_ZN2v88internal4wasm10WasmEngine21CreateAsyncCompileJobEPNS0_7IsolateENSt3__110unique_ptrIA_hNS5_14default_deleteIS7_EEEEmNS0_6HandleINS0_7ContextEEENS6_INS1_25CompilationResultResolverENS8_ISE_EEEE
Boostnote:_ZN2v88internal4wasm10WasmEngine25AbortCompileJobsOnIsolateEPNS0_7IsolateE
Boostnote:_ZN2v88internal4wasm10WasmEngine25StartStreamingCompilationEPNS0_7IsolateENS0_6HandleINS0_7ContextEEENSt3__110unique_ptrINS1_25CompilationResultResolverENS8_14default_deleteISA_EEEE
Boostnote:_ZN2v88internal4wasm10WasmEngine26GetOrCreateTurboStatisticsEv
Boostnote:_ZN2v88internal4wasm10WasmEngine26SyncCompileTranslatedAsmJsEPNS0_7IsolateEPNS1_12ErrorThrowerERKNS1_15ModuleWireBytesENS0_6HandleINS0_6ScriptEEENS0_6VectorIKhEE
Boostnote:_ZN2v88internal4wasm10WasmEngine27DumpAndResetTurboStatisticsEv
Boostnote:_ZN2v88internal4wasm10WasmEngine8RegisterEPNS0_21CancelableTaskManagerE
Boostnote:_ZN2v88internal4wasm10WasmEngine8TearDownEv
Boostnote:_ZN2v88internal4wasm10WasmEngineC1Ev
Boostnote:_ZN2v88internal4wasm10WasmEngineC2Ev
Boostnote:_ZN2v88internal4wasm10WasmEngineD1Ev
Boostnote:_ZN2v88internal4wasm10WasmEngineD2Ev
Boostnote:_ZN2v88internal4wasm10WasmModule25AddFunctionNameForTestingEiNS1_12WireBytesRefE
Boostnote:_ZN2v88internal4wasm10WasmModuleC1ENSt3__110unique_ptrINS0_4ZoneENS3_14default_deleteIS5_EEEE
Boostnote:_ZN2v88internal4wasm10WasmModuleC2ENSt3__110unique_ptrINS0_4ZoneENS3_14default_deleteIS5_EEEE
Boostnote:_ZN2v88internal4wasm11WasmOpcodes10OpcodeNameENS1_10WasmOpcodeE
Boostnote:_ZN2v88internal4wasm11WasmOpcodes14AsmjsSignatureENS1_10WasmOpcodeE
Boostnote:_ZN2v88internal4wasm11WasmOpcodes14IsAnyRefOpcodeENS1_10WasmOpcodeE
Boostnote:_ZN2v88internal4wasm11WasmOpcodes14IsPrefixOpcodeENS1_10WasmOpcodeE
Boostnote:_ZN2v88internal4wasm11WasmOpcodes15IsControlOpcodeENS1_10WasmOpcodeE
Boostnote:_ZN2v88internal4wasm11WasmOpcodes17TrapReasonMessageENS1_10TrapReasonE
Boostnote:_ZN2v88internal4wasm11WasmOpcodes19IsUnconditionalJumpENS1_10WasmOpcodeE
Boostnote:_ZN2v88internal4wasm11WasmOpcodes21IsSignExtensionOpcodeENS1_10WasmOpcodeE
Boostnote:_ZN2v88internal4wasm11WasmOpcodes21TrapReasonToMessageIdENS1_10TrapReasonE
Boostnote:_ZN2v88internal4wasm11WasmOpcodes9SignatureENS1_10WasmOpcodeE
Boostnote:_ZN2v88internal4wasm12ErrorThrower10RangeErrorEPKcz
Boostnote:_ZN2v88internal4wasm12ErrorThrower12CompileErrorEPKcz
Boostnote:_ZN2v88internal4wasm12ErrorThrower12RuntimeErrorEPKcz
Boostnote:_ZN2v88internal4wasm12ErrorThrower5ReifyEv
Boostnote:_ZN2v88internal4wasm12ErrorThrower5ResetEv
Boostnote:_ZN2v88internal4wasm12ErrorThrower6FormatENS2_9ErrorTypeEPKcP13__va_list_tag
Boostnote:_ZN2v88internal4wasm12ErrorThrower9LinkErrorEPKcz
Boostnote:_ZN2v88internal4wasm12ErrorThrower9TypeErrorEPKcz
Boostnote:_ZN2v88internal4wasm12ErrorThrowerC1EOS2_
Boostnote:_ZN2v88internal4wasm12ErrorThrowerC2EOS2_
Boostnote:_ZN2v88internal4wasm12ErrorThrowerD1Ev
Boostnote:_ZN2v88internal4wasm12ErrorThrowerD2Ev
Boostnote:_ZN2v88internal4wasm12NativeModule11AddCodeCopyENS0_6HandleINS0_4CodeEEENS1_8WasmCode4KindEj
Boostnote:_ZN2v88internal4wasm12NativeModule11PublishCodeEPNS1_8WasmCodeE
Boostnote:_ZN2v88internal4wasm12NativeModule12AddOwnedCodeENS_5MaybeIjEENS0_6VectorIKhEEjmmmNS0_11OwnedVectorINS0_12trap_handler24ProtectedInstructionDataEEENS8_IS6_EESC_NS1_8WasmCode4KindENSD_4TierE
Boostnote:_ZN2v88internal4wasm12NativeModule12LogWasmCodesEPNS0_7IsolateE
Boostnote:_ZN2v88internal4wasm12NativeModule13SetExecutableEb
Boostnote:_ZN2v88internal4wasm12NativeModule14PatchJumpTableEjmNS1_8WasmCode11FlushICacheE
Boostnote:_ZN2v88internal4wasm12NativeModule14SetLazyBuiltinENS0_6HandleINS0_4CodeEEE
Boostnote:_ZN2v88internal4wasm12NativeModule15AllocateForCodeEm
Boostnote:_ZN2v88internal4wasm12NativeModule15SetRuntimeStubsEPNS0_7IsolateE
Boostnote:_ZN2v88internal4wasm12NativeModule16AddAnonymousCodeENS0_6HandleINS0_4CodeEEENS1_8WasmCode4KindE
Boostnote:_ZN2v88internal4wasm12NativeModule18DisableTrapHandlerEv
Boostnote:_ZN2v88internal4wasm12NativeModule19AddDeserializedCodeEjNS0_6VectorIKhEEjmmmNS0_11OwnedVectorINS0_12trap_handler24ProtectedInstructionDataEEENS6_IS4_EESA_NS1_8WasmCode4TierE
Boostnote:_ZN2v88internal4wasm12NativeModule19AddInterpreterEntryENS0_6HandleINS0_4CodeEEEj
Boostnote:_ZN2v88internal4wasm12NativeModule20CreateEmptyJumpTableEj
Boostnote:_ZN2v88internal4wasm12NativeModule26ReserveCodeTableForTestingEj
Boostnote:_ZN2v88internal4wasm12NativeModule7AddCodeEjRKNS0_8CodeDescEjmmNS0_11OwnedVectorINS0_12trap_handler24ProtectedInstructionDataEEENS6_IKhEENS1_8WasmCode4TierE
Boostnote:_ZN2v88internal4wasm12NativeModuleC1EPNS0_7IsolateEbPNS0_13VirtualMemoryEPNS1_15WasmCodeManagerENSt3__110shared_ptrIKNS1_10WasmModuleEEERKNS1_9ModuleEnvE
Boostnote:_ZN2v88internal4wasm12NativeModuleC2EPNS0_7IsolateEbPNS0_13VirtualMemoryEPNS1_15WasmCodeManagerENSt3__110shared_ptrIKNS1_10WasmModuleEEERKNS1_9ModuleEnvE
Boostnote:_ZN2v88internal4wasm12NativeModuleD1Ev
Boostnote:_ZN2v88internal4wasm12NativeModuleD2Ev
Boostnote:_ZN2v88internal4wasm12OpcodeLengthEPKhS3_
Boostnote:_ZN2v88internal4wasm12SignatureMap12FindOrInsertERKNS0_9SignatureINS1_9ValueTypeEEE
Boostnote:_ZN2v88internal4wasm14VerifyWasmCodeEPNS0_19AccountingAllocatorEPKNS1_10WasmModuleERNS1_12FunctionBodyE
Boostnote:_ZN2v88internal4wasm15AsmCallableType3IsAEPNS1_7AsmTypeE
Boostnote:_ZN2v88internal4wasm15AsmFunctionType16CanBeInvokedWithEPNS1_7AsmTypeERKNS0_10ZoneVectorIS4_EE
Boostnote:_ZN2v88internal4wasm15AsmFunctionType3IsAEPNS1_7AsmTypeE
Boostnote:_ZN2v88internal4wasm15AsmFunctionType4NameEv
Boostnote:_ZN2v88internal4wasm15WasmCodeManager11TryAllocateEmPNS0_13VirtualMemoryEPv
Boostnote:_ZN2v88internal4wasm15WasmCodeManager12AssignRangesEmmPNS1_12NativeModuleE
Boostnote:_ZN2v88internal4wasm15WasmCodeManager15NewNativeModuleEPNS0_7IsolateEmbNSt3__110shared_ptrIKNS1_10WasmModuleEEERKNS1_9ModuleEnvE
Boostnote:_ZN2v88internal4wasm15WasmCodeManager16FreeNativeModuleEPNS1_12NativeModuleE
Boostnote:_ZN2v88internal4wasm15WasmCodeManager24EstimateNativeModuleSizeEPKNS1_10WasmModuleE
Boostnote:_ZN2v88internal4wasm15WasmCodeManager4FreeEPNS0_13VirtualMemoryE
Boostnote:_ZN2v88internal4wasm15WasmCodeManager6CommitEmm
Boostnote:_ZN2v88internal4wasm15WasmCodeManagerC1EPNS1_17WasmMemoryTrackerEm
Boostnote:_ZN2v88internal4wasm15WasmCodeManagerC2EPNS1_17WasmMemoryTrackerEm
Boostnote:_ZN2v88internal4wasm15WasmInterpreter10SetTracingEPKNS1_12WasmFunctionEb
Boostnote:_ZN2v88internal4wasm15WasmInterpreter13GetBreakpointEPKNS1_12WasmFunctionEm
Boostnote:_ZN2v88internal4wasm15WasmInterpreter13SetBreakpointEPKNS1_12WasmFunctionEmb
Boostnote:_ZN2v88internal4wasm15WasmInterpreter14GetThreadCountEv
Boostnote:_ZN2v88internal4wasm15WasmInterpreter21AddFunctionForTestingEPKNS1_12WasmFunctionE
Boostnote:_ZN2v88internal4wasm15WasmInterpreter23SetCallIndirectTestModeEv
Boostnote:_ZN2v88internal4wasm15WasmInterpreter25SetFunctionCodeForTestingEPKNS1_12WasmFunctionEPKhS7_
Boostnote:_ZN2v88internal4wasm15WasmInterpreter33ComputeControlTransfersForTestingEPNS0_4ZoneEPKNS1_10WasmModuleEPKhS9_
Boostnote:_ZN2v88internal4wasm15WasmInterpreter3RunEv
Boostnote:_ZN2v88internal4wasm15WasmInterpreter5PauseEv
Boostnote:_ZN2v88internal4wasm15WasmInterpreter6Thread13AddBreakFlagsEh
Boostnote:_ZN2v88internal4wasm15WasmInterpreter6Thread13GetFrameCountEv
Boostnote:_ZN2v88internal4wasm15WasmInterpreter6Thread13GetTrapReasonEv
Boostnote:_ZN2v88internal4wasm15WasmInterpreter6Thread14GetReturnValueEi
Boostnote:_ZN2v88internal4wasm15WasmInterpreter6Thread14NumActivationsEv
Boostnote:_ZN2v88internal4wasm15WasmInterpreter6Thread15ClearBreakFlagsEv
Boostnote:_ZN2v88internal4wasm15WasmInterpreter6Thread15GetBreakpointPcEv
Boostnote:_ZN2v88internal4wasm15WasmInterpreter6Thread15HandleExceptionEPNS0_7IsolateE
Boostnote:_ZN2v88internal4wasm15WasmInterpreter6Thread15StartActivationEv
Boostnote:_ZN2v88internal4wasm15WasmInterpreter6Thread16FinishActivationEj
Boostnote:_ZN2v88internal4wasm15WasmInterpreter6Thread19ActivationFrameBaseEj
Boostnote:_ZN2v88internal4wasm15WasmInterpreter6Thread19NumInterpretedCallsEv
Boostnote:_ZN2v88internal4wasm15WasmInterpreter6Thread22PossibleNondeterminismEv
Boostnote:_ZN2v88internal4wasm15WasmInterpreter6Thread3RunEi
Boostnote:_ZN2v88internal4wasm15WasmInterpreter6Thread5PauseEv
Boostnote:_ZN2v88internal4wasm15WasmInterpreter6Thread5ResetEv
Boostnote:_ZN2v88internal4wasm15WasmInterpreter6Thread5stateEv
Boostnote:_ZN2v88internal4wasm15WasmInterpreter6Thread8GetFrameEi
Boostnote:_ZN2v88internal4wasm15WasmInterpreter6Thread9InitFrameEPKNS1_12WasmFunctionEPNS1_9WasmValueE
Boostnote:_ZN2v88internal4wasm15WasmInterpreter9GetThreadEi
Boostnote:_ZN2v88internal4wasm15WasmInterpreterC1EPNS0_7IsolateEPKNS1_10WasmModuleERKNS1_15ModuleWireBytesENS0_6HandleINS0_18WasmInstanceObjectEEE
Boostnote:_ZN2v88internal4wasm15WasmInterpreterC2EPNS0_7IsolateEPKNS1_10WasmModuleERKNS1_15ModuleWireBytesENS0_6HandleINS0_18WasmInstanceObjectEEE
Boostnote:_ZN2v88internal4wasm15WasmInterpreterD1Ev
Boostnote:_ZN2v88internal4wasm15WasmInterpreterD2Ev
Boostnote:_ZN2v88internal4wasm16BytecodeIteratorC1EPKhS4_PNS1_14BodyLocalDeclsE
Boostnote:_ZN2v88internal4wasm16BytecodeIteratorC2EPKhS4_PNS1_14BodyLocalDeclsE
Boostnote:_ZN2v88internal4wasm16CreateWasmScriptEPNS0_7IsolateERKNS1_15ModuleWireBytesE
Boostnote:_ZN2v88internal4wasm16DecodeLocalDeclsEPNS1_14BodyLocalDeclsEPKhS5_
Boostnote:_ZN2v88internal4wasm16LocalDeclEncoder9AddLocalsEjNS1_9ValueTypeE
Boostnote:_ZN2v88internal4wasm16PrintRawWasmCodeEPNS0_19AccountingAllocatorERKNS1_12FunctionBodyEPKNS1_10WasmModuleENS1_11PrintLocalsE
Boostnote:_ZN2v88internal4wasm16PrintRawWasmCodeEPNS0_19AccountingAllocatorERKNS1_12FunctionBodyEPKNS1_10WasmModuleENS1_11PrintLocalsERNSt3__113basic_ostreamIcNSB_11char_traitsIcEEEEPNSB_6vectorIiNSB_9allocatorIiEEEE
Boostnote:_ZN2v88internal4wasm16StreamingDecoder13DecodingState9ReadBytesEPS2_NS0_6VectorIKhEE
Boostnote:_ZN2v88internal4wasm16StreamingDecoder14DecodeVarInt324NextEPS2_
Boostnote:_ZN2v88internal4wasm16StreamingDecoder14DecodeVarInt329ReadBytesEPS2_NS0_6VectorIKhEE
Boostnote:_ZN2v88internal4wasm16StreamingDecoder15DecodeSectionID4NextEPS2_
Boostnote:_ZN2v88internal4wasm16StreamingDecoder15OnBytesReceivedENS0_6VectorIKhEE
Boostnote:_ZN2v88internal4wasm16StreamingDecoder18DecodeFunctionBody4NextEPS2_
Boostnote:_ZN2v88internal4wasm16StreamingDecoder18DecodeModuleHeader4NextEPS2_
Boostnote:_ZN2v88internal4wasm16StreamingDecoder19DecodeSectionLength13NextWithValueEPS2_
Boostnote:_ZN2v88internal4wasm16StreamingDecoder20DecodeFunctionLength13NextWithValueEPS2_
Boostnote:_ZN2v88internal4wasm16StreamingDecoder20DecodeSectionPayload4NextEPS2_
Boostnote:_ZN2v88internal4wasm16StreamingDecoder23DecodeNumberOfFunctions13NextWithValueEPS2_
Boostnote:_ZN2v88internal4wasm16StreamingDecoder5AbortEv
Boostnote:_ZN2v88internal4wasm16StreamingDecoder6FinishEv
Boostnote:_ZN2v88internal4wasm16StreamingDecoderC1ENSt3__110unique_ptrINS1_18StreamingProcessorENS3_14default_deleteIS5_EEEE
Boostnote:_ZN2v88internal4wasm16StreamingDecoderC2ENSt3__110unique_ptrINS1_18StreamingProcessorENS3_14default_deleteIS5_EEEE
Boostnote:_ZN2v88internal4wasm17GetCustomSectionsEPNS0_7IsolateENS0_6HandleINS0_16WasmModuleObjectEEENS4_INS0_6StringEEEPNS1_12ErrorThrowerE
Boostnote:_ZN2v88internal4wasm17WasmMemoryTrackerD1Ev
Boostnote:_ZN2v88internal4wasm17WasmMemoryTrackerD2Ev
Boostnote:_ZN2v88internal4wasm17WasmModuleBuilder11AddFunctionEPNS0_9SignatureINS1_9ValueTypeEEE
Boostnote:_ZN2v88internal4wasm17WasmModuleBuilder12AddSignatureEPNS0_9SignatureINS1_9ValueTypeEEE
Boostnote:_ZN2v88internal4wasm17WasmModuleBuilder14AddDataSegmentEPKhjj
Boostnote:_ZN2v88internal4wasm17WasmModuleBuilder15AddGlobalImportENS0_6VectorIKcEENS1_9ValueTypeE
Boostnote:_ZN2v88internal4wasm17WasmModuleBuilder16SetMaxMemorySizeEj
Boostnote:_ZN2v88internal4wasm17WasmModuleBuilder16SetMinMemorySizeEj
Boostnote:_ZN2v88internal4wasm17WasmModuleBuilder17MarkStartFunctionEPNS1_19WasmFunctionBuilderE
Boostnote:_ZN2v88internal4wasm17WasmModuleBuilder18SetHasSharedMemoryEv
Boostnote:_ZN2v88internal4wasm17WasmModuleBuilder19SetIndirectFunctionEjj
Boostnote:_ZN2v88internal4wasm17WasmModuleBuilder25AllocateIndirectFunctionsEj
Boostnote:_ZN2v88internal4wasm17WasmModuleBuilder9AddExportENS0_6VectorIKcEEPNS1_19WasmFunctionBuilderE
Boostnote:_ZN2v88internal4wasm17WasmModuleBuilder9AddGlobalENS1_9ValueTypeEbbRKNS1_12WasmInitExprE
Boostnote:_ZN2v88internal4wasm17WasmModuleBuilder9AddImportENS0_6VectorIKcEEPNS0_9SignatureINS1_9ValueTypeEEE
Boostnote:_ZN2v88internal4wasm17WasmModuleBuilderC1EPNS0_4ZoneE
Boostnote:_ZN2v88internal4wasm17WasmModuleBuilderC2EPNS0_4ZoneE
Boostnote:_ZN2v88internal4wasm19WasmFunctionBuilder10EmitWithU8ENS1_10WasmOpcodeEh
Boostnote:_ZN2v88internal4wasm19WasmFunctionBuilder12EmitF32ConstEf
Boostnote:_ZN2v88internal4wasm19WasmFunctionBuilder12EmitF64ConstEd
Boostnote:_ZN2v88internal4wasm19WasmFunctionBuilder12EmitGetLocalEj
Boostnote:_ZN2v88internal4wasm19WasmFunctionBuilder12EmitI32ConstEi
Boostnote:_ZN2v88internal4wasm19WasmFunctionBuilder12EmitI64ConstEl
Boostnote:_ZN2v88internal4wasm19WasmFunctionBuilder12EmitSetLocalEj
Boostnote:_ZN2v88internal4wasm19WasmFunctionBuilder12EmitTeeLocalEj
Boostnote:_ZN2v88internal4wasm19WasmFunctionBuilder12EmitWithI32VENS1_10WasmOpcodeEi
Boostnote:_ZN2v88internal4wasm19WasmFunctionBuilder12EmitWithU32VENS1_10WasmOpcodeEj
Boostnote:_ZN2v88internal4wasm19WasmFunctionBuilder12EmitWithU8U8ENS1_10WasmOpcodeEhh
Boostnote:_ZN2v88internal4wasm19WasmFunctionBuilder12SetSignatureEPNS0_9SignatureINS1_9ValueTypeEEE
Boostnote:_ZN2v88internal4wasm19WasmFunctionBuilder15DeleteCodeAfterEm
Boostnote:_ZN2v88internal4wasm19WasmFunctionBuilder16AddAsmWasmOffsetEmm
Boostnote:_ZN2v88internal4wasm19WasmFunctionBuilder19EmitDirectCallIndexEj
Boostnote:_ZN2v88internal4wasm19WasmFunctionBuilder27SetAsmFunctionStartPositionEm
Boostnote:_ZN2v88internal4wasm19WasmFunctionBuilder4EmitENS1_10WasmOpcodeE
Boostnote:_ZN2v88internal4wasm19WasmFunctionBuilder7SetNameENS0_6VectorIKcEE
Boostnote:_ZN2v88internal4wasm19WasmFunctionBuilder8AddLocalENS1_9ValueTypeE
Boostnote:_ZN2v88internal4wasm19WasmFunctionBuilder8EmitCodeEPKhj
Boostnote:_ZN2v88internal4wasm19WasmFunctionBuilder8EmitI32VEi
Boostnote:_ZN2v88internal4wasm19WasmFunctionBuilder8EmitU32VEj
Boostnote:_ZN2v88internal4wasm19WasmFunctionBuilderC1EPNS1_17WasmModuleBuilderE
Boostnote:_ZN2v88internal4wasm19WasmFunctionBuilderC2EPNS1_17WasmModuleBuilderE
Boostnote:_ZN2v88internal4wasm20DecodeCustomSectionsEPKhS3_
Boostnote:_ZN2v88internal4wasm20IsWasmCodegenAllowedEPNS0_7IsolateENS0_6HandleINS0_7ContextEEE
Boostnote:_ZN2v88internal4wasm20SyncDecodeWasmModuleEPNS0_7IsolateEPKhS5_bNS1_12ModuleOriginE
Boostnote:_ZN2v88internal4wasm21AsyncDecodeWasmModuleEPNS0_7IsolateEPKhS5_bNS1_12ModuleOriginENSt3__110shared_ptrINS0_8CountersEEE
Boostnote:_ZN2v88internal4wasm22DisjointAllocationPool5MergeENS1_12AddressRangeE
Boostnote:_ZN2v88internal4wasm22DisjointAllocationPool8AllocateEm
Boostnote:_ZN2v88internal4wasm22NativeModuleSerializerC1EPNS0_7IsolateEPKNS1_12NativeModuleE
Boostnote:_ZN2v88internal4wasm22NativeModuleSerializerC2EPNS0_7IsolateEPKNS1_12NativeModuleE
Boostnote:_ZN2v88internal4wasm22SyncDecodeWasmFunctionEPNS0_7IsolateEPNS0_4ZoneERKNS1_15ModuleWireBytesEPKNS1_10WasmModuleEPKhSD_
Boostnote:_ZN2v88internal4wasm23CompileJsToWasmWrappersEPNS0_7IsolateENS0_6HandleINS0_16WasmModuleObjectEEE
Boostnote:_ZN2v88internal4wasm24NativeModuleDeserializerC1EPNS0_7IsolateEPNS1_12NativeModuleE
Boostnote:_ZN2v88internal4wasm24NativeModuleDeserializerC2EPNS0_7IsolateEPNS1_12NativeModuleE
Boostnote:_ZN2v88internal4wasm25AsmOverloadedFunctionType11AddOverloadEPNS1_7AsmTypeE
Boostnote:_ZN2v88internal4wasm25AsmOverloadedFunctionType16CanBeInvokedWithEPNS1_7AsmTypeERKNS0_10ZoneVectorIS4_EE
Boostnote:_ZN2v88internal4wasm25AsmOverloadedFunctionType4NameEv
Boostnote:_ZN2v88internal4wasm28DecodeWasmInitExprForTestingEPKhS3_
Boostnote:_ZN2v88internal4wasm29DecodeWasmSignatureForTestingEPNS0_4ZoneEPKhS5_
Boostnote:_ZN2v88internal4wasm31AnalyzeLoopAssignmentForTestingEPNS0_4ZoneEmPKhS5_
Boostnote:_ZN2v88internal4wasm7AsmType10FroundTypeEPNS0_4ZoneE
Boostnote:_ZN2v88internal4wasm7AsmType10MinMaxTypeEPNS0_4ZoneEPS2_S5_
Boostnote:_ZN2v88internal4wasm7AsmType14AsCallableTypeEv
Boostnote:_ZN2v88internal4wasm7AsmType18ElementSizeInBytesEv
Boostnote:_ZN2v88internal4wasm7AsmType3IsAEPS2_
Boostnote:_ZN2v88internal4wasm7AsmType4NameEv
Boostnote:_ZN2v88internal4wasm7AsmType8LoadTypeEv
Boostnote:_ZN2v88internal4wasm7AsmType9IsExactlyEPS2_
Boostnote:_ZN2v88internal4wasm7AsmType9StoreTypeEv
Boostnote:_ZN2v88internal4wasm8WasmCode14ShouldBeLoggedEPNS0_7IsolateE
Boostnote:_ZN2v88internal4wasm8WasmCode22set_trap_handler_indexEm
Boostnote:_ZN2v88internal4wasm8WasmCode23RegisterTrapHandlerDataEv
Boostnote:_ZN2v88internal4wasm8WasmCodeD1Ev
Boostnote:_ZN2v88internal4wasm8WasmCodeD2Ev
Boostnote:_ZN2v88internal5Scope11SetDefaultsEv
Boostnote:_ZN2v88internal5Scope12DeclareLocalEPKNS0_12AstRawStringENS0_12VariableModeENS0_18InitializationFlagENS0_12VariableKindENS0_17MaybeAssignedFlagE
Boostnote:_ZN2v88internal5Scope12MustAllocateEPNS0_8VariableE
Boostnote:_ZN2v88internal5Scope12NewTemporaryEPKNS0_12AstRawStringE
Boostnote:_ZN2v88internal5Scope12NewTemporaryEPKNS0_12AstRawStringENS0_17MaybeAssignedFlagE
Boostnote:_ZN2v88internal5Scope13AddUnresolvedEPNS0_13VariableProxyE
Boostnote:_ZN2v88internal5Scope13AsModuleScopeEv
Boostnote:_ZN2v88internal5Scope15DeclareVariableEPNS0_11DeclarationENS0_12VariableModeENS0_18InitializationFlagEPbS6_
Boostnote:_ZN2v88internal5Scope15GetClosureScopeEv
Boostnote:_ZN2v88internal5Scope15LookupRecursiveEPNS0_9ParseInfoEPNS0_13VariableProxyEPS1_
Boostnote:_ZN2v88internal5Scope15ResolveVariableEPNS0_9ParseInfoEPNS0_13VariableProxyE
Boostnote:_ZN2v88internal5Scope16AllocateHeapSlotEPNS0_8VariableE
Boostnote:_ZN2v88internal5Scope16GetReceiverScopeEv
Boostnote:_ZN2v88internal5Scope16RemoveUnresolvedEPNS0_13VariableProxyE
Boostnote:_ZN2v88internal5Scope17AllocateStackSlotEPNS0_8VariableE
Boostnote:_ZN2v88internal5Scope17GetUnremovedScopeEv
Boostnote:_ZN2v88internal5Scope17LookupInScopeInfoEPKNS0_12AstRawStringE
Boostnote:_ZN2v88internal5Scope17ReplaceOuterScopeEPS1_
Boostnote:_ZN2v88internal5Scope18AsDeclarationScopeEv
Boostnote:_ZN2v88internal5Scope18FetchFreeVariablesEPNS0_16DeclarationScopeEPNS0_9ParseInfoEPNS0_13VariableProxyE
Boostnote:_ZN2v88internal5Scope18FinalizeBlockScopeEv
Boostnote:_ZN2v88internal5Scope18ShouldBanArgumentsEv
Boostnote:_ZN2v88internal5Scope19DeclareVariableNameEPKNS0_12AstRawStringENS0_12VariableModeE
Boostnote:_ZN2v88internal5Scope19GetDeclarationScopeEv
Boostnote:_ZN2v88internal5Scope19HasSimpleParametersEv
Boostnote:_ZN2v88internal5Scope21DeserializeScopeChainEPNS0_7IsolateEPNS0_4ZoneEPNS0_9ScopeInfoEPNS0_16DeclarationScopeEPNS0_15AstValueFactoryENS1_19DeserializationModeE
Boostnote:_ZN2v88internal5Scope21MustAllocateInContextEPNS0_8VariableE
Boostnote:_ZN2v88internal5Scope22SavePreParsedScopeDataEv
Boostnote:_ZN2v88internal5Scope24DeclareCatchVariableNameEPKNS0_12AstRawStringE
Boostnote:_ZN2v88internal5Scope24GetOuterScopeWithContextEv
Boostnote:_ZN2v88internal5Scope25AllocateNonParameterLocalEPNS0_8VariableE
Boostnote:_ZN2v88internal5Scope27ResolveVariablesRecursivelyEPNS0_9ParseInfoE
Boostnote:_ZN2v88internal5Scope28AllocateVariablesRecursivelyEv
Boostnote:_ZN2v88internal5Scope29AllocateScopeInfosRecursivelyEPNS0_7IsolateENS0_11MaybeHandleINS0_9ScopeInfoEEE
Boostnote:_ZN2v88internal5Scope31CheckConflictingVarDeclarationsEv
Boostnote:_ZN2v88internal5Scope35CheckLexDeclarationsConflictingWithERKNS0_8ZoneListIPKNS0_12AstRawStringEEE
Boostnote:_ZN2v88internal5Scope44AllocateNonParameterLocalsAndDeclaredGlobalsEv
Boostnote:_ZN2v88internal5Scope6LookupEPKNS0_12AstRawStringE
Boostnote:_ZN2v88internal5Scope7DeclareEPNS0_4ZoneEPKNS0_12AstRawStringENS0_12VariableModeENS0_12VariableKindENS0_18InitializationFlagENS0_17MaybeAssignedFlagE
Boostnote:_ZN2v88internal5Scope8NonLocalEPKNS0_12AstRawStringENS0_12VariableModeE
Boostnote:_ZN2v88internal5Scope8SnapshotC1EPS1_
Boostnote:_ZN2v88internal5Scope8SnapshotC2EPS1_
Boostnote:_ZN2v88internal5Scope8SnapshotD1Ev
Boostnote:_ZN2v88internal5Scope8SnapshotD2Ev
Boostnote:_ZN2v88internal5Scope9ResolveToEPNS0_9ParseInfoEPNS0_13VariableProxyEPNS0_8VariableE
Boostnote:_ZN2v88internal5ScopeC1EPNS0_4ZoneE
Boostnote:_ZN2v88internal5ScopeC1EPNS0_4ZoneENS0_9ScopeTypeENS0_6HandleINS0_9ScopeInfoEEE
Boostnote:_ZN2v88internal5ScopeC1EPNS0_4ZoneEPKNS0_12AstRawStringENS0_17MaybeAssignedFlagENS0_6HandleINS0_9ScopeInfoEEE
Boostnote:_ZN2v88internal5ScopeC1EPNS0_4ZoneEPS1_NS0_9ScopeTypeE
Boostnote:_ZN2v88internal5ScopeC2EPNS0_4ZoneE
Boostnote:_ZN2v88internal5ScopeC2EPNS0_4ZoneENS0_9ScopeTypeENS0_6HandleINS0_9ScopeInfoEEE
Boostnote:_ZN2v88internal5ScopeC2EPNS0_4ZoneEPKNS0_12AstRawStringENS0_17MaybeAssignedFlagENS0_6HandleINS0_9ScopeInfoEEE
Boostnote:_ZN2v88internal5ScopeC2EPNS0_4ZoneEPS1_NS0_9ScopeTypeE
Boostnote:_ZN2v88internal5Space21AddAllocationObserverEPNS0_18AllocationObserverE
Boostnote:_ZN2v88internal5Space24PauseAllocationObserversEv
Boostnote:_ZN2v88internal5Space24RemoveAllocationObserverEPNS0_18AllocationObserverE
Boostnote:_ZN2v88internal5Space25ResumeAllocationObserversEv
Boostnote:_ZN2v88internal6BigInt10BitwiseAndEPNS0_7IsolateENS0_6HandleIS1_EES5_
Boostnote:_ZN2v88internal6BigInt10BitwiseNotEPNS0_7IsolateENS0_6HandleIS1_EE
Boostnote:_ZN2v88internal6BigInt10BitwiseXorEPNS0_7IsolateENS0_6HandleIS1_EES5_
Boostnote:_ZN2v88internal6BigInt10FromNumberEPNS0_7IsolateENS0_6HandleINS0_6ObjectEEE
Boostnote:_ZN2v88internal6BigInt10FromObjectEPNS0_7IsolateENS0_6HandleINS0_6ObjectEEE
Boostnote:_ZN2v88internal6BigInt10FromUint64EPNS0_7IsolateEm
Boostnote:_ZN2v88internal6BigInt10UnaryMinusEPNS0_7IsolateENS0_6HandleIS1_EE
Boostnote:_ZN2v88internal6BigInt11AllocateForEPNS0_7IsolateEiiNS0_11ShouldThrowENS0_13PretenureFlagE
Boostnote:_ZN2v88internal6BigInt11FromWords64EPNS0_7IsolateEiiPKm
Boostnote:_ZN2v88internal6BigInt12ExponentiateEPNS0_7IsolateENS0_6HandleIS1_EES5_
Boostnote:_ZN2v88internal6BigInt12Words64CountEv
Boostnote:_ZN2v88internal6BigInt13EqualToBigIntEPS1_S2_
Boostnote:_ZN2v88internal6BigInt13EqualToNumberENS0_6HandleIS1_EENS2_INS0_6ObjectEEE
Boostnote:_ZN2v88internal6BigInt13EqualToStringEPNS0_7IsolateENS0_6HandleIS1_EENS4_INS0_6StringEEE
Boostnote:_ZN2v88internal6BigInt14ToWordsArray64EPiS2_Pm
Boostnote:_ZN2v88internal6BigInt15CompareToBigIntENS0_6HandleIS1_EES3_
Boostnote:_ZN2v88internal6BigInt15CompareToDoubleENS0_6HandleIS1_EEd
Boostnote:_ZN2v88internal6BigInt15CompareToNumberENS0_6HandleIS1_EENS2_INS0_6ObjectEEE
Boostnote:_ZN2v88internal6BigInt15CompareToStringEPNS0_7IsolateENS0_6HandleIS1_EENS4_INS0_6StringEEE
Boostnote:_ZN2v88internal6BigInt15SerializeDigitsEPh
Boostnote:_ZN2v88internal6BigInt16BigIntShortPrintERNSt3__113basic_ostreamIcNS2_11char_traitsIcEEEE
Boostnote:_ZN2v88internal6BigInt16SignedRightShiftEPNS0_7IsolateENS0_6HandleIS1_EES5_
Boostnote:_ZN2v88internal6BigInt18InplaceMultiplyAddENS0_6HandleINS0_22FreshlyAllocatedBigIntEEEmm
Boostnote:_ZN2v88internal6BigInt18UnsignedRightShiftEPNS0_7IsolateENS0_6HandleIS1_EES5_
Boostnote:_ZN2v88internal6BigInt20FromSerializedDigitsEPNS0_7IsolateEjNS0_6VectorIKhEENS0_13PretenureFlagE
Boostnote:_ZN2v88internal6BigInt27DigitsByteLengthForBitfieldEj
Boostnote:_ZN2v88internal6BigInt3AddEPNS0_7IsolateENS0_6HandleIS1_EES5_
Boostnote:_ZN2v88internal6BigInt4ZeroEPNS0_7IsolateE
Boostnote:_ZN2v88internal6BigInt6AsIntNEPNS0_7IsolateEmNS0_6HandleIS1_EE
Boostnote:_ZN2v88internal6BigInt6DivideEPNS0_7IsolateENS0_6HandleIS1_EES5_
Boostnote:_ZN2v88internal6BigInt7AsInt64EPb
Boostnote:_ZN2v88internal6BigInt7AsUintNEPNS0_7IsolateEmNS0_6HandleIS1_EE
Boostnote:_ZN2v88internal6BigInt8AsUint64EPb
Boostnote:_ZN2v88internal6BigInt8FinalizeENS0_6HandleINS0_22FreshlyAllocatedBigIntEEEb
Boostnote:_ZN2v88internal6BigInt8MultiplyEPNS0_7IsolateENS0_6HandleIS1_EES5_
Boostnote:_ZN2v88internal6BigInt8SubtractEPNS0_7IsolateENS0_6HandleIS1_EES5_
Boostnote:_ZN2v88internal6BigInt8ToNumberEPNS0_7IsolateENS0_6HandleIS1_EE
Boostnote:_ZN2v88internal6BigInt8ToStringEPNS0_7IsolateENS0_6HandleIS1_EEi
Boostnote:_ZN2v88internal6BigInt9BitwiseOrEPNS0_7IsolateENS0_6HandleIS1_EES5_
Boostnote:_ZN2v88internal6BigInt9DecrementEPNS0_7IsolateENS0_6HandleIS1_EE
Boostnote:_ZN2v88internal6BigInt9FromInt64EPNS0_7IsolateEl
Boostnote:_ZN2v88internal6BigInt9IncrementEPNS0_7IsolateENS0_6HandleIS1_EE
Boostnote:_ZN2v88internal6BigInt9LeftShiftEPNS0_7IsolateENS0_6HandleIS1_EES5_
Boostnote:_ZN2v88internal6BigInt9RemainderEPNS0_7IsolateENS0_6HandleIS1_EES5_
Boostnote:_ZN2v88internal6Bitmap10ClearRangeEjj
Boostnote:_ZN2v88internal6Bitmap11MarkAllBitsEv
Boostnote:_ZN2v88internal6Bitmap17AllBitsSetInRangeEjj
Boostnote:_ZN2v88internal6Bitmap19AllBitsClearInRangeEjj
Boostnote:_ZN2v88internal6Bitmap5ClearEv
Boostnote:_ZN2v88internal6Bitmap5PrintEv
Boostnote:_ZN2v88internal6Bitmap7IsCleanEv
Boostnote:_ZN2v88internal6Bitmap8SetRangeEjj
Boostnote:_ZN2v88internal6Logger10TimerEventENS1_8StartEndEPKc
Boostnote:_ZN2v88internal6Object11GetPropertyEPNS0_14LookupIteratorENS0_13OnNonExistentE
Boostnote:_ZN2v88internal6Object7ToInt32EPi
Boostnote:_ZN2v88internal6Object9SameValueEPS1_
Boostnote:_ZN2v88internal6Parser10SpreadCallEPNS0_10ExpressionEPNS0_8ZoneListIS3_EEiNS0_4Call12PossiblyEvalE
Boostnote:_ZN2v88internal6Parser12DeclareLabelEPNS0_8ZoneListIPKNS0_12AstRawStringEEEPNS0_13VariableProxyEPb
Boostnote:_ZN2v88internal6Parser12ParseProgramEPNS0_7IsolateEPNS0_9ParseInfoE
Boostnote:_ZN2v88internal6Parser12ParseWrappedEPNS0_7IsolateEPNS0_9ParseInfoEPNS0_8ZoneListIPNS0_9StatementEEEPNS0_16DeclarationScopeEPNS0_4ZoneEPb
Boostnote:_ZN2v88internal6Parser12SetAsmModuleEv
Boostnote:_ZN2v88internal6Parser12SkipFunctionEPKNS0_12AstRawStringENS0_12FunctionKindENS0_15FunctionLiteral12FunctionTypeEPNS0_16DeclarationScopeEPiPPNS0_26ProducedPreParsedScopeDataEbbPb
Boostnote:_ZN2v88internal6Parser13CheckCallableEPNS0_8VariableEPNS0_10ExpressionEi
Boostnote:_ZN2v88internal6Parser13ContainsLabelEPNS0_8ZoneListIPKNS0_12AstRawStringEEES5_
Boostnote:_ZN2v88internal6Parser13NewThrowErrorENS0_7Runtime10FunctionIdENS0_15MessageTemplate8TemplateEPKNS0_12AstRawStringEi
Boostnote:_ZN2v88internal6Parser13NewUnresolvedEPKNS0_12AstRawStringE
Boostnote:_ZN2v88internal6Parser13NewUnresolvedEPKNS0_12AstRawStringEiNS0_12VariableKindE
Boostnote:_ZN2v88internal6Parser13ParseFunctionEPKNS0_12AstRawStringEiNS0_12FunctionKindENS0_15FunctionLiteral12FunctionTypeEPNS0_16DeclarationScopeEPiSA_PbSA_SA_PNS0_8ZoneListIS4_EESB_
Boostnote:_ZN2v88internal6Parser13ParseFunctionEPNS0_7IsolateEPNS0_9ParseInfoENS0_6HandleINS0_18SharedFunctionInfoEEE
Boostnote:_ZN2v88internal6Parser13RewriteReturnEPNS0_10ExpressionEi
Boostnote:_ZN2v88internal6Parser13SpreadCallNewEPNS0_10ExpressionEPNS0_8ZoneListIS3_EEi
Boostnote:_ZN2v88internal6Parser14DoParseProgramEPNS0_7IsolateEPNS0_9ParseInfoE
Boostnote:_ZN2v88internal6Parser15AddTemplateSpanEPPNS1_15TemplateLiteralEbb
Boostnote:_ZN2v88internal6Parser15DeclareFunctionEPKNS0_12AstRawStringEPNS0_15FunctionLiteralENS0_12VariableModeEibPNS0_8ZoneListIS4_EEPb
Boostnote:_ZN2v88internal6Parser15DeclareVariableEPKNS0_12AstRawStringENS0_12VariableModeENS0_18InitializationFlagEiPb
Boostnote:_ZN2v88internal6Parser15DeclareVariableEPKNS0_12AstRawStringENS0_12VariableModeEiPb
Boostnote:_ZN2v88internal6Parser15DoParseFunctionEPNS0_7IsolateEPNS0_9ParseInfoEPKNS0_12AstRawStringE
Boostnote:_ZN2v88internal6Parser15ParseModuleItemEPb
Boostnote:_ZN2v88internal6Parser15PromiseVariableEv
Boostnote:_ZN2v88internal6Parser15SetFunctionNameEPNS0_10ExpressionEPKNS0_12AstRawStringES6_
Boostnote:_ZN2v88internal6Parser15SetLanguageModeEPNS0_5ScopeENS0_12LanguageModeE
Boostnote:_ZN2v88internal6Parser16UpdateStatisticsEPNS0_7IsolateENS0_6HandleINS0_6ScriptEEE
Boostnote:_ZN2v88internal6Parser17BuildInitialYieldEiNS0_12FunctionKindE
Boostnote:_ZN2v88internal6Parser17LookupBreakTargetEPKNS0_12AstRawStringEPb
Boostnote:_ZN2v88internal6Parser17ParseExportClauseEPNS0_8ZoneListIPKNS0_12AstRawStringEEEPNS2_INS0_7Scanner8LocationEEES7_PS9_Pb
Boostnote:_ZN2v88internal6Parser17ParseNamedImportsEiPb
Boostnote:_ZN2v88internal6Parser17ParseOnBackgroundEPNS0_9ParseInfoE
Boostnote:_ZN2v88internal6Parser18BuildIteratorCloseEPNS0_8ZoneListIPNS0_9StatementEEEPNS0_8VariableES8_S8_NS0_12IteratorTypeE
Boostnote:_ZN2v88internal6Parser18BuildRejectPromiseEPNS0_10ExpressionEi
Boostnote:_ZN2v88internal6Parser18DefaultConstructorEPKNS0_12AstRawStringEbii
Boostnote:_ZN2v88internal6Parser18ParseExportDefaultEPb
Boostnote:_ZN2v88internal6Parser18ValidateCatchBlockERKNS0_10ParserBaseIS1_E9CatchInfoEPb
Boostnote:_ZN2v88internal6Parser19BuildResolvePromiseEPNS0_10ExpressionEi
Boostnote:_ZN2v88internal6Parser19FinalizeIteratorUseEPNS0_8VariableEPNS0_10ExpressionES3_PNS0_5BlockES7_NS0_12IteratorTypeE
Boostnote:_ZN2v88internal6Parser19NewTargetExpressionEi
Boostnote:_ZN2v88internal6Parser19OpenTemplateLiteralEi
Boostnote:_ZN2v88internal6Parser19ParseModuleItemListEPNS0_8ZoneListIPNS0_9StatementEEEPb
Boostnote:_ZN2v88internal6Parser19RewriteCatchPatternEPNS0_10ParserBaseIS1_E9CatchInfoEPb
Boostnote:_ZN2v88internal6Parser19RewriteDoExpressionEPNS0_5BlockEiPb
Boostnote:_ZN2v88internal6Parser19RewriteTryStatementEPNS0_5BlockES3_RKNS0_11SourceRangeES3_S6_RKNS0_10ParserBaseIS1_E9CatchInfoEi
Boostnote:_ZN2v88internal6Parser20BuildUnaryExpressionEPNS0_10ExpressionENS0_5Token5ValueEi
Boostnote:_ZN2v88internal6Parser20CloseTemplateLiteralEPPNS1_15TemplateLiteralEiPNS0_10ExpressionE
Boostnote:_ZN2v88internal6Parser20ImportMetaExpressionEi
Boostnote:_ZN2v88internal6Parser20LookupContinueTargetEPKNS0_12AstRawStringEPb
Boostnote:_ZN2v88internal6Parser20ParseFunctionLiteralEPKNS0_12AstRawStringENS0_7Scanner8LocationENS0_20FunctionNameValidityENS0_12FunctionKindEiNS0_15FunctionLiteral12FunctionTypeENS0_12LanguageModeEPNS0_8ZoneListIS4_EEPb
Boostnote:_ZN2v88internal6Parser20ParseModuleSpecifierEPb
Boostnote:_ZN2v88internal6Parser21AddTemplateExpressionEPPNS1_15TemplateLiteralEPNS0_10ExpressionE
Boostnote:_ZN2v88internal6Parser21DeserializeScopeChainEPNS0_7IsolateEPNS0_9ParseInfoENS0_11MaybeHandleINS0_9ScopeInfoEEE
Boostnote:_ZN2v88internal6Parser21ExpressionFromLiteralENS0_5Token5ValueEi
Boostnote:_ZN2v88internal6Parser21NewSuperCallReferenceEi
Boostnote:_ZN2v88internal6Parser21RewriteForVarInLegacyERKNS0_10ParserBaseIS1_E7ForInfoE
Boostnote:_ZN2v88internal6Parser22BuildAssertIsCoercibleEPNS0_8VariableEPNS0_13ObjectLiteralE
Boostnote:_ZN2v88internal6Parser22CollapseNaryExpressionEPPNS0_10ExpressionES3_NS0_5Token5ValueEiRKNS0_11SourceRangeE
Boostnote:_ZN2v88internal6Parser22DeclareFunctionNameVarEPKNS0_12AstRawStringENS0_15FunctionLiteral12FunctionTypeEPNS0_16DeclarationScopeE
Boostnote:_ZN2v88internal6Parser22FinalizeForOfStatementEPNS0_14ForOfStatementEPNS0_8VariableENS0_12IteratorTypeEi
Boostnote:_ZN2v88internal6Parser22ParseExportDeclarationEPb
Boostnote:_ZN2v88internal6Parser22ParseImportDeclarationEPb
Boostnote:_ZN2v88internal6Parser22RewriteSwitchStatementEPNS0_15SwitchStatementEPNS0_5ScopeE
Boostnote:_ZN2v88internal6Parser23BuildIteratorNextResultEPNS0_13VariableProxyES3_PNS0_8VariableENS0_12IteratorTypeEi
Boostnote:_ZN2v88internal6Parser23HandleSourceURLCommentsEPNS0_7IsolateENS0_6HandleINS0_6ScriptEEE
Boostnote:_ZN2v88internal6Parser23PrepareWrappedArgumentsEPNS0_7IsolateEPNS0_9ParseInfoEPNS0_4ZoneE
Boostnote:_ZN2v88internal6Parser24BuildInitializationBlockEPNS0_10ParserBaseIS1_E24DeclarationParsingResultEPNS0_8ZoneListIPKNS0_12AstRawStringEEEPb
Boostnote:_ZN2v88internal6Parser24InitializeForOfStatementEPNS0_14ForOfStatementEPNS0_10ExpressionES5_PNS0_9StatementEbNS0_12IteratorTypeEi
Boostnote:_ZN2v88internal6Parser24TargetStackContainsLabelEPKNS0_12AstRawStringE
Boostnote:_ZN2v88internal6Parser25CreateForEachStatementTDZEPNS0_5BlockERKNS0_10ParserBaseIS1_E7ForInfoEPb
Boostnote:_ZN2v88internal6Parser25CreateInitializerFunctionEPNS0_16DeclarationScopeEPNS0_8ZoneListIPNS0_20ClassLiteralPropertyEEE
Boostnote:_ZN2v88internal6Parser25NewSuperPropertyReferenceEi
Boostnote:_ZN2v88internal6Parser25PrepareGeneratorVariablesEv
Boostnote:_ZN2v88internal6Parser26ExpressionListToExpressionEPNS0_8ZoneListIPNS0_10ExpressionEEE
Boostnote:_ZN2v88internal6Parser26InitializeForEachStatementEPNS0_16ForEachStatementEPNS0_10ExpressionES5_PNS0_9StatementE
Boostnote:_ZN2v88internal6Parser27RewriteParameterInitializerEPNS0_10ExpressionE
Boostnote:_ZN2v88internal6Parser29BuildRejectPromiseOnExceptionEPNS0_5BlockE
Boostnote:_ZN2v88internal6Parser29DeclareAndInitializeVariablesEPNS0_5BlockEPKNS0_10ParserBaseIS1_E21DeclarationDescriptorEPKNS5_24DeclarationParsingResult11DeclarationEPNS0_8ZoneListIPKNS0_12AstRawStringEEEPb
Boostnote:_ZN2v88internal6Parser29IsPropertyWithPrivateFieldKeyEPNS0_10ExpressionE
Boostnote:_ZN2v88internal6Parser30ArrayLiteralFromListWithSpreadEPNS0_8ZoneListIPNS0_10ExpressionEEE
Boostnote:_ZN2v88internal6Parser30CreateSyntheticContextVariableEPKNS0_12AstRawStringEPb
Boostnote:_ZN2v88internal6Parser30RewriteDestructuringAssignmentEPNS0_10AssignmentE
Boostnote:_ZN2v88internal6Parser30RewriteDestructuringAssignmentEPNS0_20RewritableExpressionE
Boostnote:_ZN2v88internal6Parser31BuildIteratorCloseForCompletionEPNS0_8ZoneListIPNS0_9StatementEEEPNS0_8VariableEPNS0_10ExpressionENS0_12IteratorTypeE
Boostnote:_ZN2v88internal6Parser31CheckConflictingVarDeclarationsEPNS0_5ScopeEPb
Boostnote:_ZN2v88internal6Parser31SetFunctionNameFromPropertyNameEPNS0_15LiteralPropertyEPKNS0_12AstRawStringES6_
Boostnote:_ZN2v88internal6Parser31SetFunctionNameFromPropertyNameEPNS0_21ObjectLiteralPropertyEPKNS0_12AstRawStringES6_
Boostnote:_ZN2v88internal6Parser32AddArrowFunctionFormalParametersEPNS0_22ParserFormalParametersEPNS0_10ExpressionEiPb
Boostnote:_ZN2v88internal6Parser32DesugarBindingInForEachStatementEPNS0_10ParserBaseIS1_E7ForInfoEPPNS0_5BlockEPPNS0_10ExpressionEPb
Boostnote:_ZN2v88internal6Parser32SetFunctionNameFromIdentifierRefEPNS0_10ExpressionES3_
Boostnote:_ZN2v88internal6Parser33BuildParameterInitializationBlockERKNS0_22ParserFormalParametersEPb
Boostnote:_ZN2v88internal6Parser36DeclareArrowFunctionFormalParametersEPNS0_22ParserFormalParametersEPNS0_10ExpressionERKNS0_7Scanner8LocationEPS7_Pb
Boostnote:_ZN2v88internal6Parser36DesugarLexicalBindingsInForStatementEPNS0_12ForStatementEPNS0_9StatementEPNS0_10ExpressionES5_S5_PNS0_5ScopeERKNS0_10ParserBaseIS1_E7ForInfoEPb
Boostnote:_ZN2v88internal6Parser36InsertSloppyBlockFunctionVarBindingsEPNS0_16DeclarationScopeE
Boostnote:_ZN2v88internal6Parser36ParseAndRewriteGeneratorFunctionBodyEiNS0_12FunctionKindEPNS0_8ZoneListIPNS0_9StatementEEEPb
Boostnote:_ZN2v88internal6Parser37InsertShadowingVarBindingInitializersEPNS0_5BlockE
Boostnote:_ZN2v88internal6Parser38ShortcutNumericLiteralBinaryExpressionEPPNS0_10ExpressionES3_NS0_5Token5ValueEi
Boostnote:_ZN2v88internal6Parser41ParseAndRewriteAsyncGeneratorFunctionBodyEiNS0_12FunctionKindEPNS0_8ZoneListIPNS0_9StatementEEEPb
Boostnote:_ZN2v88internal6Parser7DeclareEPNS0_11DeclarationENS0_10ParserBaseIS1_E21DeclarationDescriptor4KindENS0_12VariableModeENS0_18InitializationFlagEPbPNS0_5ScopeEi
Boostnote:_ZN2v88internal6ParserC1EPNS0_9ParseInfoE
Boostnote:_ZN2v88internal6ParserC2EPNS0_9ParseInfoE
Boostnote:_ZN2v88internal6PrintFEPKcz
Boostnote:_ZN2v88internal6StrDupEPKc
Boostnote:_ZN2v88internal6String16SlowAsArrayIndexEPj
Boostnote:_ZN2v88internal6WasmJs7InstallEPNS0_7IsolateEb
Boostnote:_ZN2v88internal7Context13global_objectEv
Boostnote:_ZN2v88internal7Factory10NewForeignEmNS0_13PretenureFlagE
Boostnote:_ZN2v88internal7Factory10NewJSArrayENS0_12ElementsKindENS0_13PretenureFlagE
Boostnote:_ZN2v88internal7Factory10NewJSArrayENS0_12ElementsKindEiiNS0_26ArrayStorageAllocationModeENS0_13PretenureFlagE
Boostnote:_ZN2v88internal7Factory10NewJSProxyENS0_6HandleINS0_10JSReceiverEEES4_
Boostnote:_ZN2v88internal7Factory10NewOddballENS0_6HandleINS0_3MapEEEPKcNS2_INS0_6ObjectEEES6_hNS0_13PretenureFlagE
Boostnote:_ZN2v88internal7Factory10TryNewCodeERKNS0_8CodeDescENS0_4Code4KindENS0_6HandleINS0_6ObjectEEEiNS0_11MaybeHandleINS0_9ByteArrayEEENSA_INS0_18DeoptimizationDataEEENS0_10MovabilityEjbiii
Boostnote:_ZN2v88internal7Factory11CloneScriptENS0_6HandleINS0_6ScriptEEE
Boostnote:_ZN2v88internal7Factory11NewExternalEPv
Boostnote:_ZN2v88internal7Factory11NewFunctionENS0_6HandleINS0_3MapEEENS2_INS0_18SharedFunctionInfoEEENS2_INS0_7ContextEEENS0_13PretenureFlagE
Boostnote:_ZN2v88internal7Factory11NewFunctionERKNS0_15NewFunctionArgsE
Boostnote:_ZN2v88internal7Factory11NewJSObjectENS0_6HandleINS0_10JSFunctionEEENS0_13PretenureFlagE
Boostnote:_ZN2v88internal7Factory11NewWeakCellENS0_6HandleINS0_10HeapObjectEEENS0_13PretenureFlagE
Boostnote:_ZN2v88internal7Factory12CopyJSObjectENS0_6HandleINS0_8JSObjectEEE
Boostnote:_ZN2v88internal7Factory12NewByteArrayEiNS0_13PretenureFlagE
Boostnote:_ZN2v88internal7Factory12NewDebugInfoENS0_6HandleINS0_18SharedFunctionInfoEEE
Boostnote:_ZN2v88internal7Factory12NewEnumCacheENS0_6HandleINS0_10FixedArrayEEES4_
Boostnote:_ZN2v88internal7Factory12NewEvalErrorENS0_15MessageTemplate8TemplateENS0_6HandleINS0_6ObjectEEES6_S6_
Boostnote:_ZN2v88internal7Factory12NewJSPromiseENS0_13PretenureFlagE
Boostnote:_ZN2v88internal7Factory12NewJSWeakMapEv
Boostnote:_ZN2v88internal7Factory12NewScopeInfoEi
Boostnote:_ZN2v88internal7Factory12NewTypeErrorENS0_15MessageTemplate8TemplateENS0_6HandleINS0_6ObjectEEES6_S6_
Boostnote:_ZN2v88internal7Factory13InitializeMapEPNS0_3MapENS0_12InstanceTypeEiNS0_12ElementsKindEi
Boostnote:_ZN2v88internal7Factory13NewBreakPointEiNS0_6HandleINS0_6StringEEE
Boostnote:_ZN2v88internal7Factory13NewConsStringENS0_6HandleINS0_6StringEEES4_
Boostnote:_ZN2v88internal7Factory13NewConsStringENS0_6HandleINS0_6StringEEES4_ib
Boostnote:_ZN2v88internal7Factory13NewFixedArrayEiNS0_13PretenureFlagE
Boostnote:_ZN2v88internal7Factory13NewFrameArrayEiNS0_13PretenureFlagE
Boostnote:_ZN2v88internal7Factory13NewHeapNumberENS0_13PretenureFlagE
Boostnote:_ZN2v88internal7Factory13NewJSDataViewENS0_6HandleINS0_13JSArrayBufferEEEmm
Boostnote:_ZN2v88internal7Factory13NewModuleInfoEv
Boostnote:_ZN2v88internal7Factory13NewRangeErrorENS0_15MessageTemplate8TemplateENS0_6HandleINS0_6ObjectEEES6_S6_
Boostnote:_ZN2v88internal7Factory14CopyFixedArrayENS0_6HandleINS0_10FixedArrayEEE
Boostnote:_ZN2v88internal7Factory14NewLoadHandlerEi
Boostnote:_ZN2v88internal7Factory14NewSyntaxErrorENS0_15MessageTemplate8TemplateENS0_6HandleINS0_6ObjectEEES6_S6_
Boostnote:_ZN2v88internal7Factory14NewWithContextENS0_6HandleINS0_7ContextEEENS2_INS0_9ScopeInfoEEENS2_INS0_10JSReceiverEEE
Boostnote:_ZN2v88internal7Factory14NumberToStringENS0_6HandleINS0_6ObjectEEEb
Boostnote:_ZN2v88internal7Factory15NewAccessorInfoEv
Boostnote:_ZN2v88internal7Factory15NewAccessorPairEv
Boostnote:_ZN2v88internal7Factory15NewBlockContextENS0_6HandleINS0_7ContextEEENS2_INS0_9ScopeInfoEEE
Boostnote:_ZN2v88internal7Factory15NewCallableTaskENS0_6HandleINS0_10JSReceiverEEENS2_INS0_7ContextEEE
Boostnote:_ZN2v88internal7Factory15NewCallbackTaskENS0_6HandleINS0_7ForeignEEES4_
Boostnote:_ZN2v88internal7Factory15NewCatchContextENS0_6HandleINS0_7ContextEEENS2_INS0_9ScopeInfoEEENS2_INS0_6ObjectEEE
Boostnote:_ZN2v88internal7Factory15NewCoverageInfoERKNS0_10ZoneVectorINS0_11SourceRangeEEE
Boostnote:_ZN2v88internal7Factory15NewFillerObjectEibNS0_15AllocationSpaceE
Boostnote:_ZN2v88internal7Factory15NewJSTypedArrayENS0_12ElementsKindENS0_13PretenureFlagE
Boostnote:_ZN2v88internal7Factory15NewJSTypedArrayENS0_12ElementsKindEmNS0_13PretenureFlagE
Boostnote:_ZN2v88internal7Factory15NewJSTypedArrayENS0_17ExternalArrayTypeENS0_13PretenureFlagE
Boostnote:_ZN2v88internal7Factory15NewJSTypedArrayENS0_17ExternalArrayTypeENS0_6HandleINS0_13JSArrayBufferEEEmmNS0_13PretenureFlagE
Boostnote:_ZN2v88internal7Factory15NewPropertyCellENS0_6HandleINS0_4NameEEENS0_13PretenureFlagE
Boostnote:_ZN2v88internal7Factory15NewScriptWithIdENS0_6HandleINS0_6StringEEEiNS0_13PretenureFlagE
Boostnote:_ZN2v88internal7Factory15NewStoreHandlerEi
Boostnote:_ZN2v88internal7Factory16AllocateRawArrayEiNS0_13PretenureFlagE
Boostnote:_ZN2v88internal7Factory16NewBytecodeArrayEiPKhiiNS0_6HandleINS0_10FixedArrayEEE
Boostnote:_ZN2v88internal7Factory16NewJSArrayBufferENS0_10SharedFlagENS0_13PretenureFlagE
Boostnote:_ZN2v88internal7Factory16NewJSMapIteratorENS0_6HandleINS0_3MapEEENS2_INS0_14OrderedHashMapEEEi
Boostnote:_ZN2v88internal7Factory16NewJSSetIteratorENS0_6HandleINS0_3MapEEENS2_INS0_14OrderedHashSetEEEi
Boostnote:_ZN2v88internal7Factory16NewModuleContextENS0_6HandleINS0_6ModuleEEENS2_INS0_7ContextEEENS2_INS0_9ScopeInfoEEE
Boostnote:_ZN2v88internal7Factory16NewNativeContextEv
Boostnote:_ZN2v88internal7Factory16NewNumberFromIntEiNS0_13PretenureFlagE
Boostnote:_ZN2v88internal7Factory16NewPrivateSymbolENS0_13PretenureFlagE
Boostnote:_ZN2v88internal7Factory16NewPropertyArrayEiNS0_13PretenureFlagE
Boostnote:_ZN2v88internal7Factory16NewPrototypeInfoEv
Boostnote:_ZN2v88internal7Factory16NewScriptContextENS0_6HandleINS0_7ContextEEENS2_INS0_9ScopeInfoEEE
Boostnote:_ZN2v88internal7Factory16NewWasmLinkErrorENS0_15MessageTemplate8TemplateENS0_6HandleINS0_6ObjectEEES6_S6_
Boostnote:_ZN2v88internal7Factory16TryNewFixedArrayEiNS0_13PretenureFlagE
Boostnote:_ZN2v88internal7Factory17CopyBytecodeArrayENS0_6HandleINS0_13BytecodeArrayEEE
Boostnote:_ZN2v88internal7Factory17GlobalConstantForENS0_6HandleINS0_4NameEEE
Boostnote:_ZN2v88internal7Factory17NewAllocationSiteEb
Boostnote:_ZN2v88internal7Factory17NewBreakPointInfoEi
Boostnote:_ZN2v88internal7Factory17NewBuiltinContextENS0_6HandleINS0_7ContextEEEi
Boostnote:_ZN2v88internal7Factory17NewFeedbackVectorENS0_6HandleINS0_18SharedFunctionInfoEEENS0_13PretenureFlagE
Boostnote:_ZN2v88internal7Factory17NewJSArrayStorageENS0_6HandleINS0_7JSArrayEEEiiNS0_26ArrayStorageAllocationModeE
Boostnote:_ZN2v88internal7Factory17NewJSGlobalObjectENS0_6HandleINS0_10JSFunctionEEE
Boostnote:_ZN2v88internal7Factory17NewNoClosuresCellENS0_6HandleINS0_10HeapObjectEEE
Boostnote:_ZN2v88internal7Factory17NewNumberFromUintEjNS0_13PretenureFlagE
Boostnote:_ZN2v88internal7Factory17NewOneClosureCellENS0_6HandleINS0_10HeapObjectEEE
Boostnote:_ZN2v88internal7Factory17NewOrderedHashMapEv
Boostnote:_ZN2v88internal7Factory17NewOrderedHashSetEv
Boostnote:_ZN2v88internal7Factory17NewReferenceErrorENS0_15MessageTemplate8TemplateENS0_6HandleINS0_6ObjectEEES6_S6_
Boostnote:_ZN2v88internal7Factory17NewStackFrameInfoEv
Boostnote:_ZN2v88internal7Factory17NewStringFromUtf8ENS0_6VectorIKcEENS0_13PretenureFlagE
Boostnote:_ZN2v88internal7Factory17NewWeakFixedArrayEiNS0_13PretenureFlagE
Boostnote:_ZN2v88internal7Factory17SetRegExpAtomDataENS0_6HandleINS0_8JSRegExpEEENS3_4TypeENS2_INS0_6StringEEENS_4base5FlagsINS3_4FlagEiEENS2_INS0_6ObjectEEE
Boostnote:_ZN2v88internal7Factory18CopyFeedbackVectorENS0_6HandleINS0_14FeedbackVectorEEE
Boostnote:_ZN2v88internal7Factory18CopyFixedArrayUpToENS0_6HandleINS0_10FixedArrayEEEiNS0_13PretenureFlagE
Boostnote:_ZN2v88internal7Factory18NewArgumentsObjectENS0_6HandleINS0_10JSFunctionEEEi
Boostnote:_ZN2v88internal7Factory18NewCallHandlerInfoEb
Boostnote:_ZN2v88internal7Factory18NewFixedTypedArrayEmmNS0_17ExternalArrayTypeEbNS0_13PretenureFlagE
Boostnote:_ZN2v88internal7Factory18NewFunctionContextENS0_6HandleINS0_7ContextEEENS2_INS0_9ScopeInfoEEE
Boostnote:_ZN2v88internal7Factory18NewFunctionForTestENS0_6HandleINS0_6StringEEE
Boostnote:_ZN2v88internal7Factory18NewJSBoundFunctionENS0_6HandleINS0_10JSReceiverEEENS2_INS0_6ObjectEEENS0_6VectorIS6_EE
Boostnote:_ZN2v88internal7Factory18NewJSMessageObjectENS0_15MessageTemplate8TemplateENS0_6HandleINS0_6ObjectEEEiiNS4_INS0_6ScriptEEES6_
Boostnote:_ZN2v88internal7Factory18NewJSObjectFromMapENS0_6HandleINS0_3MapEEENS0_13PretenureFlagENS2_INS0_14AllocationSiteEEE
Boostnote:_ZN2v88internal7Factory18NewProperSubStringENS0_6HandleINS0_6StringEEEii
Boostnote:_ZN2v88internal7Factory18NewRegExpMatchInfoEv
Boostnote:_ZN2v88internal7Factory18NewTransitionArrayEii
Boostnote:_ZN2v88internal7Factory19NewFeedbackMetadataEiNS0_13PretenureFlagE
Boostnote:_ZN2v88internal7Factory19NewFixedDoubleArrayEiNS0_13PretenureFlagE
Boostnote:_ZN2v88internal7Factory19NewJSIteratorResultENS0_6HandleINS0_6ObjectEEEb
Boostnote:_ZN2v88internal7Factory19NewJSStringIteratorENS0_6HandleINS0_6StringEEE
Boostnote:_ZN2v88internal7Factory19NewManyClosuresCellENS0_6HandleINS0_10HeapObjectEEE
Boostnote:_ZN2v88internal7Factory19NewRawOneByteStringEiNS0_13PretenureFlagE
Boostnote:_ZN2v88internal7Factory19NewRawTwoByteStringEiNS0_13PretenureFlagE
Boostnote:_ZN2v88internal7Factory19NewWasmCompileErrorENS0_15MessageTemplate8TemplateENS0_6HandleINS0_6ObjectEEES6_S6_
Boostnote:_ZN2v88internal7Factory19NewWasmRuntimeErrorENS0_15MessageTemplate8TemplateENS0_6HandleINS0_6ObjectEEES6_S6_
Boostnote:_ZN2v88internal7Factory20CopyFixedDoubleArrayENS0_6HandleINS0_16FixedDoubleArrayEEE
Boostnote:_ZN2v88internal7Factory20GetNumberStringCacheENS0_6HandleINS0_6ObjectEEE
Boostnote:_ZN2v88internal7Factory20NewCodeDataContainerEi
Boostnote:_ZN2v88internal7Factory20NewFunctionPrototypeENS0_6HandleINS0_10JSFunctionEEE
Boostnote:_ZN2v88internal7Factory20NewJSGeneratorObjectENS0_6HandleINS0_10JSFunctionEEE
Boostnote:_ZN2v88internal7Factory20NewJSModuleNamespaceEv
Boostnote:_ZN2v88internal7Factory20NewMutableHeapNumberENS0_13PretenureFlagE
Boostnote:_ZN2v88internal7Factory20NewStringFromOneByteENS0_6VectorIKhEENS0_13PretenureFlagE
Boostnote:_ZN2v88internal7Factory20NewStringFromTwoByteENS0_6VectorIKtEENS0_13PretenureFlagE
Boostnote:_ZN2v88internal7Factory20NewStringFromTwoByteEPKNS0_10ZoneVectorItEENS0_13PretenureFlagE
Boostnote:_ZN2v88internal7Factory20NewStringFromTwoByteEPKtiNS0_13PretenureFlagE
Boostnote:_ZN2v88internal7Factory20SetNumberStringCacheENS0_6HandleINS0_6ObjectEEENS2_INS0_6StringEEE
Boostnote:_ZN2v88internal7Factory21AllocateRawFixedArrayEiNS0_13PretenureFlagE
Boostnote:_ZN2v88internal7Factory21CopyFixedArrayAndGrowENS0_6HandleINS0_10FixedArrayEEEiNS0_13PretenureFlagE
Boostnote:_ZN2v88internal7Factory21CopyFixedArrayWithMapENS0_6HandleINS0_10FixedArrayEEENS2_INS0_3MapEEE
Boostnote:_ZN2v88internal7Factory21InternalizeUtf8StringENS0_6VectorIKcEE
Boostnote:_ZN2v88internal7Factory21NewNativeSourceStringEPKNS_6String29ExternalOneByteStringResourceE
Boostnote:_ZN2v88internal7Factory21NewPreParsedScopeDataEi
Boostnote:_ZN2v88internal7Factory21NewPrivateFieldSymbolEv
Boostnote:_ZN2v88internal7Factory21NewScriptContextTableEv
Boostnote:_ZN2v88internal7Factory21NewSharedFunctionInfoENS0_11MaybeHandleINS0_6StringEEENS2_INS0_10HeapObjectEEEiNS0_12FunctionKindE
Boostnote:_ZN2v88internal7Factory21SetRegExpIrregexpDataENS0_6HandleINS0_8JSRegExpEEENS3_4TypeENS2_INS0_6StringEEENS_4base5FlagsINS3_4FlagEiEEi
Boostnote:_ZN2v88internal7Factory21ToPrimitiveHintStringENS0_15ToPrimitiveHintE
Boostnote:_ZN2v88internal7Factory22CreateClassFunctionMapENS0_6HandleINS0_10JSFunctionEEE
Boostnote:_ZN2v88internal7Factory22InitializeJSObjectBodyENS0_6HandleINS0_8JSObjectEEENS2_INS0_3MapEEEi
Boostnote:_ZN2v88internal7Factory22NewFixedArrayWithHolesEiNS0_13PretenureFlagE
Boostnote:_ZN2v88internal7Factory22NewJSArrayWithElementsENS0_6HandleINS0_14FixedArrayBaseEEENS0_12ElementsKindEiNS0_13PretenureFlagE
Boostnote:_ZN2v88internal7Factory22NewSelfReferenceMarkerENS0_13PretenureFlagE
Boostnote:_ZN2v88internal7Factory22NewSlowJSObjectFromMapENS0_6HandleINS0_3MapEEEiNS0_13PretenureFlagE
Boostnote:_ZN2v88internal7Factory22NewSmallOrderedHashMapEiNS0_13PretenureFlagE
Boostnote:_ZN2v88internal7Factory22NewSmallOrderedHashSetEiNS0_13PretenureFlagE
Boostnote:_ZN2v88internal7Factory22NewSurrogatePairStringEtt
Boostnote:_ZN2v88internal7Factory23CreateSloppyFunctionMapENS0_12FunctionModeENS0_11MaybeHandleINS0_10JSFunctionEEE
Boostnote:_ZN2v88internal7Factory23CreateStrictFunctionMapENS0_12FunctionModeENS0_6HandleINS0_10JSFunctionEEE
Boostnote:_ZN2v88internal7Factory23NewDebugEvaluateContextENS0_6HandleINS0_7ContextEEENS2_INS0_9ScopeInfoEEENS2_INS0_10JSReceiverEEES4_NS2_INS0_9StringSetEEE
Boostnote:_ZN2v88internal7Factory23NewFixedArrayWithFillerENS0_4Heap13RootListIndexEiPNS0_6ObjectENS0_13PretenureFlagE
Boostnote:_ZN2v88internal7Factory23NewJSPromiseWithoutHookENS0_13PretenureFlagE
Boostnote:_ZN2v88internal7Factory23NewOffHeapTrampolineForENS0_6HandleINS0_4CodeEEEm
Boostnote:_ZN2v88internal7Factory24AllocateRawWeakArrayListEiNS0_13PretenureFlagE
Boostnote:_ZN2v88internal7Factory24CopyPropertyArrayAndGrowENS0_6HandleINS0_13PropertyArrayEEEiNS0_13PretenureFlagE
Boostnote:_ZN2v88internal7Factory24CopyWeakArrayListAndGrowENS0_6HandleINS0_13WeakArrayListEEEiNS0_13PretenureFlagE
Boostnote:_ZN2v88internal7Factory24InternalizeOneByteStringENS0_6HandleINS0_16SeqOneByteStringEEEii
Boostnote:_ZN2v88internal7Factory24InternalizeOneByteStringENS0_6VectorIKhEE
Boostnote:_ZN2v88internal7Factory24InternalizeTwoByteStringENS0_6VectorIKtEE
Boostnote:_ZN2v88internal7Factory24NewAliasedArgumentsEntryEi
Boostnote:_ZN2v88internal7Factory24NewJSObjectWithNullProtoENS0_13PretenureFlagE
Boostnote:_ZN2v88internal7Factory25CopyWeakFixedArrayAndGrowENS0_6HandleINS0_14WeakFixedArrayEEEiNS0_13PretenureFlagE
Boostnote:_ZN2v88internal7Factory25InitializeJSObjectFromMapENS0_6HandleINS0_8JSObjectEEENS2_INS0_6ObjectEEENS2_INS0_3MapEEE
Boostnote:_ZN2v88internal7Factory25NewCodeForDeserializationEj
Boostnote:_ZN2v88internal7Factory25NewInternalizedStringImplENS0_6HandleINS0_6StringEEEij
Boostnote:_ZN2v88internal7Factory25ObjectLiteralMapFromCacheENS0_6HandleINS0_7ContextEEEi
Boostnote:_ZN2v88internal7Factory25ReinitializeJSGlobalProxyENS0_6HandleINS0_13JSGlobalProxyEEENS2_INS0_10JSFunctionEEE
Boostnote:_ZN2v88internal7Factory26AllocateRawWithImmortalMapEiNS0_13PretenureFlagEPNS0_3MapENS0_19AllocationAlignmentE
Boostnote:_ZN2v88internal7Factory26CopyAndTenureFixedCOWArrayENS0_6HandleINS0_10FixedArrayEEE
Boostnote:_ZN2v88internal7Factory26NewJSAsyncFromSyncIteratorENS0_6HandleINS0_10JSReceiverEEENS2_INS0_6ObjectEEE
Boostnote:_ZN2v88internal7Factory26NewStringFromUtf8SubStringENS0_6HandleINS0_16SeqOneByteStringEEEiiNS0_13PretenureFlagE
Boostnote:_ZN2v88internal7Factory26NewUninitializedFixedArrayEiNS0_13PretenureFlagE
Boostnote:_ZN2v88internal7Factory26TypeAndSizeForElementsKindENS0_12ElementsKindEPNS0_17ExternalArrayTypeEPm
Boostnote:_ZN2v88internal7Factory27InitializeAllocationMementoEPNS0_17AllocationMementoEPNS0_14AllocationSiteE
Boostnote:_ZN2v88internal7Factory27NewInvalidStringLengthErrorEv
Boostnote:_ZN2v88internal7Factory28NewExternalStringFromOneByteEPKNS_6String29ExternalOneByteStringResourceE
Boostnote:_ZN2v88internal7Factory28NewExternalStringFromTwoByteEPKNS_6String22ExternalStringResourceE
Boostnote:_ZN2v88internal7Factory28NewFixedDoubleArrayWithHolesEiNS0_13PretenureFlagE
Boostnote:_ZN2v88internal7Factory28NewOneByteInternalizedStringENS0_6VectorIKhEEj
Boostnote:_ZN2v88internal7Factory28NewTemplateObjectDescriptionENS0_6HandleINS0_10FixedArrayEEES4_
Boostnote:_ZN2v88internal7Factory28NewTwoByteInternalizedStringENS0_6VectorIKtEEj
Boostnote:_ZN2v88internal7Factory29AllocateRawWithAllocationSiteENS0_6HandleINS0_3MapEEENS0_13PretenureFlagENS2_INS0_14AllocationSiteEEE
Boostnote:_ZN2v88internal7Factory29NewInternalizedStringFromUtf8ENS0_6VectorIKcEEij
Boostnote:_ZN2v88internal7Factory29NewUninitializedJSGlobalProxyEi
Boostnote:_ZN2v88internal7Factory30CopyJSObjectWithAllocationSiteENS0_6HandleINS0_8JSObjectEEENS2_INS0_14AllocationSiteEEE
Boostnote:_ZN2v88internal7Factory30InternalizedStringMapForStringENS0_6HandleINS0_6StringEEE
Boostnote:_ZN2v88internal7Factory30NewArrayBoilerplateDescriptionENS0_12ElementsKindENS0_6HandleINS0_14FixedArrayBaseEEE
Boostnote:_ZN2v88internal7Factory31NewObjectBoilerplateDescriptionEiiib
Boostnote:_ZN2v88internal7Factory31NewOneByteInternalizedSubStringENS0_6HandleINS0_16SeqOneByteStringEEEiij
Boostnote:_ZN2v88internal7Factory31NewSharedFunctionInfoForBuiltinENS0_11MaybeHandleINS0_6StringEEEiNS0_12FunctionKindE
Boostnote:_ZN2v88internal7Factory31NewSharedFunctionInfoForLiteralEPNS0_15FunctionLiteralENS0_6HandleINS0_6ScriptEEEb
Boostnote:_ZN2v88internal7Factory32NewPromiseResolveThenableJobTaskENS0_6HandleINS0_9JSPromiseEEENS2_INS0_10JSReceiverEEES6_NS2_INS0_7ContextEEE
Boostnote:_ZN2v88internal7Factory33AllocateTwoByteInternalizedStringENS0_6VectorIKtEEj
Boostnote:_ZN2v88internal7Factory33NewFunctionFromSharedFunctionInfoENS0_6HandleINS0_18SharedFunctionInfoEEENS2_INS0_7ContextEEENS0_13PretenureFlagE
Boostnote:_ZN2v88internal7Factory33NewFunctionFromSharedFunctionInfoENS0_6HandleINS0_18SharedFunctionInfoEEENS2_INS0_7ContextEEENS2_INS0_12FeedbackCellEEENS0_13PretenureFlagE
Boostnote:_ZN2v88internal7Factory33NewFunctionFromSharedFunctionInfoENS0_6HandleINS0_3MapEEENS2_INS0_18SharedFunctionInfoEEENS2_INS0_7ContextEEENS0_13PretenureFlagE
Boostnote:_ZN2v88internal7Factory33NewFunctionFromSharedFunctionInfoENS0_6HandleINS0_3MapEEENS2_INS0_18SharedFunctionInfoEEENS2_INS0_7ContextEEENS2_INS0_12FeedbackCellEEENS0_13PretenureFlagE
Boostnote:_ZN2v88internal7Factory35LookupSingleCharacterStringFromCodeEj
Boostnote:_ZN2v88internal7Factory35NewSharedFunctionInfoForApiFunctionENS0_11MaybeHandleINS0_6StringEEENS0_6HandleINS0_20FunctionTemplateInfoEEENS0_12FunctionKindE
Boostnote:_ZN2v88internal7Factory35NewUncompiledDataWithPreParsedScopeEiiiNS0_6HandleINS0_18PreParsedScopeDataEEE
Boostnote:_ZN2v88internal7Factory36AllocateRawOneByteInternalizedStringEij
Boostnote:_ZN2v88internal7Factory36NewSourcePositionTableWithFrameCacheENS0_6HandleINS0_9ByteArrayEEENS2_INS0_22SimpleNumberDictionaryEEE
Boostnote:_ZN2v88internal7Factory37NewFixedTypedArrayWithExternalPointerEiNS0_17ExternalArrayTypeEPvNS0_13PretenureFlagE
Boostnote:_ZN2v88internal7Factory38NewUncompiledDataWithoutPreParsedScopeEiii
Boostnote:_ZN2v88internal7Factory3NewENS0_6HandleINS0_3MapEEENS0_13PretenureFlagE
Boostnote:_ZN2v88internal7Factory6NewMapENS0_12InstanceTypeEiNS0_12ElementsKindEi
Boostnote:_ZN2v88internal7Factory7NewCellENS0_6HandleINS0_6ObjectEEE
Boostnote:_ZN2v88internal7Factory7NewCodeERKNS0_8CodeDescENS0_4Code4KindENS0_6HandleINS0_6ObjectEEEiNS0_11MaybeHandleINS0_9ByteArrayEEENSA_INS0_18DeoptimizationDataEEENS0_10MovabilityEjbiii
Boostnote:_ZN2v88internal7Factory8CopyCodeENS0_6HandleINS0_4CodeEEE
Boostnote:_ZN2v88internal7Factory8NewErrorENS0_15MessageTemplate8TemplateENS0_6HandleINS0_6ObjectEEES6_S6_
Boostnote:_ZN2v88internal7Factory8NewErrorENS0_6HandleINS0_10JSFunctionEEENS0_15MessageTemplate8TemplateENS2_INS0_6ObjectEEES8_S8_
Boostnote:_ZN2v88internal7Factory8NewErrorENS0_6HandleINS0_10JSFunctionEEENS2_INS0_6StringEEE
Boostnote:_ZN2v88internal7Factory8NewJSMapEv
Boostnote:_ZN2v88internal7Factory8NewJSSetEv
Boostnote:_ZN2v88internal7Factory9NewBigIntEiNS0_13PretenureFlagE
Boostnote:_ZN2v88internal7Factory9NewModuleENS0_6HandleINS0_18SharedFunctionInfoEEE
Boostnote:_ZN2v88internal7Factory9NewNumberEdNS0_13PretenureFlagE
Boostnote:_ZN2v88internal7Factory9NewScriptENS0_6HandleINS0_6StringEEENS0_13PretenureFlagE
Boostnote:_ZN2v88internal7Factory9NewStructENS0_12InstanceTypeENS0_13PretenureFlagE
Boostnote:_ZN2v88internal7Factory9NewSymbolENS0_13PretenureFlagE
Boostnote:_ZN2v88internal7Factory9NewTuple2ENS0_6HandleINS0_6ObjectEEES4_NS0_13PretenureFlagE
Boostnote:_ZN2v88internal7Factory9NewTuple3ENS0_6HandleINS0_6ObjectEEES4_S4_NS0_13PretenureFlagE
Boostnote:_ZN2v88internal7Factory9ToBooleanEb
Boostnote:_ZN2v88internal7Isolate10PrintStackEP8_IO_FILENS1_14PrintStackModeE
Boostnote:_ZN2v88internal7Isolate10fuzzer_rngEv
Boostnote:_ZN2v88internal7Isolate23random_number_generatorEv
Boostnote:_ZN2v88internal7Isolate27OptionalRescheduleExceptionEb
Boostnote:_ZN2v88internal7Isolate30InvalidatePromiseHookProtectorEv
Boostnote:_ZN2v88internal7Runtime13FunctionForIdENS1_10FunctionIdE
Boostnote:_ZN2v88internal7parsing12ParseProgramEPNS0_9ParseInfoEPNS0_7IsolateE
Boostnote:_ZN2v88internal7parsing13ParseFunctionEPNS0_9ParseInfoENS0_6HandleINS0_18SharedFunctionInfoEEEPNS0_7IsolateE
Boostnote:_ZN2v88internal7parsing8ParseAnyEPNS0_9ParseInfoENS0_6HandleINS0_18SharedFunctionInfoEEEPNS0_7IsolateE
Boostnote:_ZN2v88internal8Builtins11CallableForEPNS0_7IsolateENS1_4NameE
Boostnote:_ZN2v88internal8Builtins14builtin_handleEi
Boostnote:_ZN2v88internal8Compiler15ParseAndAnalyzeEPNS0_9ParseInfoENS0_6HandleINS0_18SharedFunctionInfoEEEPNS0_7IsolateE
Boostnote:_ZN2v88internal8Compiler16CompileOptimizedENS0_6HandleINS0_10JSFunctionEEENS0_15ConcurrencyModeE
Boostnote:_ZN2v88internal8Compiler17PostInstantiationENS0_6HandleINS0_10JSFunctionEEENS0_13PretenureFlagE
Boostnote:_ZN2v88internal8Compiler18CompileForLiveEditEPNS0_9ParseInfoEPNS0_7IsolateE
Boostnote:_ZN2v88internal8Compiler18GetWrappedFunctionENS0_6HandleINS0_6StringEEENS2_INS0_10FixedArrayEEENS2_INS0_7ContextEEERKNS1_13ScriptDetailsENS_19ScriptOriginOptionsEPNS0_10ScriptDataENS_14ScriptCompiler14CompileOptionsENSF_13NoCacheReasonE
Boostnote:_ZN2v88internal8Compiler19GetFunctionFromEvalENS0_6HandleINS0_6StringEEENS2_INS0_18SharedFunctionInfoEEENS2_INS0_7ContextEEENS0_12LanguageModeENS0_16ParseRestrictionEiiiiiNS2_INS0_6ObjectEEENS_19ScriptOriginOptionsE
Boostnote:_ZN2v88internal8Compiler21GetFunctionFromStringENS0_6HandleINS0_7ContextEEENS2_INS0_6StringEEENS0_16ParseRestrictionEi
Boostnote:_ZN2v88internal8Compiler21GetSharedFunctionInfoEPNS0_15FunctionLiteralENS0_6HandleINS0_6ScriptEEEPNS0_7IsolateE
Boostnote:_ZN2v88internal8Compiler22FinalizeCompilationJobEPNS0_23OptimizedCompilationJobEPNS0_7IsolateE
Boostnote:_ZN2v88internal8Compiler22FinalizeCompilationJobEPNS0_25UnoptimizedCompilationJobENS0_6HandleINS0_18SharedFunctionInfoEEEPNS0_7IsolateE
Boostnote:_ZN2v88internal8Compiler22GetOptimizedCodeForOSRENS0_6HandleINS0_10JSFunctionEEENS0_9BailoutIdEPNS0_15JavaScriptFrameE
Boostnote:_ZN2v88internal8Compiler24NewBackgroundCompileTaskEPNS0_19ScriptStreamingDataEPNS0_7IsolateE
Boostnote:_ZN2v88internal8Compiler30GetSharedFunctionInfoForScriptENS0_6HandleINS0_6StringEEERKNS1_13ScriptDetailsENS_19ScriptOriginOptionsEPNS_9ExtensionEPNS0_10ScriptDataENS_14ScriptCompiler14CompileOptionsENSD_13NoCacheReasonENS0_11NativesFlagE
Boostnote:_ZN2v88internal8Compiler32CodeGenerationFromStringsAllowedEPNS0_7IsolateENS0_6HandleINS0_7ContextEEENS4_INS0_6StringEEE
Boostnote:_ZN2v88internal8Compiler38GetSharedFunctionInfoForStreamedScriptENS0_6HandleINS0_6StringEEERKNS1_13ScriptDetailsENS_19ScriptOriginOptionsEPNS0_19ScriptStreamingDataE
Boostnote:_ZN2v88internal8Compiler7AnalyzeEPNS0_9ParseInfoE
Boostnote:_ZN2v88internal8Compiler7CompileENS0_6HandleINS0_10JSFunctionEEENS1_18ClearExceptionFlagE
Boostnote:_ZN2v88internal8Compiler7CompileENS0_6HandleINS0_18SharedFunctionInfoEEENS1_18ClearExceptionFlagE
Boostnote:_ZN2v88internal8FLAG_logE
Boostnote:_ZN2v88internal8FLAG_optE
Boostnote:_ZN2v88internal8FlagList13ResetAllFlagsEv
Boostnote:_ZN2v88internal8FlagList18SetFlagsFromStringEPKci
Boostnote:_ZN2v88internal8FlagList23EnforceFlagImplicationsEv
Boostnote:_ZN2v88internal8FlagList23SetFlagsFromCommandLineEPiPPcb
Boostnote:_ZN2v88internal8FlagList4HashEv
Boostnote:_ZN2v88internal8FlagList4argvEv
Boostnote:_ZN2v88internal8FlagList9PrintHelpEv
Boostnote:_ZN2v88internal8FreeList10FindNodeInENS0_20FreeListCategoryTypeEmPm
Boostnote:_ZN2v88internal8FreeList11AddCategoryEPNS0_16FreeListCategoryE
Boostnote:_ZN2v88internal8FreeList11RepairListsEPNS0_4HeapE
Boostnote:_ZN2v88internal8FreeList13TryFindNodeInENS0_20FreeListCategoryTypeEmPm
Boostnote:_ZN2v88internal8FreeList14RemoveCategoryEPNS0_16FreeListCategoryE
Boostnote:_ZN2v88internal8FreeList15PrintCategoriesENS0_20FreeListCategoryTypeE
Boostnote:_ZN2v88internal8FreeList18EvictFreeListItemsEPNS0_4PageE
Boostnote:_ZN2v88internal8FreeList19SearchForNodeInListENS0_20FreeListCategoryTypeEPmm
Boostnote:_ZN2v88internal8FreeList25ContainsPageFreeListItemsEPNS0_4PageE
Boostnote:_ZN2v88internal8FreeList4FreeEmmNS0_8FreeModeE
Boostnote:_ZN2v88internal8FreeList5ResetEv
Boostnote:_ZN2v88internal8FreeList8AllocateEmPm
Boostnote:_ZN2v88internal8FreeListC1Ev
Boostnote:_ZN2v88internal8FreeListC2Ev
Boostnote:_ZN2v88internal8GCTracer12AverageSpeedERKNS_4base10RingBufferINSt3__14pairImdEEEE
Boostnote:_ZN2v88internal8GCTracer12AverageSpeedERKNS_4base10RingBufferINSt3__14pairImdEEEERKS6_d
Boostnote:_ZN2v88internal8GCTracer13AddAllocationEd
Boostnote:_ZN2v88internal8GCTracer15BackgroundScope4NameENS2_7ScopeIdE
Boostnote:_ZN2v88internal8GCTracer15BackgroundScopeC1EPS1_NS2_7ScopeIdE
Boostnote:_ZN2v88internal8GCTracer15BackgroundScopeC2EPS1_NS2_7ScopeIdE
Boostnote:_ZN2v88internal8GCTracer15BackgroundScopeD1Ev
Boostnote:_ZN2v88internal8GCTracer15BackgroundScopeD2Ev
Boostnote:_ZN2v88internal8GCTracer15ResetForTestingEv
Boostnote:_ZN2v88internal8GCTracer16AddSurvivalRatioEd
Boostnote:_ZN2v88internal8GCTracer16SampleAllocationEdmm
Boostnote:_ZN2v88internal8GCTracer18AddCompactionEventEdm
Boostnote:_ZN2v88internal8GCTracer19RCSCounterFromScopeENS1_5Scope7ScopeIdE
Boostnote:_ZN2v88internal8GCTracer19ResetSurvivalEventsEv
Boostnote:_ZN2v88internal8GCTracer22AddContextDisposalTimeEd
Boostnote:_ZN2v88internal8GCTracer23FetchBackgroundCountersEiiii
Boostnote:_ZN2v88internal8GCTracer24AddBackgroundScopeSampleENS1_15BackgroundScope7ScopeIdEdPNS0_18RuntimeCallCounterE
Boostnote:_ZN2v88internal8GCTracer24RecordMutatorUtilizationEdd
Boostnote:_ZN2v88internal8GCTracer25AddIncrementalMarkingStepEdm
Boostnote:_ZN2v88internal8GCTracer27RecordMarkCompactHistogramsEPNS0_14HistogramTimerE
Boostnote:_ZN2v88internal8GCTracer29NotifyIncrementalMarkingStartEv
Boostnote:_ZN2v88internal8GCTracer29NotifyYoungGenerationHandlingENS0_23YoungGenerationHandlingE
Boostnote:_ZN2v88internal8GCTracer29RecordIncrementalMarkingSpeedEmd
Boostnote:_ZN2v88internal8GCTracer30FetchBackgroundGeneralCountersEv
Boostnote:_ZN2v88internal8GCTracer30FetchBackgroundMinorGCCountersEv
Boostnote:_ZN2v88internal8GCTracer31ResetIncrementalMarkingCountersEv
Boostnote:_ZN2v88internal8GCTracer34FetchBackgroundMarkCompactCountersEv
Boostnote:_ZN2v88internal8GCTracer45CombinedMarkCompactSpeedInBytesPerMillisecondEv
Boostnote:_ZN2v88internal8GCTracer4StopENS0_16GarbageCollectorE
Boostnote:_ZN2v88internal8GCTracer5EventC1ENS2_4TypeENS0_23GarbageCollectionReasonEPKc
Boostnote:_ZN2v88internal8GCTracer5EventC2ENS2_4TypeENS0_23GarbageCollectionReasonEPKc
Boostnote:_ZN2v88internal8GCTracer5Scope4NameENS2_7ScopeIdE
Boostnote:_ZN2v88internal8GCTracer5ScopeC1EPS1_NS2_7ScopeIdE
Boostnote:_ZN2v88internal8GCTracer5ScopeC2EPS1_NS2_7ScopeIdE
Boostnote:_ZN2v88internal8GCTracer5ScopeD1Ev
Boostnote:_ZN2v88internal8GCTracer5ScopeD2Ev
Boostnote:_ZN2v88internal8GCTracer5StartENS0_16GarbageCollectorENS0_23GarbageCollectionReasonEPKc
Boostnote:_ZN2v88internal8GCTracerC1EPNS0_4HeapE
Boostnote:_ZN2v88internal8GCTracerC2EPNS0_4HeapE
Boostnote:_ZN2v88internal8JSRegExp3NewEPNS0_7IsolateENS0_6HandleINS0_6StringEEENS_4base5FlagsINS1_4FlagEiEE
Boostnote:_ZN2v88internal8Malloced3NewEm
Boostnote:_ZN2v88internal8Malloced6DeleteEPv
Boostnote:_ZN2v88internal8OFStreamC1EP8_IO_FILE
Boostnote:_ZN2v88internal8OFStreamC2EP8_IO_FILE
Boostnote:_ZN2v88internal8OFStreamD0Ev
Boostnote:_ZN2v88internal8OFStreamD1Ev
Boostnote:_ZN2v88internal8OFStreamD2Ev
Boostnote:_ZN2v88internal8ReadFileEPKcPbb
Boostnote:_ZN2v88internal8ThreadId18GetCurrentThreadIdEv
Boostnote:_ZN2v88internal8compiler10BasicBlock11set_controlENS2_7ControlE
Boostnote:_ZN2v88internal8compiler10BasicBlock12AddSuccessorEPS2_
Boostnote:_ZN2v88internal8compiler10BasicBlock12set_loop_endEPS2_
Boostnote:_ZN2v88internal8compiler10BasicBlock14AddPredecessorEPS2_
Boostnote:_ZN2v88internal8compiler10BasicBlock14set_loop_depthEi
Boostnote:_ZN2v88internal8compiler10BasicBlock14set_rpo_numberEi
Boostnote:_ZN2v88internal8compiler10BasicBlock15set_loop_headerEPS2_
Boostnote:_ZN2v88internal8compiler10BasicBlock17set_control_inputEPNS1_4NodeE
Boostnote:_ZN2v88internal8compiler10BasicBlock18GetCommonDominatorEPS2_S3_
Boostnote:_ZN2v88internal8compiler10BasicBlock5PrintEv
Boostnote:_ZN2v88internal8compiler10BasicBlock7AddNodeEPNS1_4NodeE
Boostnote:_ZN2v88internal8compiler10BasicBlockC1EPNS0_4ZoneENS2_2IdE
Boostnote:_ZN2v88internal8compiler10BasicBlockC2EPNS0_4ZoneENS2_2IdE
Boostnote:_ZN2v88internal8compiler10BitsetType10NumberBitsEj
Boostnote:_ZN2v88internal8compiler10BitsetType11SignedSmallEv
Boostnote:_ZN2v88internal8compiler10BitsetType13UnsignedSmallEv
Boostnote:_ZN2v88internal8compiler10BitsetType15BoundariesArrayE
Boostnote:_ZN2v88internal8compiler10BitsetType15ExpandInternalsEj
Boostnote:_ZN2v88internal8compiler10BitsetType3GlbEdd
Boostnote:_ZN2v88internal8compiler10BitsetType3LubERKNS1_14HeapObjectTypeE
Boostnote:_ZN2v88internal8compiler10BitsetType3LubEd
Boostnote:_ZN2v88internal8compiler10BitsetType3LubEdd
Boostnote:_ZN2v88internal8compiler10BitsetType3MaxEj
Boostnote:_ZN2v88internal8compiler10BitsetType3MinEj
Boostnote:_ZN2v88internal8compiler10BitsetType4NameEj
Boostnote:_ZN2v88internal8compiler10BitsetType5PrintERNSt3__113basic_ostreamIcNS3_11char_traitsIcEEEEj
Boostnote:_ZN2v88internal8compiler10LoopFinder13BuildLoopTreeEPNS1_5GraphEPNS0_4ZoneE
Boostnote:_ZN2v88internal8compiler10LoopPeeler14PeelInnerLoopsEPNS1_8LoopTree4LoopE
Boostnote:_ZN2v88internal8compiler10LoopPeeler18EliminateLoopExitsEPNS1_5GraphEPNS0_4ZoneE
Boostnote:_ZN2v88internal8compiler10LoopPeeler20PeelInnerLoopsOfTreeEv
Boostnote:_ZN2v88internal8compiler10LoopPeeler4PeelEPNS1_8LoopTree4LoopE
Boostnote:_ZN2v88internal8compiler10LoopPeeler7CanPeelEPNS1_8LoopTree4LoopE
Boostnote:_ZN2v88internal8compiler11InstructionC1Ei
Boostnote:_ZN2v88internal8compiler11InstructionC1EimPNS1_18InstructionOperandEmS4_mS4_
Boostnote:_ZN2v88internal8compiler11InstructionC2Ei
Boostnote:_ZN2v88internal8compiler11InstructionC2EimPNS1_18InstructionOperandEmS4_mS4_
Boostnote:_ZN2v88internal8compiler11UsePosition11ResolveHintEPS2_
Boostnote:_ZN2v88internal8compiler11UsePosition18HintTypeForOperandERKNS1_18InstructionOperandE
Boostnote:_ZN2v88internal8compiler11UsePosition7SetHintEPS2_
Boostnote:_ZN2v88internal8compiler11UsePosition8set_typeENS1_15UsePositionTypeEb
Boostnote:_ZN2v88internal8compiler11UsePositionC1ENS1_16LifetimePositionEPNS1_18InstructionOperandEPvNS1_19UsePositionHintTypeE
Boostnote:_ZN2v88internal8compiler11UsePositionC2ENS1_16LifetimePositionEPNS1_18InstructionOperandEPvNS1_19UsePositionHintTypeE
Boostnote:_ZN2v88internal8compiler12BranchHintOfEPKNS1_8OperatorE
Boostnote:_ZN2v88internal8compiler12GraphReducer10AddReducerEPNS1_7ReducerE
Boostnote:_ZN2v88internal8compiler12GraphReducer10ReduceNodeEPNS1_4NodeE
Boostnote:_ZN2v88internal8compiler12GraphReducer11ReduceGraphEv
Boostnote:_ZN2v88internal8compiler12GraphReducer16ReplaceWithValueEPNS1_4NodeES4_S4_S4_
Boostnote:_ZN2v88internal8compiler12GraphReducer3PopEv
Boostnote:_ZN2v88internal8compiler12GraphReducer4PushEPNS1_4NodeE
Boostnote:_ZN2v88internal8compiler12GraphReducer6ReduceEPNS1_4NodeE
Boostnote:_ZN2v88internal8compiler12GraphReducer7RecurseEPNS1_4NodeE
Boostnote:_ZN2v88internal8compiler12GraphReducer7ReplaceEPNS1_4NodeES4_
Boostnote:_ZN2v88internal8compiler12GraphReducer7ReplaceEPNS1_4NodeES4_j
Boostnote:_ZN2v88internal8compiler12GraphReducer7RevisitEPNS1_4NodeE
Boostnote:_ZN2v88internal8compiler12GraphReducer9ReduceTopEv
Boostnote:_ZN2v88internal8compiler12GraphReducerC1EPNS0_4ZoneEPNS1_5GraphEPNS1_4NodeE
Boostnote:_ZN2v88internal8compiler12GraphReducerC2EPNS0_4ZoneEPNS1_5GraphEPNS1_4NodeE
Boostnote:_ZN2v88internal8compiler12GraphReducerD0Ev
Boostnote:_ZN2v88internal8compiler12GraphReducerD1Ev
Boostnote:_ZN2v88internal8compiler12GraphReducerD2Ev
Boostnote:_ZN2v88internal8compiler12GraphTrimmer9TrimGraphEv
Boostnote:_ZN2v88internal8compiler12GraphTrimmerC1EPNS0_4ZoneEPNS1_5GraphE
Boostnote:_ZN2v88internal8compiler12GraphTrimmerC2EPNS0_4ZoneEPNS1_5GraphE
Boostnote:_ZN2v88internal8compiler12GraphTrimmerD1Ev
Boostnote:_ZN2v88internal8compiler12GraphTrimmerD2Ev
Boostnote:_ZN2v88internal8compiler12JSHeapBroker9TryGetSmiENS0_6HandleINS0_6ObjectEEE
Boostnote:_ZN2v88internal8compiler12JSHeapBrokerC1EPNS0_7IsolateE
Boostnote:_ZN2v88internal8compiler12JSHeapBrokerC2EPNS0_7IsolateE
Boostnote:_ZN2v88internal8compiler12MachineGraph13Int32ConstantEi
Boostnote:_ZN2v88internal8compiler12MachineGraph13Int64ConstantEl
Boostnote:_ZN2v88internal8compiler12MachineGraph14IntPtrConstantEl
Boostnote:_ZN2v88internal8compiler12MachineGraph15Float32ConstantEf
Boostnote:_ZN2v88internal8compiler12MachineGraph15Float64ConstantEd
Boostnote:_ZN2v88internal8compiler12MachineGraph15PointerConstantEl
Boostnote:_ZN2v88internal8compiler12MachineGraph16ExternalConstantENS0_17ExternalReferenceE
Boostnote:_ZN2v88internal8compiler12MachineGraph16ExternalConstantENS0_7Runtime10FunctionIdE
Boostnote:_ZN2v88internal8compiler12MachineGraph24RelocatableInt32ConstantEiNS0_9RelocInfo4ModeE
Boostnote:_ZN2v88internal8compiler12MachineGraph24RelocatableInt64ConstantElNS0_9RelocInfo4ModeE
Boostnote:_ZN2v88internal8compiler12MachineGraph25RelocatableIntPtrConstantElNS0_9RelocInfo4ModeE
Boostnote:_ZN2v88internal8compiler13AccessBuilder12ForCellValueEv
Boostnote:_ZN2v88internal8compiler13AccessBuilder14ForContextSlotEm
Boostnote:_ZN2v88internal8compiler13AccessBuilder14ForJSDateFieldENS0_6JSDate10FieldIndexE
Boostnote:_ZN2v88internal8compiler13AccessBuilder14ForJSDateValueEv
Boostnote:_ZN2v88internal8compiler13AccessBuilder14ForMapBitFieldEv
Boostnote:_ZN2v88internal8compiler13AccessBuilder15ForJSRegExpDataEv
Boostnote:_ZN2v88internal8compiler13AccessBuilder15ForMapBitField2Ev
Boostnote:_ZN2v88internal8compiler13AccessBuilder15ForMapBitField3Ev
Boostnote:_ZN2v88internal8compiler13AccessBuilder15ForMapPrototypeEv
Boostnote:_ZN2v88internal8compiler13AccessBuilder15ForStringLengthEv
Boostnote:_ZN2v88internal8compiler13AccessBuilder16ForEnumCacheKeysEv
Boostnote:_ZN2v88internal8compiler13AccessBuilder16ForJSArrayLengthENS0_12ElementsKindE
Boostnote:_ZN2v88internal8compiler13AccessBuilder16ForJSRegExpFlagsEv
Boostnote:_ZN2v88internal8compiler13AccessBuilder16ForNameHashFieldEv
Boostnote:_ZN2v88internal8compiler13AccessBuilder17ForBigIntBitfieldEv
Boostnote:_ZN2v88internal8compiler13AccessBuilder17ForFixedArraySlotEmNS0_16WriteBarrierKindE
Boostnote:_ZN2v88internal8compiler13AccessBuilder17ForJSFunctionCodeEv
Boostnote:_ZN2v88internal8compiler13AccessBuilder17ForJSObjectOffsetEiNS0_16WriteBarrierKindE
Boostnote:_ZN2v88internal8compiler13AccessBuilder17ForJSRegExpSourceEv
Boostnote:_ZN2v88internal8compiler13AccessBuilder17ForMapDescriptorsEv
Boostnote:_ZN2v88internal8compiler13AccessBuilder18ForArgumentsCalleeEv
Boostnote:_ZN2v88internal8compiler13AccessBuilder18ForArgumentsLengthEv
Boostnote:_ZN2v88internal8compiler13AccessBuilder18ForConsStringFirstEv
Boostnote:_ZN2v88internal8compiler13AccessBuilder18ForHeapNumberValueEv
Boostnote:_ZN2v88internal8compiler13AccessBuilder18ForMapInstanceTypeEv
Boostnote:_ZN2v88internal8compiler13AccessBuilder19ForConsStringSecondEv
Boostnote:_ZN2v88internal8compiler13AccessBuilder19ForEnumCacheIndicesEv
Boostnote:_ZN2v88internal8compiler13AccessBuilder19ForFixedArrayLengthEv
Boostnote:_ZN2v88internal8compiler13AccessBuilder19ForJSObjectElementsEv
Boostnote:_ZN2v88internal8compiler13AccessBuilder19ForThinStringActualEv
Boostnote:_ZN2v88internal8compiler13AccessBuilder20ForFixedArrayElementENS0_12ElementsKindENS0_15LoadSensitivityE
Boostnote:_ZN2v88internal8compiler13AccessBuilder20ForFixedArrayElementEv
Boostnote:_ZN2v88internal8compiler13AccessBuilder20ForJSCollectionTableEv
Boostnote:_ZN2v88internal8compiler13AccessBuilder20ForJSFunctionContextEv
Boostnote:_ZN2v88internal8compiler13AccessBuilder20ForJSRegExpLastIndexEv
Boostnote:_ZN2v88internal8compiler13AccessBuilder20ForTypedArrayElementENS0_17ExternalArrayTypeEbNS0_15LoadSensitivityE
Boostnote:_ZN2v88internal8compiler13AccessBuilder21ForExternalUint8ValueEv
Boostnote:_ZN2v88internal8compiler13AccessBuilder21ForJSTypedArrayLengthEv
Boostnote:_ZN2v88internal8compiler13AccessBuilder21ForSlicedStringOffsetEv
Boostnote:_ZN2v88internal8compiler13AccessBuilder21ForSlicedStringParentEv
Boostnote:_ZN2v88internal8compiler13AccessBuilder22ForExternalTaggedValueEv
Boostnote:_ZN2v88internal8compiler13AccessBuilder22ForJSArrayIteratorKindEv
Boostnote:_ZN2v88internal8compiler13AccessBuilder23ForJSIteratorResultDoneEv
Boostnote:_ZN2v88internal8compiler13AccessBuilder23ForModuleRegularExportsEv
Boostnote:_ZN2v88internal8compiler13AccessBuilder23ForModuleRegularImportsEv
Boostnote:_ZN2v88internal8compiler13AccessBuilder24ForHashTableBaseCapacityEv
Boostnote:_ZN2v88internal8compiler13AccessBuilder24ForJSArrayBufferBitFieldEv
Boostnote:_ZN2v88internal8compiler13AccessBuilder24ForJSIteratorResultValueEv
Boostnote:_ZN2v88internal8compiler13AccessBuilder24ForJSStringIteratorIndexEv
Boostnote:_ZN2v88internal8compiler13AccessBuilder25ForDictionaryMaxNumberKeyEv
Boostnote:_ZN2v88internal8compiler13AccessBuilder25ForJSFunctionFeedbackCellEv
Boostnote:_ZN2v88internal8compiler13AccessBuilder25ForJSStringIteratorStringEv
Boostnote:_ZN2v88internal8compiler13AccessBuilder26ForFixedDoubleArrayElementEv
Boostnote:_ZN2v88internal8compiler13AccessBuilder26ForJSArrayBufferViewBufferEv
Boostnote:_ZN2v88internal8compiler13AccessBuilder27ForDescriptorArrayEnumCacheEv
Boostnote:_ZN2v88internal8compiler13AccessBuilder27ForJSArrayIteratorNextIndexEv
Boostnote:_ZN2v88internal8compiler13AccessBuilder27ForJSBoundFunctionBoundThisEv
Boostnote:_ZN2v88internal8compiler13AccessBuilder27ForJSGeneratorObjectContextEv
Boostnote:_ZN2v88internal8compiler13AccessBuilder27ForJSObjectInObjectPropertyERKNS1_6MapRefEi
Boostnote:_ZN2v88internal8compiler13AccessBuilder27ForJSObjectPropertiesOrHashEv
Boostnote:_ZN2v88internal8compiler13AccessBuilder27ForOrderedHashMapEntryValueEv
Boostnote:_ZN2v88internal8compiler13AccessBuilder28ForDictionaryObjectHashIndexEv
Boostnote:_ZN2v88internal8compiler13AccessBuilder28ForJSArrayBufferBackingStoreEv
Boostnote:_ZN2v88internal8compiler13AccessBuilder28ForJSCollectionIteratorIndexEv
Boostnote:_ZN2v88internal8compiler13AccessBuilder28ForJSCollectionIteratorTableEv
Boostnote:_ZN2v88internal8compiler13AccessBuilder28ForJSGeneratorObjectFunctionEv
Boostnote:_ZN2v88internal8compiler13AccessBuilder28ForJSGeneratorObjectReceiverEv
Boostnote:_ZN2v88internal8compiler13AccessBuilder28ForJSGlobalObjectGlobalProxyEv
Boostnote:_ZN2v88internal8compiler13AccessBuilder28ForSeqOneByteStringCharacterEv
Boostnote:_ZN2v88internal8compiler13AccessBuilder28ForSeqTwoByteStringCharacterEv
Boostnote:_ZN2v88internal8compiler13AccessBuilder29ForExternalStringResourceDataEv
Boostnote:_ZN2v88internal8compiler13AccessBuilder29ForJSGlobalProxyNativeContextEv
Boostnote:_ZN2v88internal8compiler13AccessBuilder29ForPropertyArrayLengthAndHashEv
Boostnote:_ZN2v88internal8compiler13AccessBuilder30ForJSArrayBufferViewByteLengthEv
Boostnote:_ZN2v88internal8compiler13AccessBuilder30ForJSArrayBufferViewByteOffsetEv
Boostnote:_ZN2v88internal8compiler13AccessBuilder30ForJSAsyncGeneratorObjectQueueEv
Boostnote:_ZN2v88internal8compiler13AccessBuilder30ForJSGeneratorObjectResumeModeEv
Boostnote:_ZN2v88internal8compiler13AccessBuilder30ForJSGlobalObjectNativeContextEv
Boostnote:_ZN2v88internal8compiler13AccessBuilder31ForJSFunctionSharedFunctionInfoEv
Boostnote:_ZN2v88internal8compiler13AccessBuilder32ForHashTableBaseNumberOfElementsEv
Boostnote:_ZN2v88internal8compiler13AccessBuilder32ForJSArrayIteratorIteratedObjectEv
Boostnote:_ZN2v88internal8compiler13AccessBuilder32ForJSBoundFunctionBoundArgumentsEv
Boostnote:_ZN2v88internal8compiler13AccessBuilder32ForJSGeneratorObjectContinuationEv
Boostnote:_ZN2v88internal8compiler13AccessBuilder32ForOrderedHashTableBaseNextTableEv
Boostnote:_ZN2v88internal8compiler13AccessBuilder33ForDictionaryNextEnumerationIndexEv
Boostnote:_ZN2v88internal8compiler13AccessBuilder33ForExternalOneByteStringCharacterEv
Boostnote:_ZN2v88internal8compiler13AccessBuilder33ForExternalTwoByteStringCharacterEv
Boostnote:_ZN2v88internal8compiler13AccessBuilder33ForFixedTypedArrayBaseBasePointerEv
Boostnote:_ZN2v88internal8compiler13AccessBuilder34ForJSFunctionPrototypeOrInitialMapEv
Boostnote:_ZN2v88internal8compiler13AccessBuilder35ForJSAsyncGeneratorObjectIsAwaitingEv
Boostnote:_ZN2v88internal8compiler13AccessBuilder35ForJSGeneratorObjectInputOrDebugPosEv
Boostnote:_ZN2v88internal8compiler13AccessBuilder37ForFixedTypedArrayBaseExternalPointerEv
Boostnote:_ZN2v88internal8compiler13AccessBuilder37ForJSBoundFunctionBoundTargetFunctionEv
Boostnote:_ZN2v88internal8compiler13AccessBuilder38ForHashTableBaseNumberOfDeletedElementEv
Boostnote:_ZN2v88internal8compiler13AccessBuilder38ForOrderedHashTableBaseNumberOfBucketsEv
Boostnote:_ZN2v88internal8compiler13AccessBuilder39ForOrderedHashTableBaseNumberOfElementsEv
Boostnote:_ZN2v88internal8compiler13AccessBuilder42ForJSGeneratorObjectParametersAndRegistersEv
Boostnote:_ZN2v88internal8compiler13AccessBuilder46ForOrderedHashTableBaseNumberOfDeletedElementsEv
Boostnote:_ZN2v88internal8compiler13AccessBuilder6ForMapEv
Boostnote:_ZN2v88internal8compiler13AccessBuilder8ForValueEv
Boostnote:_ZN2v88internal8compiler13BranchMatcherC1EPNS1_4NodeE
Boostnote:_ZN2v88internal8compiler13BranchMatcherC2EPNS1_4NodeE
Boostnote:_ZN2v88internal8compiler13CodeAssembler10AtomicLoadENS0_11MachineTypeEPNS1_4NodeES5_
Boostnote:_ZN2v88internal8compiler13CodeAssembler10DebugAbortEPNS1_4NodeE
Boostnote:_ZN2v88internal8compiler13CodeAssembler10DebugBreakEv
Boostnote:_ZN2v88internal8compiler13CodeAssembler10Float64AbsENS1_11SloppyTNodeINS0_8Float64TEEE
Boostnote:_ZN2v88internal8compiler13CodeAssembler10Float64AddENS1_11SloppyTNodeINS0_8Float64TEEES5_
Boostnote:_ZN2v88internal8compiler13CodeAssembler10Float64CosENS1_11SloppyTNodeINS0_8Float64TEEE
Boostnote:_ZN2v88internal8compiler13CodeAssembler10Float64DivENS1_11SloppyTNodeINS0_8Float64TEEES5_
Boostnote:_ZN2v88internal8compiler13CodeAssembler10Float64ExpENS1_11SloppyTNodeINS0_8Float64TEEE
Boostnote:_ZN2v88internal8compiler13CodeAssembler10Float64LogENS1_11SloppyTNodeINS0_8Float64TEEE
Boostnote:_ZN2v88internal8compiler13CodeAssembler10Float64MaxENS1_11SloppyTNodeINS0_8Float64TEEES5_
Boostnote:_ZN2v88internal8compiler13CodeAssembler10Float64MinENS1_11SloppyTNodeINS0_8Float64TEEES5_
Boostnote:_ZN2v88internal8compiler13CodeAssembler10Float64ModENS1_11SloppyTNodeINS0_8Float64TEEES5_
Boostnote:_ZN2v88internal8compiler13CodeAssembler10Float64MulENS1_11SloppyTNodeINS0_8Float64TEEES5_
Boostnote:_ZN2v88internal8compiler13CodeAssembler10Float64NegENS1_11SloppyTNodeINS0_8Float64TEEE
Boostnote:_ZN2v88internal8compiler13CodeAssembler10Float64PowENS1_11SloppyTNodeINS0_8Float64TEEES5_
Boostnote:_ZN2v88internal8compiler13CodeAssembler10Float64SinENS1_11SloppyTNodeINS0_8Float64TEEE
Boostnote:_ZN2v88internal8compiler13CodeAssembler10Float64SubENS1_11SloppyTNodeINS0_8Float64TEEES5_
Boostnote:_ZN2v88internal8compiler13CodeAssembler10Float64TanENS1_11SloppyTNodeINS0_8Float64TEEE
Boostnote:_ZN2v88internal8compiler13CodeAssembler10ProjectionEiPNS1_4NodeE
Boostnote:_ZN2v88internal8compiler13CodeAssembler11AtomicStoreENS0_21MachineRepresentationEPNS1_4NodeES5_S5_
Boostnote:_ZN2v88internal8compiler13CodeAssembler11BreakOnNodeEi
Boostnote:_ZN2v88internal8compiler13CodeAssembler11Float64AcosENS1_11SloppyTNodeINS0_8Float64TEEE
Boostnote:_ZN2v88internal8compiler13CodeAssembler11Float64AsinENS1_11SloppyTNodeINS0_8Float64TEEE
Boostnote:_ZN2v88internal8compiler13CodeAssembler11Float64AtanENS1_11SloppyTNodeINS0_8Float64TEEE
Boostnote:_ZN2v88internal8compiler13CodeAssembler11Float64CbrtENS1_11SloppyTNodeINS0_8Float64TEEE
Boostnote:_ZN2v88internal8compiler13CodeAssembler11Float64CoshENS1_11SloppyTNodeINS0_8Float64TEEE
Boostnote:_ZN2v88internal8compiler13CodeAssembler11Float64Log2ENS1_11SloppyTNodeINS0_8Float64TEEE
Boostnote:_ZN2v88internal8compiler13CodeAssembler11Float64SinhENS1_11SloppyTNodeINS0_8Float64TEEE
Boostnote:_ZN2v88internal8compiler13CodeAssembler11Float64SqrtENS1_11SloppyTNodeINS0_8Float64TEEE
Boostnote:_ZN2v88internal8compiler13CodeAssembler11Float64TanhENS1_11SloppyTNodeINS0_8Float64TEEE
Boostnote:_ZN2v88internal8compiler13CodeAssembler11IntPtrEqualENS1_11SloppyTNodeINS0_5WordTEEES5_
Boostnote:_ZN2v88internal8compiler13CodeAssembler11NaNConstantEv
Boostnote:_ZN2v88internal8compiler13CodeAssembler11SmiConstantEPNS0_3SmiE
Boostnote:_ZN2v88internal8compiler13CodeAssembler11SmiConstantEi
Boostnote:_ZN2v88internal8compiler13CodeAssembler11UnreachableEv
Boostnote:_ZN2v88internal8compiler13CodeAssembler11Word32EqualENS1_11SloppyTNodeINS0_7Word32TEEES5_
Boostnote:_ZN2v88internal8compiler13CodeAssembler11Word64EqualENS1_11SloppyTNodeINS0_7Word64TEEES5_
Boostnote:_ZN2v88internal8compiler13CodeAssembler12CallEpilogueEv
Boostnote:_ZN2v88internal8compiler13CodeAssembler12CallPrologueEv
Boostnote:_ZN2v88internal8compiler13CodeAssembler12Float32EqualENS1_11SloppyTNodeINS0_8Float32TEEES5_
Boostnote:_ZN2v88internal8compiler13CodeAssembler12Float64AcoshENS1_11SloppyTNodeINS0_8Float64TEEE
Boostnote:_ZN2v88internal8compiler13CodeAssembler12Float64AsinhENS1_11SloppyTNodeINS0_8Float64TEEE
Boostnote:_ZN2v88internal8compiler13CodeAssembler12Float64Atan2ENS1_11SloppyTNodeINS0_8Float64TEEES5_
Boostnote:_ZN2v88internal8compiler13CodeAssembler12Float64AtanhENS1_11SloppyTNodeINS0_8Float64TEEE
Boostnote:_ZN2v88internal8compiler13CodeAssembler12Float64EqualENS1_11SloppyTNodeINS0_8Float64TEEES5_
Boostnote:_ZN2v88internal8compiler13CodeAssembler12Float64Expm1ENS1_11SloppyTNodeINS0_8Float64TEEE
Boostnote:_ZN2v88internal8compiler13CodeAssembler12Float64Log10ENS1_11SloppyTNodeINS0_8Float64TEEE
Boostnote:_ZN2v88internal8compiler13CodeAssembler12Float64Log1pENS1_11SloppyTNodeINS0_8Float64TEEE
Boostnote:_ZN2v88internal8compiler13CodeAssembler12GenerateCodeEPNS1_18CodeAssemblerStateERKNS0_16AssemblerOptionsE
Boostnote:_ZN2v88internal8compiler13CodeAssembler12PopAndReturnEPNS1_4NodeES4_
Boostnote:_ZN2v88internal8compiler13CodeAssembler12WordNotEqualENS1_11SloppyTNodeINS0_5WordTEEES5_
Boostnote:_ZN2v88internal8compiler13CodeAssembler13CallStubRImplERKNS0_23CallInterfaceDescriptorEmNS1_11SloppyTNodeINS0_4CodeEEENS6_INS0_6ObjectEEESt16initializer_listIPNS1_4NodeEE
Boostnote:_ZN2v88internal8compiler13CodeAssembler13Int32ConstantEi
Boostnote:_ZN2v88internal8compiler13CodeAssembler13Int32LessThanENS1_11SloppyTNodeINS0_7Word32TEEES5_
Boostnote:_ZN2v88internal8compiler13CodeAssembler13Int64ConstantEl
Boostnote:_ZN2v88internal8compiler13CodeAssembler13ToSmiConstantEPNS1_4NodeERPNS0_3SmiE
Boostnote:_ZN2v88internal8compiler13CodeAssembler14AtomicExchangeENS0_11MachineTypeEPNS1_4NodeES5_S5_
Boostnote:_ZN2v88internal8compiler13CodeAssembler14CallCFunction1ENS0_11MachineTypeES3_PNS1_4NodeES5_
Boostnote:_ZN2v88internal8compiler13CodeAssembler14CallCFunction2ENS0_11MachineTypeES3_S3_PNS1_4NodeES5_S5_
Boostnote:_ZN2v88internal8compiler13CodeAssembler14CallCFunction3ENS0_11MachineTypeES3_S3_S3_PNS1_4NodeES5_S5_S5_
Boostnote:_ZN2v88internal8compiler13CodeAssembler14CallCFunction4ENS0_11MachineTypeES3_S3_S3_S3_PNS1_4NodeES5_S5_S5_S5_
Boostnote:_ZN2v88internal8compiler13CodeAssembler14CallCFunction5ENS0_11MachineTypeES3_S3_S3_S3_S3_PNS1_4NodeES5_S5_S5_S5_S5_
Boostnote:_ZN2v88internal8compiler13CodeAssembler14CallCFunction6ENS0_11MachineTypeES3_S3_S3_S3_S3_S3_PNS1_4NodeES5_S5_S5_S5_S5_S5_
Boostnote:_ZN2v88internal8compiler13CodeAssembler14CallCFunction9ENS0_11MachineTypeES3_S3_S3_S3_S3_S3_S3_S3_S3_PNS1_4NodeES5_S5_S5_S5_S5_S5_S5_S5_S5_
Boostnote:_ZN2v88internal8compiler13CodeAssembler14CallCFunctionNEPNS0_9SignatureINS0_11MachineTypeEEEiPKPNS1_4NodeE
Boostnote:_ZN2v88internal8compiler13CodeAssembler14Float64RoundUpENS1_11SloppyTNodeINS0_8Float64TEEE
Boostnote:_ZN2v88internal8compiler13CodeAssembler14IntPtrConstantEl
Boostnote:_ZN2v88internal8compiler13CodeAssembler14IntPtrLessThanENS1_11SloppyTNodeINS0_5WordTEEES5_
Boostnote:_ZN2v88internal8compiler13CodeAssembler14IsNullConstantENS1_5TNodeINS0_6ObjectEEE
Boostnote:_ZN2v88internal8compiler13CodeAssembler14NumberConstantEd
Boostnote:_ZN2v88internal8compiler13CodeAssembler14StringConstantEPKc
Boostnote:_ZN2v88internal8compiler13CodeAssembler14TailCallJSCodeENS1_5TNodeINS0_4CodeEEENS3_INS0_7ContextEEENS3_INS0_10JSFunctionEEENS3_INS0_6ObjectEEENS3_INS0_6Int32TEEE
Boostnote:_ZN2v88internal8compiler13CodeAssembler14Uint32LessThanENS1_11SloppyTNodeINS0_7Word32TEEES5_
Boostnote:_ZN2v88internal8compiler13CodeAssembler14Word32NotEqualENS1_11SloppyTNodeINS0_7Word32TEEES5_
Boostnote:_ZN2v88internal8compiler13CodeAssembler14Word64NotEqualENS1_11SloppyTNodeINS0_7Word64TEEES5_
Boostnote:_ZN2v88internal8compiler13CodeAssembler15BooleanConstantEb
Boostnote:_ZN2v88internal8compiler13CodeAssembler15CallRuntimeImplENS0_7Runtime10FunctionIdENS1_5TNodeINS0_6ObjectEEESt16initializer_listIS7_E
Boostnote:_ZN2v88internal8compiler13CodeAssembler15Float32LessThanENS1_11SloppyTNodeINS0_8Float32TEEES5_
Boostnote:_ZN2v88internal8compiler13CodeAssembler15Float64ConstantEd
Boostnote:_ZN2v88internal8compiler13CodeAssembler15Float64LessThanENS1_11SloppyTNodeINS0_8Float64TEEES5_
Boostnote:_ZN2v88internal8compiler13CodeAssembler15Float64NotEqualENS1_11SloppyTNodeINS0_8Float64TEEES5_
Boostnote:_ZN2v88internal8compiler13CodeAssembler15GotoIfExceptionEPNS1_4NodeEPNS1_18CodeAssemblerLabelEPNS1_21CodeAssemblerVariableE
Boostnote:_ZN2v88internal8compiler13CodeAssembler15ToInt32ConstantEPNS1_4NodeERi
Boostnote:_ZN2v88internal8compiler13CodeAssembler15ToInt64ConstantEPNS1_4NodeERl
Boostnote:_ZN2v88internal8compiler13CodeAssembler15UintPtrLessThanENS1_11SloppyTNodeINS0_5WordTEEES5_
Boostnote:_ZN2v88internal8compiler13CodeAssembler15Word32BinaryNotENS1_11SloppyTNodeINS0_7Word32TEEE
Boostnote:_ZN2v88internal8compiler13CodeAssembler16ExternalConstantENS0_17ExternalReferenceE
Boostnote:_ZN2v88internal8compiler13CodeAssembler16Float64RoundDownENS1_11SloppyTNodeINS0_8Float64TEEE
Boostnote:_ZN2v88internal8compiler13CodeAssembler16Int32GreaterThanENS1_11SloppyTNodeINS0_7Word32TEEES5_
Boostnote:_ZN2v88internal8compiler13CodeAssembler16LoadFramePointerEv
Boostnote:_ZN2v88internal8compiler13CodeAssembler16LoadStackPointerEv
Boostnote:_ZN2v88internal8compiler13CodeAssembler16TailCallStubImplERKNS0_23CallInterfaceDescriptorENS1_5TNodeINS0_4CodeEEENS6_INS0_6ObjectEEESt16initializer_listIPNS1_4NodeEE
Boostnote:_ZN2v88internal8compiler13CodeAssembler16ToIntPtrConstantEPNS1_4NodeERl
Boostnote:_ZN2v88internal8compiler13CodeAssembler17Float64SilenceNaNENS1_11SloppyTNodeINS0_8Float64TEEE
Boostnote:_ZN2v88internal8compiler13CodeAssembler17IntPtrGreaterThanENS1_11SloppyTNodeINS0_5WordTEEES5_
Boostnote:_ZN2v88internal8compiler13CodeAssembler17Uint32GreaterThanENS1_11SloppyTNodeINS0_7Word32TEEES5_
Boostnote:_ZN2v88internal8compiler13CodeAssembler18ChangeInt32ToInt64ENS1_11SloppyTNodeINS0_6Int32TEEE
Boostnote:_ZN2v88internal8compiler13CodeAssembler18ChangeUint32ToWordENS1_11SloppyTNodeINS0_7Word32TEEE
Boostnote:_ZN2v88internal8compiler13CodeAssembler18Float32GreaterThanENS1_11SloppyTNodeINS0_8Float32TEEES5_
Boostnote:_ZN2v88internal8compiler13CodeAssembler18Float64GreaterThanENS1_11SloppyTNodeINS0_8Float64TEEES5_
Boostnote:_ZN2v88internal8compiler13CodeAssembler18UintPtrGreaterThanENS1_11SloppyTNodeINS0_5WordTEEES5_
Boostnote:_ZN2v88internal8compiler13CodeAssembler19BitcastTaggedToWordENS1_11SloppyTNodeINS0_6ObjectEEE
Boostnote:_ZN2v88internal8compiler13CodeAssembler19BitcastWordToTaggedENS1_11SloppyTNodeINS0_5WordTEEE
Boostnote:_ZN2v88internal8compiler13CodeAssembler19ChangeInt32ToIntPtrENS1_11SloppyTNodeINS0_7Word32TEEE
Boostnote:_ZN2v88internal8compiler13CodeAssembler19IsUndefinedConstantENS1_5TNodeINS0_6ObjectEEE
Boostnote:_ZN2v88internal8compiler13CodeAssembler19RoundFloat64ToInt32ENS1_11SloppyTNodeINS0_8Float64TEEE
Boostnote:_ZN2v88internal8compiler13CodeAssembler19RoundInt32ToFloat32ENS1_11SloppyTNodeINS0_8Float32TEEE
Boostnote:_ZN2v88internal8compiler13CodeAssembler19StoreNoWriteBarrierENS0_21MachineRepresentationEPNS1_4NodeES5_
Boostnote:_ZN2v88internal8compiler13CodeAssembler19StoreNoWriteBarrierENS0_21MachineRepresentationEPNS1_4NodeES5_S5_
Boostnote:_ZN2v88internal8compiler13CodeAssembler19TailCallRuntimeImplENS0_7Runtime10FunctionIdENS1_5TNodeINS0_6Int32TEEENS5_INS0_6ObjectEEESt16initializer_listIS9_E
Boostnote:_ZN2v88internal8compiler13CodeAssembler19UntypedHeapConstantENS0_6HandleINS0_10HeapObjectEEE
Boostnote:_ZN2v88internal8compiler13CodeAssembler20ChangeInt32ToFloat64ENS1_11SloppyTNodeINS0_6Int32TEEE
Boostnote:_ZN2v88internal8compiler13CodeAssembler20ChangeUint32ToUint64ENS1_11SloppyTNodeINS0_7Word32TEEE
Boostnote:_ZN2v88internal8compiler13CodeAssembler20Float64RoundTiesEvenENS1_11SloppyTNodeINS0_8Float64TEEE
Boostnote:_ZN2v88internal8compiler13CodeAssembler20Float64RoundTruncateENS1_11SloppyTNodeINS0_8Float64TEEE
Boostnote:_ZN2v88internal8compiler13CodeAssembler20Int32AbsWithOverflowENS1_11SloppyTNodeINS0_6Int32TEEE
Boostnote:_ZN2v88internal8compiler13CodeAssembler20Int32AddWithOverflowENS1_11SloppyTNodeINS0_6Int32TEEES5_
Boostnote:_ZN2v88internal8compiler13CodeAssembler20Int32LessThanOrEqualENS1_11SloppyTNodeINS0_7Word32TEEES5_
Boostnote:_ZN2v88internal8compiler13CodeAssembler20Int32MulWithOverflowENS1_11SloppyTNodeINS0_6Int32TEEES5_
Boostnote:_ZN2v88internal8compiler13CodeAssembler20Int32SubWithOverflowENS1_11SloppyTNodeINS0_6Int32TEEES5_
Boostnote:_ZN2v88internal8compiler13CodeAssembler20Int64AbsWithOverflowENS1_11SloppyTNodeINS0_6Int64TEEE
Boostnote:_ZN2v88internal8compiler13CodeAssembler20RoundIntPtrToFloat64EPNS1_4NodeE
Boostnote:_ZN2v88internal8compiler13CodeAssembler20TruncateInt64ToInt32ENS1_11SloppyTNodeINS0_6Int64TEEE
Boostnote:_ZN2v88internal8compiler13CodeAssembler21AtomicCompareExchangeENS0_11MachineTypeEPNS1_4NodeES5_S5_S5_
Boostnote:_ZN2v88internal8compiler13CodeAssembler21BitcastFloat32ToInt32ENS1_11SloppyTNodeINS0_8Float32TEEE
Boostnote:_ZN2v88internal8compiler13CodeAssembler21BitcastInt32ToFloat32ENS1_11SloppyTNodeINS0_7Word32TEEE
Boostnote:_ZN2v88internal8compiler13CodeAssembler21ChangeFloat64ToUint32ENS1_11SloppyTNodeINS0_8Float64TEEE
Boostnote:_ZN2v88internal8compiler13CodeAssembler21ChangeFloat64ToUint64ENS1_11SloppyTNodeINS0_8Float64TEEE
Boostnote:_ZN2v88internal8compiler13CodeAssembler21ChangeUint32ToFloat64ENS1_11SloppyTNodeINS0_7Word32TEEE
Boostnote:_ZN2v88internal8compiler13CodeAssembler21GetJSContextParameterEv
Boostnote:_ZN2v88internal8compiler13CodeAssembler21IntPtrAbsWithOverflowENS1_11SloppyTNodeINS0_7IntPtrTEEE
Boostnote:_ZN2v88internal8compiler13CodeAssembler21IntPtrAddWithOverflowENS1_11SloppyTNodeINS0_7IntPtrTEEES5_
Boostnote:_ZN2v88internal8compiler13CodeAssembler21IntPtrLessThanOrEqualENS1_11SloppyTNodeINS0_5WordTEEES5_
Boostnote:_ZN2v88internal8compiler13CodeAssembler21IntPtrSubWithOverflowENS1_11SloppyTNodeINS0_7IntPtrTEEES5_
Boostnote:_ZN2v88internal8compiler13CodeAssembler21Uint32LessThanOrEqualENS1_11SloppyTNodeINS0_7Word32TEEES5_
Boostnote:_ZN2v88internal8compiler13CodeAssembler22ChangeFloat32ToFloat64ENS1_11SloppyTNodeINS0_8Float32TEEE
Boostnote:_ZN2v88internal8compiler13CodeAssembler22ChangeFloat64ToUintPtrENS1_11SloppyTNodeINS0_8Float64TEEE
Boostnote:_ZN2v88internal8compiler13CodeAssembler22Float32LessThanOrEqualENS1_11SloppyTNodeINS0_8Float32TEEES5_
Boostnote:_ZN2v88internal8compiler13CodeAssembler22Float64InsertLowWord32ENS1_11SloppyTNodeINS0_8Float64TEEENS3_INS0_7Word32TEEE
Boostnote:_ZN2v88internal8compiler13CodeAssembler22Float64LessThanOrEqualENS1_11SloppyTNodeINS0_8Float64TEEES5_
Boostnote:_ZN2v88internal8compiler13CodeAssembler22LoadParentFramePointerEv
Boostnote:_ZN2v88internal8compiler13CodeAssembler22UintPtrLessThanOrEqualENS1_11SloppyTNodeINS0_5WordTEEES5_
Boostnote:_ZN2v88internal8compiler13CodeAssembler23Float64ExtractLowWord32ENS1_11SloppyTNodeINS0_8Float64TEEE
Boostnote:_ZN2v88internal8compiler13CodeAssembler23Float64InsertHighWord32ENS1_11SloppyTNodeINS0_8Float64TEEENS3_INS0_7Word32TEEE
Boostnote:_ZN2v88internal8compiler13CodeAssembler23Int32GreaterThanOrEqualENS1_11SloppyTNodeINS0_7Word32TEEES5_
Boostnote:_ZN2v88internal8compiler13CodeAssembler23TruncateFloat64ToWord32ENS1_11SloppyTNodeINS0_8Float64TEEE
Boostnote:_ZN2v88internal8compiler13CodeAssembler23WordPoisonOnSpeculationENS1_11SloppyTNodeINS0_5WordTEEE
Boostnote:_ZN2v88internal8compiler13CodeAssembler24BitcastMaybeObjectToWordENS1_11SloppyTNodeINS0_11MaybeObjectEEE
Boostnote:_ZN2v88internal8compiler13CodeAssembler24Float64ExtractHighWord32ENS1_11SloppyTNodeINS0_8Float64TEEE
Boostnote:_ZN2v88internal8compiler13CodeAssembler24IntPtrGreaterThanOrEqualENS1_11SloppyTNodeINS0_5WordTEEES5_
Boostnote:_ZN2v88internal8compiler13CodeAssembler24StoreWithMapWriteBarrierEPNS1_4NodeES4_S4_
Boostnote:_ZN2v88internal8compiler13CodeAssembler24TruncateFloat64ToFloat32ENS1_11SloppyTNodeINS0_8Float64TEEE
Boostnote:_ZN2v88internal8compiler13CodeAssembler24Uint32GreaterThanOrEqualENS1_11SloppyTNodeINS0_7Word32TEEES5_
Boostnote:_ZN2v88internal8compiler13CodeAssembler25BitcastWordToTaggedSignedENS1_11SloppyTNodeINS0_5WordTEEE
Boostnote:_ZN2v88internal8compiler13CodeAssembler25CallRuntimeWithCEntryImplENS0_7Runtime10FunctionIdENS1_5TNodeINS0_4CodeEEENS5_INS0_6ObjectEEESt16initializer_listIS9_E
Boostnote:_ZN2v88internal8compiler13CodeAssembler25Float32GreaterThanOrEqualENS1_11SloppyTNodeINS0_8Float32TEEES5_
Boostnote:_ZN2v88internal8compiler13CodeAssembler25Float64GreaterThanOrEqualENS1_11SloppyTNodeINS0_8Float64TEEES5_
Boostnote:_ZN2v88internal8compiler13CodeAssembler25TaggedPoisonOnSpeculationENS1_11SloppyTNodeINS0_6ObjectEEE
Boostnote:_ZN2v88internal8compiler13CodeAssembler25UintPtrGreaterThanOrEqualENS1_11SloppyTNodeINS0_5WordTEEES5_
Boostnote:_ZN2v88internal8compiler13CodeAssembler29TailCallRuntimeWithCEntryImplENS0_7Runtime10FunctionIdENS1_5TNodeINS0_6Int32TEEENS5_INS0_4CodeEEENS5_INS0_6ObjectEEESt16initializer_listISB_E
Boostnote:_ZN2v88internal8compiler13CodeAssembler31RegisterCallGenerationCallbacksERKNSt3__18functionIFvvEEES8_
Boostnote:_ZN2v88internal8compiler13CodeAssembler33UnregisterCallGenerationCallbacksEv
Boostnote:_ZN2v88internal8compiler13CodeAssembler36TailCallStubThenBytecodeDispatchImplERKNS0_23CallInterfaceDescriptorEPNS1_4NodeES7_St16initializer_listIS7_E
Boostnote:_ZN2v88internal8compiler13CodeAssembler38CallCFunction1WithCallerSavedRegistersENS0_11MachineTypeES3_PNS1_4NodeES5_NS0_14SaveFPRegsModeE
Boostnote:_ZN2v88internal8compiler13CodeAssembler38CallCFunction3WithCallerSavedRegistersENS0_11MachineTypeES3_S3_S3_PNS1_4NodeES5_S5_S5_NS0_14SaveFPRegsModeE
Boostnote:_ZN2v88internal8compiler13CodeAssembler4BindEPNS1_18CodeAssemblerLabelE
Boostnote:_ZN2v88internal8compiler13CodeAssembler4GotoEPNS1_18CodeAssemblerLabelE
Boostnote:_ZN2v88internal8compiler13CodeAssembler4LoadENS0_11MachineTypeEPNS1_4NodeENS0_15LoadSensitivityE
Boostnote:_ZN2v88internal8compiler13CodeAssembler4LoadENS0_11MachineTypeEPNS1_4NodeES5_NS0_15LoadSensitivityE
Boostnote:_ZN2v88internal8compiler13CodeAssembler5StoreEPNS1_4NodeES4_
Boostnote:_ZN2v88internal8compiler13CodeAssembler5StoreEPNS1_4NodeES4_S4_
Boostnote:_ZN2v88internal8compiler13CodeAssembler6BranchENS1_11SloppyTNodeINS0_9IntegralTEEEPNS1_18CodeAssemblerLabelES7_
Boostnote:_ZN2v88internal8compiler13CodeAssembler6GotoIfENS1_11SloppyTNodeINS0_9IntegralTEEEPNS1_18CodeAssemblerLabelE
Boostnote:_ZN2v88internal8compiler13CodeAssembler6RetainEPNS1_4NodeE
Boostnote:_ZN2v88internal8compiler13CodeAssembler6ReturnENS1_11SloppyTNodeINS0_6ObjectEEE
Boostnote:_ZN2v88internal8compiler13CodeAssembler6ReturnENS1_11SloppyTNodeINS0_6ObjectEEES5_
Boostnote:_ZN2v88internal8compiler13CodeAssembler6ReturnENS1_11SloppyTNodeINS0_6ObjectEEES5_S5_
Boostnote:_ZN2v88internal8compiler13CodeAssembler6SwitchEPNS1_4NodeEPNS1_18CodeAssemblerLabelEPKiPS6_m
Boostnote:_ZN2v88internal8compiler13CodeAssembler6WordOrENS1_11SloppyTNodeINS0_5WordTEEES5_
Boostnote:_ZN2v88internal8compiler13CodeAssembler7CommentEPKcz
Boostnote:_ZN2v88internal8compiler13CodeAssembler7WordAndENS1_11SloppyTNodeINS0_5WordTEEES5_
Boostnote:_ZN2v88internal8compiler13CodeAssembler7WordNotENS1_11SloppyTNodeINS0_5WordTEEE
Boostnote:_ZN2v88internal8compiler13CodeAssembler7WordRorENS1_11SloppyTNodeINS0_5WordTEEENS3_INS0_9IntegralTEEE
Boostnote:_ZN2v88internal8compiler13CodeAssembler7WordSarENS1_11SloppyTNodeINS0_5WordTEEENS3_INS0_9IntegralTEEE
Boostnote:_ZN2v88internal8compiler13CodeAssembler7WordSarENS1_11SloppyTNodeINS0_5WordTEEEi
Boostnote:_ZN2v88internal8compiler13CodeAssembler7WordShlENS1_11SloppyTNodeINS0_5WordTEEENS3_INS0_9IntegralTEEE
Boostnote:_ZN2v88internal8compiler13CodeAssembler7WordShlENS1_11SloppyTNodeINS0_5WordTEEEi
Boostnote:_ZN2v88internal8compiler13CodeAssembler7WordShrENS1_11SloppyTNodeINS0_5WordTEEENS3_INS0_9IntegralTEEE
Boostnote:_ZN2v88internal8compiler13CodeAssembler7WordShrENS1_11SloppyTNodeINS0_5WordTEEEi
Boostnote:_ZN2v88internal8compiler13CodeAssembler7WordXorENS1_11SloppyTNodeINS0_5WordTEEES5_
Boostnote:_ZN2v88internal8compiler13CodeAssembler8AtomicOrENS0_11MachineTypeEPNS1_4NodeES5_S5_
Boostnote:_ZN2v88internal8compiler13CodeAssembler8Int32AddENS1_11SloppyTNodeINS0_7Word32TEEES5_
Boostnote:_ZN2v88internal8compiler13CodeAssembler8Int32DivENS1_11SloppyTNodeINS0_6Int32TEEES5_
Boostnote:_ZN2v88internal8compiler13CodeAssembler8Int32ModENS1_11SloppyTNodeINS0_6Int32TEEES5_
Boostnote:_ZN2v88internal8compiler13CodeAssembler8Int32MulENS1_11SloppyTNodeINS0_7Word32TEEES5_
Boostnote:_ZN2v88internal8compiler13CodeAssembler8Int32SubENS1_11SloppyTNodeINS0_7Word32TEEES5_
Boostnote:_ZN2v88internal8compiler13CodeAssembler8LoadRootENS0_4Heap13RootListIndexE
Boostnote:_ZN2v88internal8compiler13CodeAssembler8ReturnIfEPNS1_4NodeES4_
Boostnote:_ZN2v88internal8compiler13CodeAssembler8Word32OrENS1_11SloppyTNodeINS0_7Word32TEEES5_
Boostnote:_ZN2v88internal8compiler13CodeAssembler8Word64OrENS1_11SloppyTNodeINS0_7Word64TEEES5_
Boostnote:_ZN2v88internal8compiler13CodeAssembler9AtomicAddENS0_11MachineTypeEPNS1_4NodeES5_S5_
Boostnote:_ZN2v88internal8compiler13CodeAssembler9AtomicAndENS0_11MachineTypeEPNS1_4NodeES5_S5_
Boostnote:_ZN2v88internal8compiler13CodeAssembler9AtomicSubENS0_11MachineTypeEPNS1_4NodeES5_S5_
Boostnote:_ZN2v88internal8compiler13CodeAssembler9AtomicXorENS0_11MachineTypeEPNS1_4NodeES5_S5_
Boostnote:_ZN2v88internal8compiler13CodeAssembler9CallStubNERKNS0_23CallInterfaceDescriptorEmiPKPNS1_4NodeE
Boostnote:_ZN2v88internal8compiler13CodeAssembler9GotoIfNotENS1_11SloppyTNodeINS0_9IntegralTEEEPNS1_18CodeAssemblerLabelE
Boostnote:_ZN2v88internal8compiler13CodeAssembler9IntPtrAddENS1_11SloppyTNodeINS0_5WordTEEES5_
Boostnote:_ZN2v88internal8compiler13CodeAssembler9IntPtrMulENS1_11SloppyTNodeINS0_5WordTEEES5_
Boostnote:_ZN2v88internal8compiler13CodeAssembler9IntPtrSubENS1_11SloppyTNodeINS0_5WordTEEES5_
Boostnote:_ZN2v88internal8compiler13CodeAssembler9ParameterEi
Boostnote:_ZN2v88internal8compiler13CodeAssembler9ReturnRawEPNS1_4NodeE
Boostnote:_ZN2v88internal8compiler13CodeAssembler9StoreRootENS0_4Heap13RootListIndexEPNS1_4NodeE
Boostnote:_ZN2v88internal8compiler13CodeAssembler9Word32AndENS1_11SloppyTNodeINS0_7Word32TEEES5_
Boostnote:_ZN2v88internal8compiler13CodeAssembler9Word32ClzENS1_11SloppyTNodeINS0_7Word32TEEE
Boostnote:_ZN2v88internal8compiler13CodeAssembler9Word32NotENS1_11SloppyTNodeINS0_7Word32TEEE
Boostnote:_ZN2v88internal8compiler13CodeAssembler9Word32RorENS1_11SloppyTNodeINS0_7Word32TEEES5_
Boostnote:_ZN2v88internal8compiler13CodeAssembler9Word32SarENS1_11SloppyTNodeINS0_7Word32TEEES5_
Boostnote:_ZN2v88internal8compiler13CodeAssembler9Word32ShlENS1_11SloppyTNodeINS0_7Word32TEEES5_
Boostnote:_ZN2v88internal8compiler13CodeAssembler9Word32ShrENS1_11SloppyTNodeINS0_7Word32TEEES5_
Boostnote:_ZN2v88internal8compiler13CodeAssembler9Word32ShrENS1_11SloppyTNodeINS0_7Word32TEEEi
Boostnote:_ZN2v88internal8compiler13CodeAssembler9Word32XorENS1_11SloppyTNodeINS0_7Word32TEEES5_
Boostnote:_ZN2v88internal8compiler13CodeAssembler9Word64AndENS1_11SloppyTNodeINS0_7Word64TEEES5_
Boostnote:_ZN2v88internal8compiler13CodeAssembler9Word64RorENS1_11SloppyTNodeINS0_7Word64TEEES5_
Boostnote:_ZN2v88internal8compiler13CodeAssembler9Word64SarENS1_11SloppyTNodeINS0_7Word64TEEES5_
Boostnote:_ZN2v88internal8compiler13CodeAssembler9Word64ShlENS1_11SloppyTNodeINS0_7Word64TEEES5_
Boostnote:_ZN2v88internal8compiler13CodeAssembler9Word64ShrENS1_11SloppyTNodeINS0_7Word64TEEES5_
Boostnote:_ZN2v88internal8compiler13CodeAssembler9Word64XorENS1_11SloppyTNodeINS0_7Word64TEEES5_
Boostnote:_ZN2v88internal8compiler13CodeAssembler9WordEqualENS1_11SloppyTNodeINS0_5WordTEEES5_
Boostnote:_ZN2v88internal8compiler13CodeAssemblerD1Ev
Boostnote:_ZN2v88internal8compiler13CodeAssemblerD2Ev
Boostnote:_ZN2v88internal8compiler13FieldAccessOfEPKNS1_8OperatorE
Boostnote:_ZN2v88internal8compiler13Int64Lowering10LowerGraphEv
Boostnote:_ZN2v88internal8compiler13Int64Lowering11ReplaceNodeEPNS1_4NodeES4_S4_
Boostnote:_ZN2v88internal8compiler13Int64Lowering13GetIndexNodesEPNS1_4NodeERS4_S5_
Boostnote:_ZN2v88internal8compiler13Int64Lowering15DefaultLoweringEPNS1_4NodeEb
Boostnote:_ZN2v88internal8compiler13Int64Lowering15LowerComparisonEPNS1_4NodeEPKNS1_8OperatorES7_
Boostnote:_ZN2v88internal8compiler13Int64Lowering17GetReplacementLowEPNS1_4NodeE
Boostnote:_ZN2v88internal8compiler13Int64Lowering17HasReplacementLowEPNS1_4NodeE
Boostnote:_ZN2v88internal8compiler13Int64Lowering18GetReplacementHighEPNS1_4NodeE
Boostnote:_ZN2v88internal8compiler13Int64Lowering18HasReplacementHighEPNS1_4NodeE
Boostnote:_ZN2v88internal8compiler13Int64Lowering21PreparePhiReplacementEPNS1_4NodeE
Boostnote:_ZN2v88internal8compiler13Int64Lowering30GetParameterCountAfterLoweringEPNS0_9SignatureINS0_21MachineRepresentationEEE
Boostnote:_ZN2v88internal8compiler13Int64Lowering9LowerNodeEPNS1_4NodeE
Boostnote:_ZN2v88internal8compiler13Int64LoweringC1EPNS1_5GraphEPNS1_22MachineOperatorBuilderEPNS1_21CommonOperatorBuilderEPNS0_4ZoneEPNS0_9SignatureINS0_21MachineRepresentationEEE
Boostnote:_ZN2v88internal8compiler13Int64LoweringC2EPNS1_5GraphEPNS1_22MachineOperatorBuilderEPNS1_21CommonOperatorBuilderEPNS0_4ZoneEPNS0_9SignatureINS0_21MachineRepresentationEEE
Boostnote:_ZN2v88internal8compiler13JSCallReducer12ReduceJSCallEPNS1_4NodeE
Boostnote:_ZN2v88internal8compiler13JSCallReducer12ReduceJSCallEPNS1_4NodeENS0_6HandleINS0_18SharedFunctionInfoEEE
Boostnote:_ZN2v88internal8compiler13JSCallReducer13ReduceDateNowEPNS1_4NodeE
Boostnote:_ZN2v88internal8compiler13JSCallReducer13WireInLoopEndEPNS1_4NodeES4_S4_S4_S4_S4_
Boostnote:_ZN2v88internal8compiler13JSCallReducer14ReduceArrayMapEPNS1_4NodeENS0_6HandleINS0_18SharedFunctionInfoEEE
Boostnote:_ZN2v88internal8compiler13JSCallReducer14ReduceMathImulEPNS1_4NodeE
Boostnote:_ZN2v88internal8compiler13JSCallReducer14ReduceObjectIsEPNS1_4NodeE
Boostnote:_ZN2v88internal8compiler13JSCallReducer15ReduceArrayFindEPNS1_4NodeENS2_16ArrayFindVariantENS0_6HandleINS0_18SharedFunctionInfoEEE
Boostnote:_ZN2v88internal8compiler13JSCallReducer15ReduceArraySomeEPNS1_4NodeENS0_6HandleINS0_18SharedFunctionInfoEEE
Boostnote:_ZN2v88internal8compiler13JSCallReducer15ReduceMathClz32EPNS1_4NodeE
Boostnote:_ZN2v88internal8compiler13JSCallReducer15ReduceMathUnaryEPNS1_4NodeEPKNS1_8OperatorE
Boostnote:_ZN2v88internal8compiler13JSCallReducer15SafeLoadElementENS0_12ElementsKindEPNS1_4NodeES5_PS5_S6_RKNS0_14VectorSlotPairE
Boostnote:_ZN2v88internal8compiler13JSCallReducer15WireInLoopStartEPNS1_4NodeEPS4_S5_
Boostnote:_ZN2v88internal8compiler13JSCallReducer16ReduceArrayEveryEPNS1_4NodeENS0_6HandleINS0_18SharedFunctionInfoEEE
Boostnote:_ZN2v88internal8compiler13JSCallReducer16ReduceMathBinaryEPNS1_4NodeEPKNS1_8OperatorE
Boostnote:_ZN2v88internal8compiler13JSCallReducer16ReduceMathMinMaxEPNS1_4NodeEPKNS1_8OperatorES4_
Boostnote:_ZN2v88internal8compiler13JSCallReducer16ReduceReflectGetEPNS1_4NodeE
Boostnote:_ZN2v88internal8compiler13JSCallReducer16ReduceReflectHasEPNS1_4NodeE
Boostnote:_ZN2v88internal8compiler13JSCallReducer17ReduceArrayFilterEPNS1_4NodeENS0_6HandleINS0_18SharedFunctionInfoEEE
Boostnote:_ZN2v88internal8compiler13JSCallReducer17ReduceArrayReduceEPNS1_4NodeENS2_20ArrayReduceDirectionENS0_6HandleINS0_18SharedFunctionInfoEEE
Boostnote:_ZN2v88internal8compiler13JSCallReducer17ReduceGlobalIsNaNEPNS1_4NodeE
Boostnote:_ZN2v88internal8compiler13JSCallReducer17ReduceJSConstructEPNS1_4NodeE
Boostnote:_ZN2v88internal8compiler13JSCallReducer17ReduceNumberIsNaNEPNS1_4NodeE
Boostnote:_ZN2v88internal8compiler13JSCallReducer18ReduceArrayForEachEPNS1_4NodeENS0_6HandleINS0_18SharedFunctionInfoEEE
Boostnote:_ZN2v88internal8compiler13JSCallReducer18ReduceArrayIsArrayEPNS1_4NodeE
Boostnote:_ZN2v88internal8compiler13JSCallReducer18ReduceObjectCreateEPNS1_4NodeE
Boostnote:_ZN2v88internal8compiler13JSCallReducer18ReduceReflectApplyEPNS1_4NodeE
Boostnote:_ZN2v88internal8compiler13JSCallReducer19ReduceArrayIteratorEPNS1_4NodeENS0_13IterationKindE
Boostnote:_ZN2v88internal8compiler13JSCallReducer20ReduceGlobalIsFiniteEPNS1_4NodeE
Boostnote:_ZN2v88internal8compiler13JSCallReducer20ReduceNumberIsFiniteEPNS1_4NodeE
Boostnote:_ZN2v88internal8compiler13JSCallReducer20ReduceNumberParseIntEPNS1_4NodeE
Boostnote:_ZN2v88internal8compiler13JSCallReducer20ReduceReturnReceiverEPNS1_4NodeE
Boostnote:_ZN2v88internal8compiler13JSCallReducer20ReduceSoftDeoptimizeEPNS1_4NodeENS0_16DeoptimizeReasonE
Boostnote:_ZN2v88internal8compiler13JSCallReducer21ReduceCallApiFunctionEPNS1_4NodeENS0_6HandleINS0_18SharedFunctionInfoEEE
Boostnote:_ZN2v88internal8compiler13JSCallReducer21ReduceMapPrototypeGetEPNS1_4NodeE
Boostnote:_ZN2v88internal8compiler13JSCallReducer21ReduceMapPrototypeHasEPNS1_4NodeE
Boostnote:_ZN2v88internal8compiler13JSCallReducer21ReduceNumberIsIntegerEPNS1_4NodeE
Boostnote:_ZN2v88internal8compiler13JSCallReducer22ReduceArrayConstructorEPNS1_4NodeE
Boostnote:_ZN2v88internal8compiler13JSCallReducer22ReduceJSCallWithSpreadEPNS1_4NodeE
Boostnote:_ZN2v88internal8compiler13JSCallReducer22ReduceReflectConstructEPNS1_4NodeE
Boostnote:_ZN2v88internal8compiler13JSCallReducer23ReduceArrayBufferIsViewEPNS1_4NodeE
Boostnote:_ZN2v88internal8compiler13JSCallReducer23ReduceArrayPrototypePopEPNS1_4NodeE
Boostnote:_ZN2v88internal8compiler13JSCallReducer23ReduceObjectConstructorEPNS1_4NodeE
Boostnote:_ZN2v88internal8compiler13JSCallReducer24DoFilterPostCallbackWorkENS0_12ElementsKindEPPNS1_4NodeES6_S5_S5_S5_S5_
Boostnote:_ZN2v88internal8compiler13JSCallReducer24ReduceArrayPrototypePushEPNS1_4NodeE
Boostnote:_ZN2v88internal8compiler13JSCallReducer24ReduceBooleanConstructorEPNS1_4NodeE
Boostnote:_ZN2v88internal8compiler13JSCallReducer24ReduceObjectGetPrototypeEPNS1_4NodeES4_
Boostnote:_ZN2v88internal8compiler13JSCallReducer24ReducePromiseConstructorEPNS1_4NodeE
Boostnote:_ZN2v88internal8compiler13JSCallReducer24ReduceStringFromCharCodeEPNS1_4NodeE
Boostnote:_ZN2v88internal8compiler13JSCallReducer25ReduceArrayPrototypeShiftEPNS1_4NodeE
Boostnote:_ZN2v88internal8compiler13JSCallReducer25ReduceCollectionIterationEPNS1_4NodeENS0_14CollectionKindENS0_13IterationKindE
Boostnote:_ZN2v88internal8compiler13JSCallReducer25ReduceJSCallWithArrayLikeEPNS1_4NodeE
Boostnote:_ZN2v88internal8compiler13JSCallReducer25ReduceNumberIsSafeIntegerEPNS1_4NodeE
Boostnote:_ZN2v88internal8compiler13JSCallReducer25ReduceRegExpPrototypeTestEPNS1_4NodeE
Boostnote:_ZN2v88internal8compiler13JSCallReducer25ReduceStringFromCodePointEPNS1_4NodeE
Boostnote:_ZN2v88internal8compiler13JSCallReducer26CreateArtificialFrameStateEPNS1_4NodeES4_iNS0_9BailoutIdENS1_14FrameStateTypeENS0_6HandleINS0_18SharedFunctionInfoEEE
Boostnote:_ZN2v88internal8compiler13JSCallReducer26ReduceArrayIndexOfIncludesENS2_13SearchVariantEPNS1_4NodeE
Boostnote:_ZN2v88internal8compiler13JSCallReducer26ReduceDataViewPrototypeGetEPNS1_4NodeENS0_17ExternalArrayTypeE
Boostnote:_ZN2v88internal8compiler13JSCallReducer26ReduceDataViewPrototypeSetEPNS1_4NodeENS0_17ExternalArrayTypeE
Boostnote:_ZN2v88internal8compiler13JSCallReducer26ReduceDatePrototypeGetTimeEPNS1_4NodeE
Boostnote:_ZN2v88internal8compiler13JSCallReducer26ReduceObjectGetPrototypeOfEPNS1_4NodeE
Boostnote:_ZN2v88internal8compiler13JSCallReducer26ReducePromisePrototypeThenEPNS1_4NodeE
Boostnote:_ZN2v88internal8compiler13JSCallReducer26ReduceStringPrototypeSliceEPNS1_4NodeE
Boostnote:_ZN2v88internal8compiler13JSCallReducer27ReduceFunctionPrototypeBindEPNS1_4NodeE
Boostnote:_ZN2v88internal8compiler13JSCallReducer27ReduceFunctionPrototypeCallEPNS1_4NodeE
Boostnote:_ZN2v88internal8compiler13JSCallReducer27ReduceJSConstructWithSpreadEPNS1_4NodeE
Boostnote:_ZN2v88internal8compiler13JSCallReducer27ReducePromiseInternalRejectEPNS1_4NodeE
Boostnote:_ZN2v88internal8compiler13JSCallReducer27ReducePromisePrototypeCatchEPNS1_4NodeE
Boostnote:_ZN2v88internal8compiler13JSCallReducer27ReduceReflectGetPrototypeOfEPNS1_4NodeE
Boostnote:_ZN2v88internal8compiler13JSCallReducer27ReduceStringPrototypeCharAtEPNS1_4NodeE
Boostnote:_ZN2v88internal8compiler13JSCallReducer27ReduceStringPrototypeConcatEPNS1_4NodeENS0_6HandleINS0_18SharedFunctionInfoEEE
Boostnote:_ZN2v88internal8compiler13JSCallReducer27ReduceStringPrototypeSubstrEPNS1_4NodeE
Boostnote:_ZN2v88internal8compiler13JSCallReducer27ReduceTypedArrayConstructorEPNS1_4NodeENS0_6HandleINS0_18SharedFunctionInfoEEE
Boostnote:_ZN2v88internal8compiler13JSCallReducer28ReduceFunctionPrototypeApplyEPNS1_4NodeE
Boostnote:_ZN2v88internal8compiler13JSCallReducer28ReducePromiseInternalResolveEPNS1_4NodeE
Boostnote:_ZN2v88internal8compiler13JSCallReducer28ReduceStringPrototypeIndexOfEPNS1_4NodeE
Boostnote:_ZN2v88internal8compiler13JSCallReducer29ReduceArrayBufferViewAccessorEPNS1_4NodeENS0_12InstanceTypeERKNS1_11FieldAccessE
Boostnote:_ZN2v88internal8compiler13JSCallReducer29ReduceCollectionPrototypeSizeEPNS1_4NodeENS0_14CollectionKindE
Boostnote:_ZN2v88internal8compiler13JSCallReducer29ReduceObjectPrototypeGetProtoEPNS1_4NodeE
Boostnote:_ZN2v88internal8compiler13JSCallReducer29ReducePromisePrototypeFinallyEPNS1_4NodeE
Boostnote:_ZN2v88internal8compiler13JSCallReducer29ReduceStringPrototypeIteratorEPNS1_4NodeE
Boostnote:_ZN2v88internal8compiler13JSCallReducer29ReduceStringPrototypeStringAtEPKNS1_8OperatorEPNS1_4NodeE
Boostnote:_ZN2v88internal8compiler13JSCallReducer29WireInCallbackIsCallableCheckEPNS1_4NodeES4_S4_S4_PS4_S5_S5_
Boostnote:_ZN2v88internal8compiler13JSCallReducer30ReduceJSConstructWithArrayLikeEPNS1_4NodeE
Boostnote:_ZN2v88internal8compiler13JSCallReducer30ReducePromiseResolveTrampolineEPNS1_4NodeE
Boostnote:_ZN2v88internal8compiler13JSCallReducer30ReduceStringPrototypeSubstringEPNS1_4NodeE
Boostnote:_ZN2v88internal8compiler13JSCallReducer32ReduceArrayIteratorPrototypeNextEPNS1_4NodeE
Boostnote:_ZN2v88internal8compiler13JSCallReducer32ReduceAsyncFunctionPromiseCreateEPNS1_4NodeE
Boostnote:_ZN2v88internal8compiler13JSCallReducer32ReducePromiseInternalConstructorEPNS1_4NodeE
Boostnote:_ZN2v88internal8compiler13JSCallReducer32RewirePostCallbackExceptionEdgesEPNS1_4NodeES4_S4_PS4_S5_
Boostnote:_ZN2v88internal8compiler13JSCallReducer33ReduceAsyncFunctionPromiseReleaseEPNS1_4NodeE
Boostnote:_ZN2v88internal8compiler13JSCallReducer33ReduceStringIteratorPrototypeNextEPNS1_4NodeE
Boostnote:_ZN2v88internal8compiler13JSCallReducer34ReduceFunctionPrototypeHasInstanceEPNS1_4NodeE
Boostnote:_ZN2v88internal8compiler13JSCallReducer34ReduceObjectPrototypeIsPrototypeOfEPNS1_4NodeE
Boostnote:_ZN2v88internal8compiler13JSCallReducer35ReduceObjectPrototypeHasOwnPropertyEPNS1_4NodeE
Boostnote:_ZN2v88internal8compiler13JSCallReducer36ReduceStringPrototypeToLowerCaseIntlEPNS1_4NodeE
Boostnote:_ZN2v88internal8compiler13JSCallReducer36ReduceStringPrototypeToUpperCaseIntlEPNS1_4NodeE
Boostnote:_ZN2v88internal8compiler13JSCallReducer36ReduceTypedArrayPrototypeToStringTagEPNS1_4NodeE
Boostnote:_ZN2v88internal8compiler13JSCallReducer37ReduceCollectionIteratorPrototypeNextEPNS1_4NodeEiNS0_6HandleINS0_10HeapObjectEEENS0_12InstanceTypeES8_
Boostnote:_ZN2v88internal8compiler13JSCallReducer42ReduceCallOrConstructWithArrayLikeOrSpreadEPNS1_4NodeEiRKNS1_13CallFrequencyERKNS0_14VectorSlotPairE
Boostnote:_ZN2v88internal8compiler13JSCallReducer6ReduceEPNS1_4NodeE
Boostnote:_ZN2v88internal8compiler13JSCallReducer8FinalizeEv
Boostnote:_ZN2v88internal8compiler13MoveOptimizer12CompressGapsEPNS1_11InstructionE
Boostnote:_ZN2v88internal8compiler13MoveOptimizer12MigrateMovesEPNS1_11InstructionES4_
Boostnote:_ZN2v88internal8compiler13MoveOptimizer13CompressBlockEPNS1_16InstructionBlockE
Boostnote:_ZN2v88internal8compiler13MoveOptimizer13CompressMovesEPNS1_12ParallelMoveEPNS0_10ZoneVectorIPNS1_12MoveOperandsEEE
Boostnote:_ZN2v88internal8compiler13MoveOptimizer13FinalizeMovesEPNS1_11InstructionE
Boostnote:_ZN2v88internal8compiler13MoveOptimizer13OptimizeMergeEPNS1_16InstructionBlockE
Boostnote:_ZN2v88internal8compiler13MoveOptimizer27RemoveClobberedDestinationsEPNS1_11InstructionE
Boostnote:_ZN2v88internal8compiler13MoveOptimizer3RunEv
Boostnote:_ZN2v88internal8compiler13MoveOptimizerC1EPNS0_4ZoneEPNS1_19InstructionSequenceE
Boostnote:_ZN2v88internal8compiler13MoveOptimizerC2EPNS0_4ZoneEPNS1_19InstructionSequenceE
Boostnote:_ZN2v88internal8compiler14DiamondMatcherC1EPNS1_4NodeE
Boostnote:_ZN2v88internal8compiler14DiamondMatcherC2EPNS1_4NodeE
Boostnote:_ZN2v88internal8compiler14EscapeAnalysis6ReduceEPNS1_4NodeEPNS1_18EffectGraphReducer9ReductionE
Boostnote:_ZN2v88internal8compiler14EscapeAnalysisC1EPNS1_7JSGraphEPNS0_4ZoneE
Boostnote:_ZN2v88internal8compiler14EscapeAnalysisC2EPNS1_7JSGraphEPNS0_4ZoneE
Boostnote:_ZN2v88internal8compiler14NodeProperties11IsValueEdgeENS1_4EdgeE
Boostnote:_ZN2v88internal8compiler14NodeProperties11ReplaceUsesEPNS1_4NodeES4_S4_S4_S4_
Boostnote:_ZN2v88internal8compiler14NodeProperties12GetTypeOrAnyEPNS1_4NodeE
Boostnote:_ZN2v88internal8compiler14NodeProperties12IsEffectEdgeENS1_4EdgeE
Boostnote:_ZN2v88internal8compiler14NodeProperties13GetMapWitnessEPNS0_7IsolateEPNS1_4NodeE
Boostnote:_ZN2v88internal8compiler14NodeProperties13GetValueInputEPNS1_4NodeEi
Boostnote:_ZN2v88internal8compiler14NodeProperties13IsContextEdgeENS1_4EdgeE
Boostnote:_ZN2v88internal8compiler14NodeProperties13IsControlEdgeENS1_4EdgeE
Boostnote:_ZN2v88internal8compiler14NodeProperties14CanBePrimitiveEPNS0_7IsolateEPNS1_4NodeES6_
Boostnote:_ZN2v88internal8compiler14NodeProperties14FindProjectionEPNS1_4NodeEm
Boostnote:_ZN2v88internal8compiler14NodeProperties14GetEffectInputEPNS1_4NodeEi
Boostnote:_ZN2v88internal8compiler14NodeProperties14PastValueIndexEPNS1_4NodeE
Boostnote:_ZN2v88internal8compiler14NodeProperties15GetContextInputEPNS1_4NodeE
Boostnote:_ZN2v88internal8compiler14NodeProperties15GetControlInputEPNS1_4NodeEi
Boostnote:_ZN2v88internal8compiler14NodeProperties15GetOuterContextEPNS1_4NodeEPm
Boostnote:_ZN2v88internal8compiler14NodeProperties15PastEffectIndexEPNS1_4NodeE
Boostnote:_ZN2v88internal8compiler14NodeProperties16IsFrameStateEdgeENS1_4EdgeE
Boostnote:_ZN2v88internal8compiler14NodeProperties16PastContextIndexEPNS1_4NodeE
Boostnote:_ZN2v88internal8compiler14NodeProperties16PastControlIndexEPNS1_4NodeE
Boostnote:_ZN2v88internal8compiler14NodeProperties17InferReceiverMapsEPNS0_7IsolateEPNS1_4NodeES6_PNS0_13ZoneHandleSetINS0_3MapEEE
Boostnote:_ZN2v88internal8compiler14NodeProperties17IsExceptionalCallEPNS1_4NodeEPS4_
Boostnote:_ZN2v88internal8compiler14NodeProperties17MergeControlToEndEPNS1_5GraphEPNS1_21CommonOperatorBuilderEPNS1_4NodeE
Boostnote:_ZN2v88internal8compiler14NodeProperties17RemoveValueInputsEPNS1_4NodeE
Boostnote:_ZN2v88internal8compiler14NodeProperties17ReplaceValueInputEPNS1_4NodeES4_i
Boostnote:_ZN2v88internal8compiler14NodeProperties18GetFrameStateInputEPNS1_4NodeE
Boostnote:_ZN2v88internal8compiler14NodeProperties18ReplaceEffectInputEPNS1_4NodeES4_i
Boostnote:_ZN2v88internal8compiler14NodeProperties18ReplaceValueInputsEPNS1_4NodeES4_
Boostnote:_ZN2v88internal8compiler14NodeProperties19PastFrameStateIndexEPNS1_4NodeE
Boostnote:_ZN2v88internal8compiler14NodeProperties19ReplaceContextInputEPNS1_4NodeES4_
Boostnote:_ZN2v88internal8compiler14NodeProperties19ReplaceControlInputEPNS1_4NodeES4_i
Boostnote:_ZN2v88internal8compiler14NodeProperties20CanBeNullOrUndefinedEPNS0_7IsolateEPNS1_4NodeES6_
Boostnote:_ZN2v88internal8compiler14NodeProperties20FindFrameStateBeforeEPNS1_4NodeE
Boostnote:_ZN2v88internal8compiler14NodeProperties20RemoveNonValueInputsEPNS1_4NodeE
Boostnote:_ZN2v88internal8compiler14NodeProperties22AllValueInputsAreTypedEPNS1_4NodeE
Boostnote:_ZN2v88internal8compiler14NodeProperties22HasInstanceTypeWitnessEPNS0_7IsolateEPNS1_4NodeES6_NS0_12InstanceTypeE
Boostnote:_ZN2v88internal8compiler14NodeProperties22ReplaceFrameStateInputEPNS1_4NodeES4_
Boostnote:_ZN2v88internal8compiler14NodeProperties23CollectValueProjectionsEPNS1_4NodeEPS4_m
Boostnote:_ZN2v88internal8compiler14NodeProperties25CollectControlProjectionsEPNS1_4NodeEPS4_m
Boostnote:_ZN2v88internal8compiler14NodeProperties29NoObservableSideEffectBetweenEPNS1_4NodeES4_
Boostnote:_ZN2v88internal8compiler14NodeProperties31FindSuccessfulControlProjectionEPNS1_4NodeE
Boostnote:_ZN2v88internal8compiler14NodeProperties6EqualsEPNS1_4NodeES4_
Boostnote:_ZN2v88internal8compiler14NodeProperties6IsSameEPNS1_4NodeES4_
Boostnote:_ZN2v88internal8compiler14NodeProperties8ChangeOpEPNS1_4NodeEPKNS1_8OperatorE
Boostnote:_ZN2v88internal8compiler14NodeProperties8HashCodeEPNS1_4NodeE
Boostnote:_ZN2v88internal8compiler14OperationTyper10NumberAcosENS1_4TypeE
Boostnote:_ZN2v88internal8compiler14OperationTyper10NumberAsinENS1_4TypeE
Boostnote:_ZN2v88internal8compiler14OperationTyper10NumberAtanENS1_4TypeE
Boostnote:_ZN2v88internal8compiler14OperationTyper10NumberCbrtENS1_4TypeE
Boostnote:_ZN2v88internal8compiler14OperationTyper10NumberCeilENS1_4TypeE
Boostnote:_ZN2v88internal8compiler14OperationTyper10NumberCoshENS1_4TypeE
Boostnote:_ZN2v88internal8compiler14OperationTyper10NumberImulENS1_4TypeES3_
Boostnote:_ZN2v88internal8compiler14OperationTyper10NumberLog2ENS1_4TypeE
Boostnote:_ZN2v88internal8compiler14OperationTyper10NumberSignENS1_4TypeE
Boostnote:_ZN2v88internal8compiler14OperationTyper10NumberSinhENS1_4TypeE
Boostnote:_ZN2v88internal8compiler14OperationTyper10NumberSqrtENS1_4TypeE
Boostnote:_ZN2v88internal8compiler14OperationTyper10NumberTanhENS1_4TypeE
Boostnote:_ZN2v88internal8compiler14OperationTyper11CheckNumberENS1_4TypeE
Boostnote:_ZN2v88internal8compiler14OperationTyper11NumberAcoshENS1_4TypeE
Boostnote:_ZN2v88internal8compiler14OperationTyper11NumberAsinhENS1_4TypeE
Boostnote:_ZN2v88internal8compiler14OperationTyper11NumberAtan2ENS1_4TypeES3_
Boostnote:_ZN2v88internal8compiler14OperationTyper11NumberAtanhENS1_4TypeE
Boostnote:_ZN2v88internal8compiler14OperationTyper11NumberClz32ENS1_4TypeE
Boostnote:_ZN2v88internal8compiler14OperationTyper11NumberExpm1ENS1_4TypeE
Boostnote:_ZN2v88internal8compiler14OperationTyper11NumberFloorENS1_4TypeE
Boostnote:_ZN2v88internal8compiler14OperationTyper11NumberLog10ENS1_4TypeE
Boostnote:_ZN2v88internal8compiler14OperationTyper11NumberLog1pENS1_4TypeE
Boostnote:_ZN2v88internal8compiler14OperationTyper11NumberRoundENS1_4TypeE
Boostnote:_ZN2v88internal8compiler14OperationTyper11NumberTruncENS1_4TypeE
Boostnote:_ZN2v88internal8compiler14OperationTyper11StrictEqualENS1_4TypeES3_
Boostnote:_ZN2v88internal8compiler14OperationTyper11ToPrimitiveENS1_4TypeE
Boostnote:_ZN2v88internal8compiler14OperationTyper11WeakenRangeENS1_4TypeES3_
Boostnote:_ZN2v88internal8compiler14OperationTyper12NumberDivideENS1_4TypeES3_
Boostnote:_ZN2v88internal8compiler14OperationTyper12NumberFroundENS1_4TypeE
Boostnote:_ZN2v88internal8compiler14OperationTyper13NumberModulusENS1_4TypeES3_
Boostnote:_ZN2v88internal8compiler14OperationTyper13NumberToInt32ENS1_4TypeE
Boostnote:_ZN2v88internal8compiler14OperationTyper13TypeTypeGuardEPKNS1_8OperatorENS1_4TypeE
Boostnote:_ZN2v88internal8compiler14OperationTyper14MultiplyRangerENS1_4TypeES3_
Boostnote:_ZN2v88internal8compiler14OperationTyper14NumberMultiplyENS1_4TypeES3_
Boostnote:_ZN2v88internal8compiler14OperationTyper14NumberSubtractENS1_4TypeES3_
Boostnote:_ZN2v88internal8compiler14OperationTyper14NumberToStringENS1_4TypeE
Boostnote:_ZN2v88internal8compiler14OperationTyper14NumberToUint32ENS1_4TypeE
Boostnote:_ZN2v88internal8compiler14OperationTyper14SubtractRangerEdddd
Boostnote:_ZN2v88internal8compiler14OperationTyper15ConvertReceiverENS1_4TypeE
Boostnote:_ZN2v88internal8compiler14OperationTyper15NumberBitwiseOrENS1_4TypeES3_
Boostnote:_ZN2v88internal8compiler14OperationTyper15NumberShiftLeftENS1_4TypeES3_
Boostnote:_ZN2v88internal8compiler14OperationTyper15NumberToBooleanENS1_4TypeE
Boostnote:_ZN2v88internal8compiler14OperationTyper16CheckFloat64HoleENS1_4TypeE
Boostnote:_ZN2v88internal8compiler14OperationTyper16FalsifyUndefinedENS_4base5FlagsINS2_22ComparisonOutcomeFlagsEiEE
Boostnote:_ZN2v88internal8compiler14OperationTyper16NumberBitwiseAndENS1_4TypeES3_
Boostnote:_ZN2v88internal8compiler14OperationTyper16NumberBitwiseXorENS1_4TypeES3_
Boostnote:_ZN2v88internal8compiler14OperationTyper16NumberShiftRightENS1_4TypeES3_
Boostnote:_ZN2v88internal8compiler14OperationTyper16NumberSilenceNaNENS1_4TypeE
Boostnote:_ZN2v88internal8compiler14OperationTyper17ToNumberOrNumericENS0_6Object10ConversionENS1_4TypeE
Boostnote:_ZN2v88internal8compiler14OperationTyper19SpeculativeToNumberENS1_4TypeE
Boostnote:_ZN2v88internal8compiler14OperationTyper20NumberToUint8ClampedENS1_4TypeE
Boostnote:_ZN2v88internal8compiler14OperationTyper20SpeculativeNumberAddENS1_4TypeES3_
Boostnote:_ZN2v88internal8compiler14OperationTyper23NumberShiftRightLogicalENS1_4TypeES3_
Boostnote:_ZN2v88internal8compiler14OperationTyper23SpeculativeNumberDivideENS1_4TypeES3_
Boostnote:_ZN2v88internal8compiler14OperationTyper24SpeculativeNumberModulusENS1_4TypeES3_
Boostnote:_ZN2v88internal8compiler14OperationTyper25SpeculativeNumberMultiplyENS1_4TypeES3_
Boostnote:_ZN2v88internal8compiler14OperationTyper25SpeculativeNumberSubtractENS1_4TypeES3_
Boostnote:_ZN2v88internal8compiler14OperationTyper25SpeculativeSafeIntegerAddENS1_4TypeES3_
Boostnote:_ZN2v88internal8compiler14OperationTyper26SpeculativeNumberBitwiseOrENS1_4TypeES3_
Boostnote:_ZN2v88internal8compiler14OperationTyper26SpeculativeNumberShiftLeftENS1_4TypeES3_
Boostnote:_ZN2v88internal8compiler14OperationTyper27SpeculativeNumberBitwiseAndENS1_4TypeES3_
Boostnote:_ZN2v88internal8compiler14OperationTyper27SpeculativeNumberBitwiseXorENS1_4TypeES3_
Boostnote:_ZN2v88internal8compiler14OperationTyper27SpeculativeNumberShiftRightENS1_4TypeES3_
Boostnote:_ZN2v88internal8compiler14OperationTyper28ConvertTaggedHoleToUndefinedENS1_4TypeE
Boostnote:_ZN2v88internal8compiler14OperationTyper30SpeculativeSafeIntegerSubtractENS1_4TypeES3_
Boostnote:_ZN2v88internal8compiler14OperationTyper34SpeculativeNumberShiftRightLogicalENS1_4TypeES3_
Boostnote:_ZN2v88internal8compiler14OperationTyper5MergeENS1_4TypeES3_
Boostnote:_ZN2v88internal8compiler14OperationTyper6InvertENS1_4TypeE
Boostnote:_ZN2v88internal8compiler14OperationTyper6InvertENS_4base5FlagsINS2_22ComparisonOutcomeFlagsEiEE
Boostnote:_ZN2v88internal8compiler14OperationTyper7RangifyENS1_4TypeE
Boostnote:_ZN2v88internal8compiler14OperationTyper8ToNumberENS1_4TypeE
Boostnote:_ZN2v88internal8compiler14OperationTyper9AddRangerEdddd
Boostnote:_ZN2v88internal8compiler14OperationTyper9NumberAbsENS1_4TypeE
Boostnote:_ZN2v88internal8compiler14OperationTyper9NumberAddENS1_4TypeES3_
Boostnote:_ZN2v88internal8compiler14OperationTyper9NumberCosENS1_4TypeE
Boostnote:_ZN2v88internal8compiler14OperationTyper9NumberExpENS1_4TypeE
Boostnote:_ZN2v88internal8compiler14OperationTyper9NumberLogENS1_4TypeE
Boostnote:_ZN2v88internal8compiler14OperationTyper9NumberMaxENS1_4TypeES3_
Boostnote:_ZN2v88internal8compiler14OperationTyper9NumberMinENS1_4TypeES3_
Boostnote:_ZN2v88internal8compiler14OperationTyper9NumberPowENS1_4TypeES3_
Boostnote:_ZN2v88internal8compiler14OperationTyper9NumberSinENS1_4TypeE
Boostnote:_ZN2v88internal8compiler14OperationTyper9NumberTanENS1_4TypeE
Boostnote:_ZN2v88internal8compiler14OperationTyper9SameValueENS1_4TypeES3_
Boostnote:_ZN2v88internal8compiler14OperationTyper9ToBooleanENS1_4TypeE
Boostnote:_ZN2v88internal8compiler14OperationTyper9ToNumericENS1_4TypeE
Boostnote:_ZN2v88internal8compiler14OperationTyperC1EPNS0_7IsolateEPKNS1_12JSHeapBrokerEPNS0_4ZoneE
Boostnote:_ZN2v88internal8compiler14OperationTyperC2EPNS0_7IsolateEPKNS1_12JSHeapBrokerEPNS0_4ZoneE
Boostnote:_ZN2v88internal8compiler14PhiInstruction11RenameInputEmi
Boostnote:_ZN2v88internal8compiler14PhiInstruction8SetInputEmi
Boostnote:_ZN2v88internal8compiler14PhiInstructionC1EPNS0_4ZoneEim
Boostnote:_ZN2v88internal8compiler14PhiInstructionC2EPNS0_4ZoneEim
Boostnote:_ZN2v88internal8compiler15ContextAccessOfEPKNS1_8OperatorE
Boostnote:_ZN2v88internal8compiler15ElementAccessOfEPKNS1_8OperatorE
Boostnote:_ZN2v88internal8compiler15ExplicitOperandC1ENS1_15LocationOperand12LocationKindENS0_21MachineRepresentationEi
Boostnote:_ZN2v88internal8compiler15ExplicitOperandC2ENS1_15LocationOperand12LocationKindENS0_21MachineRepresentationEi
Boostnote:_ZN2v88internal8compiler15JSTypedLowering11ReduceJSAddEPNS1_4NodeE
Boostnote:_ZN2v88internal8compiler15JSTypedLowering12ReduceJSCallEPNS1_4NodeE
Boostnote:_ZN2v88internal8compiler15JSTypedLowering13ReduceJSEqualEPNS1_4NodeE
Boostnote:_ZN2v88internal8compiler15JSTypedLowering14ReduceJSNegateEPNS1_4NodeE
Boostnote:_ZN2v88internal8compiler15JSTypedLowering14ReduceJSToNameEPNS1_4NodeE
Boostnote:_ZN2v88internal8compiler15JSTypedLowering15ReduceUI32ShiftEPNS1_4NodeENS1_10SignednessE
Boostnote:_ZN2v88internal8compiler15JSTypedLowering16ReduceInt32BinopEPNS1_4NodeE
Boostnote:_ZN2v88internal8compiler15JSTypedLowering16ReduceJSParseIntEPNS1_4NodeE
Boostnote:_ZN2v88internal8compiler15JSTypedLowering16ReduceJSToLengthEPNS1_4NodeE
Boostnote:_ZN2v88internal8compiler15JSTypedLowering16ReduceJSToObjectEPNS1_4NodeE
Boostnote:_ZN2v88internal8compiler15JSTypedLowering16ReduceJSToStringEPNS1_4NodeE
Boostnote:_ZN2v88internal8compiler15JSTypedLowering17ReduceJSConstructEPNS1_4NodeE
Boostnote:_ZN2v88internal8compiler15JSTypedLowering17ReduceJSDecrementEPNS1_4NodeE
Boostnote:_ZN2v88internal8compiler15JSTypedLowering17ReduceJSForInNextEPNS1_4NodeE
Boostnote:_ZN2v88internal8compiler15JSTypedLowering17ReduceJSIncrementEPNS1_4NodeE
Boostnote:_ZN2v88internal8compiler15JSTypedLowering17ReduceJSLoadNamedEPNS1_4NodeE
Boostnote:_ZN2v88internal8compiler15JSTypedLowering17ReduceJSToIntegerEPNS1_4NodeE
Boostnote:_ZN2v88internal8compiler15JSTypedLowering17ReduceNumberBinopEPNS1_4NodeE
Boostnote:_ZN2v88internal8compiler15JSTypedLowering18BuildGetModuleCellEPNS1_4NodeE
Boostnote:_ZN2v88internal8compiler15JSTypedLowering18ReduceJSBitwiseNotEPNS1_4NodeE
Boostnote:_ZN2v88internal8compiler15JSTypedLowering18ReduceJSComparisonEPNS1_4NodeE
Boostnote:_ZN2v88internal8compiler15JSTypedLowering18ReduceJSLoadModuleEPNS1_4NodeE
Boostnote:_ZN2v88internal8compiler15JSTypedLowering19ReduceJSLoadContextEPNS1_4NodeE
Boostnote:_ZN2v88internal8compiler15JSTypedLowering19ReduceJSLoadMessageEPNS1_4NodeE
Boostnote:_ZN2v88internal8compiler15JSTypedLowering19ReduceJSStoreModuleEPNS1_4NodeE
Boostnote:_ZN2v88internal8compiler15JSTypedLowering19ReduceJSStrictEqualEPNS1_4NodeE
Boostnote:_ZN2v88internal8compiler15JSTypedLowering19ReduceObjectIsArrayEPNS1_4NodeE
Boostnote:_ZN2v88internal8compiler15JSTypedLowering20BuildGetStringLengthEPNS1_4NodeE
Boostnote:_ZN2v88internal8compiler15JSTypedLowering20ReduceJSForInPrepareEPNS1_4NodeE
Boostnote:_ZN2v88internal8compiler15JSTypedLowering20ReduceJSStoreContextEPNS1_4NodeE
Boostnote:_ZN2v88internal8compiler15JSTypedLowering20ReduceJSStoreMessageEPNS1_4NodeE
Boostnote:_ZN2v88internal8compiler15JSTypedLowering21ReduceJSToStringInputEPNS1_4NodeE
Boostnote:_ZN2v88internal8compiler15JSTypedLowering22ReduceCreateConsStringEPNS1_4NodeE
Boostnote:_ZN2v88internal8compiler15JSTypedLowering22ReduceJSGeneratorStoreEPNS1_4NodeE
Boostnote:_ZN2v88internal8compiler15JSTypedLowering25ReduceJSToNumberOrNumericEPNS1_4NodeE
Boostnote:_ZN2v88internal8compiler15JSTypedLowering26ReduceJSCallForwardVarargsEPNS1_4NodeE
Boostnote:_ZN2v88internal8compiler15JSTypedLowering26ReduceSpeculativeNumberAddEPNS1_4NodeE
Boostnote:_ZN2v88internal8compiler15JSTypedLowering27ReduceJSHasInPrototypeChainEPNS1_4NodeE
Boostnote:_ZN2v88internal8compiler15JSTypedLowering27ReduceJSOrdinaryHasInstanceEPNS1_4NodeE
Boostnote:_ZN2v88internal8compiler15JSTypedLowering28ReduceSpeculativeNumberBinopEPNS1_4NodeE
Boostnote:_ZN2v88internal8compiler15JSTypedLowering30ReduceJSToNumberOrNumericInputEPNS1_4NodeE
Boostnote:_ZN2v88internal8compiler15JSTypedLowering31ReduceJSConstructForwardVarargsEPNS1_4NodeE
Boostnote:_ZN2v88internal8compiler15JSTypedLowering31ReduceJSGeneratorRestoreContextEPNS1_4NodeE
Boostnote:_ZN2v88internal8compiler15JSTypedLowering32ReduceJSGeneratorRestoreRegisterEPNS1_4NodeE
Boostnote:_ZN2v88internal8compiler15JSTypedLowering33ReduceSpeculativeNumberComparisonEPNS1_4NodeE
Boostnote:_ZN2v88internal8compiler15JSTypedLowering36ReduceJSGeneratorRestoreContinuationEPNS1_4NodeE
Boostnote:_ZN2v88internal8compiler15JSTypedLowering39ReduceJSGeneratorRestoreInputOrDebugPosEPNS1_4NodeE
Boostnote:_ZN2v88internal8compiler15JSTypedLowering6ReduceEPNS1_4NodeE
Boostnote:_ZN2v88internal8compiler15JSTypedLoweringC1EPNS1_15AdvancedReducer6EditorEPNS1_7JSGraphEPKNS1_12JSHeapBrokerEPNS0_4ZoneE
Boostnote:_ZN2v88internal8compiler15JSTypedLoweringC2EPNS1_15AdvancedReducer6EditorEPNS1_7JSGraphEPKNS1_12JSHeapBrokerEPNS0_4ZoneE
Boostnote:_ZN2v88internal8compiler15LoadElimination11ReduceStartEPNS1_4NodeE
Boostnote:_ZN2v88internal8compiler15LoadElimination11UpdateStateEPNS1_4NodeEPKNS2_13AbstractStateE
Boostnote:_ZN2v88internal8compiler15LoadElimination12AbstractMapsC1EPNS0_4ZoneE
Boostnote:_ZN2v88internal8compiler15LoadElimination12AbstractMapsC1EPNS1_4NodeENS0_13ZoneHandleSetINS0_3MapEEEPNS0_4ZoneE
Boostnote:_ZN2v88internal8compiler15LoadElimination12AbstractMapsC2EPNS0_4ZoneE
Boostnote:_ZN2v88internal8compiler15LoadElimination12AbstractMapsC2EPNS1_4NodeENS0_13ZoneHandleSetINS0_3MapEEEPNS0_4ZoneE
Boostnote:_ZN2v88internal8compiler15LoadElimination12FieldIndexOfERKNS1_11FieldAccessE
Boostnote:_ZN2v88internal8compiler15LoadElimination12FieldIndexOfEi
Boostnote:_ZN2v88internal8compiler15LoadElimination13AbstractState5MergeEPKS3_PNS0_4ZoneE
Boostnote:_ZN2v88internal8compiler15LoadElimination14ReduceMapGuardEPNS1_4NodeE
Boostnote:_ZN2v88internal8compiler15LoadElimination15ReduceCheckMapsEPNS1_4NodeE
Boostnote:_ZN2v88internal8compiler15LoadElimination15ReduceEffectPhiEPNS1_4NodeE
Boostnote:_ZN2v88internal8compiler15LoadElimination15ReduceLoadFieldEPNS1_4NodeE
Boostnote:_ZN2v88internal8compiler15LoadElimination15ReduceOtherNodeEPNS1_4NodeE
Boostnote:_ZN2v88internal8compiler15LoadElimination16ReduceStoreFieldEPNS1_4NodeE
Boostnote:_ZN2v88internal8compiler15LoadElimination17ReduceCompareMapsEPNS1_4NodeE
Boostnote:_ZN2v88internal8compiler15LoadElimination17ReduceLoadElementEPNS1_4NodeE
Boostnote:_ZN2v88internal8compiler15LoadElimination17UpdateStateForPhiEPKNS2_13AbstractStateEPNS1_4NodeES7_
Boostnote:_ZN2v88internal8compiler15LoadElimination18ReduceStoreElementEPNS1_4NodeE
Boostnote:_ZN2v88internal8compiler15LoadElimination23ReduceStoreTypedElementEPNS1_4NodeE
Boostnote:_ZN2v88internal8compiler15LoadElimination27AbstractStateForEffectNodes3SetEPNS1_4NodeEPKNS2_13AbstractStateE
Boostnote:_ZN2v88internal8compiler15LoadElimination27ReduceMaybeGrowFastElementsEPNS1_4NodeE
Boostnote:_ZN2v88internal8compiler15LoadElimination28ReduceArrayBufferWasNeuteredEPNS1_4NodeE
Boostnote:_ZN2v88internal8compiler15LoadElimination28ReduceTransitionElementsKindEPNS1_4NodeE
Boostnote:_ZN2v88internal8compiler15LoadElimination31ReduceTransitionAndStoreElementEPNS1_4NodeE
Boostnote:_ZN2v88internal8compiler15LoadElimination32ReduceEnsureWritableFastElementsEPNS1_4NodeE
Boostnote:_ZN2v88internal8compiler15LoadElimination6ReduceEPNS1_4NodeE
Boostnote:_ZN2v88internal8compiler15NodeOriginTable12AddDecoratorEv
Boostnote:_ZN2v88internal8compiler15NodeOriginTable13SetNodeOriginEPNS1_4NodeERKNS1_10NodeOriginE
Boostnote:_ZN2v88internal8compiler15NodeOriginTable15RemoveDecoratorEv
Boostnote:_ZN2v88internal8compiler15NodeOriginTableC1EPNS1_5GraphE
Boostnote:_ZN2v88internal8compiler15NodeOriginTableC2EPNS1_5GraphE
Boostnote:_ZN2v88internal8compiler15PeeledIteration3mapEPNS1_4NodeE
Boostnote:_ZN2v88internal8compiler15RawMachineLabelD1Ev
Boostnote:_ZN2v88internal8compiler15RawMachineLabelD2Ev
Boostnote:_ZN2v88internal8compiler16BytecodeAnalysis7AnalyzeENS0_9BailoutIdE
Boostnote:_ZN2v88internal8compiler16BytecodeAnalysis8PushLoopEii
Boostnote:_ZN2v88internal8compiler16BytecodeAnalysisC1ENS0_6HandleINS0_13BytecodeArrayEEEPNS0_4ZoneEb
Boostnote:_ZN2v88internal8compiler16BytecodeAnalysisC2ENS0_6HandleINS0_13BytecodeArrayEEEPNS0_4ZoneEb
Boostnote:_ZN2v88internal8compiler16CallDescriptorOfEPKNS1_8OperatorE
Boostnote:_ZN2v88internal8compiler16HeapConstantTypeC1EjRKNS1_13HeapObjectRefE
Boostnote:_ZN2v88internal8compiler16HeapConstantTypeC2EjRKNS1_13HeapObjectRefE
Boostnote:_ZN2v88internal8compiler16InstructionBlockC1EPNS0_4ZoneENS1_9RpoNumberES5_S5_bb
Boostnote:_ZN2v88internal8compiler16InstructionBlockC2EPNS0_4ZoneENS1_9RpoNumberES5_S5_bb
Boostnote:_ZN2v88internal8compiler16JSCreateLowering14ReduceJSCreateEPNS1_4NodeE
Boostnote:_ZN2v88internal8compiler16JSCreateLowering14ReduceNewArrayEPNS1_4NodeENSt3__16vectorIS4_NS5_9allocatorIS4_EEEENS0_6HandleINS0_3MapEEENS0_13PretenureFlagE
Boostnote:_ZN2v88internal8compiler16JSCreateLowering14ReduceNewArrayEPNS1_4NodeES4_NS0_6HandleINS0_3MapEEENS0_13PretenureFlagE
Boostnote:_ZN2v88internal8compiler16JSCreateLowering14ReduceNewArrayEPNS1_4NodeES4_iNS0_6HandleINS0_3MapEEENS0_13PretenureFlagE
Boostnote:_ZN2v88internal8compiler16JSCreateLowering16AllocateElementsEPNS1_4NodeES4_NS0_12ElementsKindERKNSt3__16vectorIS4_NS6_9allocatorIS4_EEEENS0_13PretenureFlagE
Boostnote:_ZN2v88internal8compiler16JSCreateLowering16AllocateElementsEPNS1_4NodeES4_NS0_12ElementsKindEiNS0_13PretenureFlagE
Boostnote:_ZN2v88internal8compiler16JSCreateLowering17AllocateArgumentsEPNS1_4NodeES4_S4_
Boostnote:_ZN2v88internal8compiler16JSCreateLowering19AllocateFastLiteralEPNS1_4NodeES4_NS1_11JSObjectRefENS0_13PretenureFlagE
Boostnote:_ZN2v88internal8compiler16JSCreateLowering19ReduceJSCreateArrayEPNS1_4NodeE
Boostnote:_ZN2v88internal8compiler16JSCreateLowering20ReduceJSCreateObjectEPNS1_4NodeE
Boostnote:_ZN2v88internal8compiler16JSCreateLowering21AllocateLiteralRegExpEPNS1_4NodeES4_NS1_11JSRegExpRefE
Boostnote:_ZN2v88internal8compiler16JSCreateLowering21AllocateRestArgumentsEPNS1_4NodeES4_S4_i
Boostnote:_ZN2v88internal8compiler16JSCreateLowering21ReduceJSCreateClosureEPNS1_4NodeE
Boostnote:_ZN2v88internal8compiler16JSCreateLowering21ReduceJSCreatePromiseEPNS1_4NodeE
Boostnote:_ZN2v88internal8compiler16JSCreateLowering23ReduceJSCreateArgumentsEPNS1_4NodeE
Boostnote:_ZN2v88internal8compiler16JSCreateLowering24AllocateAliasedArgumentsEPNS1_4NodeES4_S4_S4_RKNS1_21SharedFunctionInfoRefEPb
Boostnote:_ZN2v88internal8compiler16JSCreateLowering24AllocateAliasedArgumentsEPNS1_4NodeES4_S4_S4_S4_RKNS1_21SharedFunctionInfoRefEPb
Boostnote:_ZN2v88internal8compiler16JSCreateLowering24ReduceNewArrayToStubCallEPNS1_4NodeENS0_6HandleINS0_14AllocationSiteEEE
Boostnote:_ZN2v88internal8compiler16JSCreateLowering25ReduceJSCreateWithContextEPNS1_4NodeE
Boostnote:_ZN2v88internal8compiler16JSCreateLowering26ReduceJSCreateBlockContextEPNS1_4NodeE
Boostnote:_ZN2v88internal8compiler16JSCreateLowering26ReduceJSCreateCatchContextEPNS1_4NodeE
Boostnote:_ZN2v88internal8compiler16JSCreateLowering27AllocateFastLiteralElementsEPNS1_4NodeES4_NS1_11JSObjectRefENS0_13PretenureFlagE
Boostnote:_ZN2v88internal8compiler16JSCreateLowering27ReduceJSCreateArrayIteratorEPNS1_4NodeE
Boostnote:_ZN2v88internal8compiler16JSCreateLowering27ReduceJSCreateBoundFunctionEPNS1_4NodeE
Boostnote:_ZN2v88internal8compiler16JSCreateLowering27ReduceJSCreateKeyValueArrayEPNS1_4NodeE
Boostnote:_ZN2v88internal8compiler16JSCreateLowering27ReduceJSCreateLiteralRegExpEPNS1_4NodeE
Boostnote:_ZN2v88internal8compiler16JSCreateLowering28ReduceJSCreateStringIteratorEPNS1_4NodeE
Boostnote:_ZN2v88internal8compiler16JSCreateLowering29ReduceJSCreateFunctionContextEPNS1_4NodeE
Boostnote:_ZN2v88internal8compiler16JSCreateLowering29ReduceJSCreateGeneratorObjectEPNS1_4NodeE
Boostnote:_ZN2v88internal8compiler16JSCreateLowering30ReduceJSCreateIterResultObjectEPNS1_4NodeE
Boostnote:_ZN2v88internal8compiler16JSCreateLowering31ReduceJSCreateEmptyLiteralArrayEPNS1_4NodeE
Boostnote:_ZN2v88internal8compiler16JSCreateLowering32ReduceJSCreateCollectionIteratorEPNS1_4NodeE
Boostnote:_ZN2v88internal8compiler16JSCreateLowering32ReduceJSCreateEmptyLiteralObjectEPNS1_4NodeE
Boostnote:_ZN2v88internal8compiler16JSCreateLowering34ReduceJSCreateLiteralArrayOrObjectEPNS1_4NodeE
Boostnote:_ZN2v88internal8compiler16JSCreateLowering6ReduceEPNS1_4NodeE
Boostnote:_ZN2v88internal8compiler16ParameterIndexOfEPKNS1_8OperatorE
Boostnote:_ZN2v88internal8compiler16ResumeJumpTarget12AtLoopHeaderEiRKS2_
Boostnote:_ZN2v88internal8compiler16ResumeJumpTarget4LeafEii
Boostnote:_ZN2v88internal8compiler16ResumeJumpTargetC1Eiii
Boostnote:_ZN2v88internal8compiler16ResumeJumpTargetC2Eiii
Boostnote:_ZN2v88internal8compiler16ScheduleVerifier3RunEPNS1_8ScheduleE
Boostnote:_ZN2v88internal8compiler16StateValuesCache12AreKeysEqualEPvS3_
Boostnote:_ZN2v88internal8compiler16StateValuesCache15GetWorkingSpaceEm
Boostnote:_ZN2v88internal8compiler16StateValuesCache16GetNodeForValuesEPPNS1_4NodeEmPKNS0_9BitVectorEi
Boostnote:_ZN2v88internal8compiler16StateValuesCache17AreValueKeysEqualEPNS2_14StateValuesKeyES4_
Boostnote:_ZN2v88internal8compiler16StateValuesCache17IsKeysEqualToNodeEPNS2_14StateValuesKeyEPNS1_4NodeE
Boostnote:_ZN2v88internal8compiler16StateValuesCache19GetEmptyStateValuesEv
Boostnote:_ZN2v88internal8compiler16StateValuesCache20FillBufferWithValuesEPNSt3__15arrayIPNS1_4NodeELm8EEEPmS9_PS6_mPKNS0_9BitVectorEi
Boostnote:_ZN2v88internal8compiler16StateValuesCache22GetValuesNodeFromCacheEPPNS1_4NodeEmNS1_15SparseInputMaskE
Boostnote:_ZN2v88internal8compiler16StateValuesCache9BuildTreeEPmPPNS1_4NodeEmPKNS0_9BitVectorEim
Boostnote:_ZN2v88internal8compiler16StateValuesCacheC1EPNS1_7JSGraphE
Boostnote:_ZN2v88internal8compiler16StateValuesCacheC2EPNS1_7JSGraphE
Boostnote:_ZN2v88internal8compiler17BranchElimination10ReduceLoopEPNS1_4NodeE
Boostnote:_ZN2v88internal8compiler17BranchElimination11ReduceMergeEPNS1_4NodeE
Boostnote:_ZN2v88internal8compiler17BranchElimination11ReduceStartEPNS1_4NodeE
Boostnote:_ZN2v88internal8compiler17BranchElimination12ReduceBranchEPNS1_4NodeE
Boostnote:_ZN2v88internal8compiler17BranchElimination16UpdateConditionsEPNS1_4NodeENS2_21ControlPathConditionsE
Boostnote:_ZN2v88internal8compiler17BranchElimination16UpdateConditionsEPNS1_4NodeENS2_21ControlPathConditionsES4_S4_b
Boostnote:_ZN2v88internal8compiler17BranchElimination18ReduceOtherControlEPNS1_4NodeE
Boostnote:_ZN2v88internal8compiler17BranchElimination21ControlPathConditions12AddConditionEPNS0_4ZoneEPNS1_4NodeES7_bS3_
Boostnote:_ZN2v88internal8compiler17BranchElimination27ReduceDeoptimizeConditionalEPNS1_4NodeE
Boostnote:_ZN2v88internal8compiler17BranchElimination30TakeConditionsFromFirstControlEPNS1_4NodeE
Boostnote:_ZN2v88internal8compiler17BranchElimination6ReduceEPNS1_4NodeE
Boostnote:_ZN2v88internal8compiler17BranchElimination8ReduceIfEPNS1_4NodeEb
Boostnote:_ZN2v88internal8compiler17BranchEliminationC1EPNS1_15AdvancedReducer6EditorEPNS1_7JSGraphEPNS0_4ZoneE
Boostnote:_ZN2v88internal8compiler17BranchEliminationC2EPNS1_15AdvancedReducer6EditorEPNS1_7JSGraphEPNS0_4ZoneE
Boostnote:_ZN2v88internal8compiler17BranchEliminationD0Ev
Boostnote:_ZN2v88internal8compiler17BranchEliminationD1Ev
Boostnote:_ZN2v88internal8compiler17BranchEliminationD2Ev
Boostnote:_ZN2v88internal8compiler17JSOperatorBuilder10BitwiseAndEv
Boostnote:_ZN2v88internal8compiler17JSOperatorBuilder10BitwiseNotEv
Boostnote:_ZN2v88internal8compiler17JSOperatorBuilder10BitwiseXorEv
Boostnote:_ZN2v88internal8compiler17JSOperatorBuilder10InstanceOfERKNS0_14VectorSlotPairE
Boostnote:_ZN2v88internal8compiler17JSOperatorBuilder10LoadGlobalERKNS0_6HandleINS0_4NameEEERKNS0_14VectorSlotPairENS0_10TypeofModeE
Boostnote:_ZN2v88internal8compiler17JSOperatorBuilder10LoadModuleEi
Boostnote:_ZN2v88internal8compiler17JSOperatorBuilder10RegExpTestEv
Boostnote:_ZN2v88internal8compiler17JSOperatorBuilder10ShiftRightEv
Boostnote:_ZN2v88internal8compiler17JSOperatorBuilder10StackCheckEv
Boostnote:_ZN2v88internal8compiler17JSOperatorBuilder10StoreNamedENS0_12LanguageModeENS0_6HandleINS0_4NameEEERKNS0_14VectorSlotPairE
Boostnote:_ZN2v88internal8compiler17JSOperatorBuilder11CallRuntimeENS0_7Runtime10FunctionIdE
Boostnote:_ZN2v88internal8compiler17JSOperatorBuilder11CallRuntimeENS0_7Runtime10FunctionIdEm
Boostnote:_ZN2v88internal8compiler17JSOperatorBuilder11CallRuntimeEPKNS0_7Runtime8FunctionEm
Boostnote:_ZN2v88internal8compiler17JSOperatorBuilder11CreateArrayEmNS0_6HandleINS0_14AllocationSiteEEE
Boostnote:_ZN2v88internal8compiler17JSOperatorBuilder11GreaterThanENS0_20CompareOperationHintE
Boostnote:_ZN2v88internal8compiler17JSOperatorBuilder11HasPropertyEv
Boostnote:_ZN2v88internal8compiler17JSOperatorBuilder11LoadContextEmmb
Boostnote:_ZN2v88internal8compiler17JSOperatorBuilder11LoadMessageEv
Boostnote:_ZN2v88internal8compiler17JSOperatorBuilder11StoreGlobalENS0_12LanguageModeERKNS0_6HandleINS0_4NameEEERKNS0_14VectorSlotPairE
Boostnote:_ZN2v88internal8compiler17JSOperatorBuilder11StoreModuleEi
Boostnote:_ZN2v88internal8compiler17JSOperatorBuilder11StrictEqualENS0_20CompareOperationHintE
Boostnote:_ZN2v88internal8compiler17JSOperatorBuilder12CreateObjectEv
Boostnote:_ZN2v88internal8compiler17JSOperatorBuilder12ExponentiateEv
Boostnote:_ZN2v88internal8compiler17JSOperatorBuilder12ForInPrepareENS1_9ForInModeE
Boostnote:_ZN2v88internal8compiler17JSOperatorBuilder12LoadPropertyERKNS0_14VectorSlotPairE
Boostnote:_ZN2v88internal8compiler17JSOperatorBuilder12StoreContextEmm
Boostnote:_ZN2v88internal8compiler17JSOperatorBuilder12StoreMessageEv
Boostnote:_ZN2v88internal8compiler17JSOperatorBuilder13CreateClosureENS0_6HandleINS0_18SharedFunctionInfoEEENS3_INS0_12FeedbackCellEEENS3_INS0_4CodeEEENS0_13PretenureFlagE
Boostnote:_ZN2v88internal8compiler17JSOperatorBuilder13CreatePromiseEv
Boostnote:_ZN2v88internal8compiler17JSOperatorBuilder13ObjectIsArrayEv
Boostnote:_ZN2v88internal8compiler17JSOperatorBuilder13RejectPromiseEv
Boostnote:_ZN2v88internal8compiler17JSOperatorBuilder13StoreNamedOwnENS0_6HandleINS0_4NameEEERKNS0_14VectorSlotPairE
Boostnote:_ZN2v88internal8compiler17JSOperatorBuilder13StorePropertyENS0_12LanguageModeERKNS0_14VectorSlotPairE
Boostnote:_ZN2v88internal8compiler17JSOperatorBuilder14CallWithSpreadEjRKNS1_13CallFrequencyERKNS0_14VectorSlotPairENS0_15SpeculationModeE
Boostnote:_ZN2v88internal8compiler17JSOperatorBuilder14DeletePropertyEv
Boostnote:_ZN2v88internal8compiler17JSOperatorBuilder14ForInEnumerateEv
Boostnote:_ZN2v88internal8compiler17JSOperatorBuilder14FulfillPromiseEv
Boostnote:_ZN2v88internal8compiler17JSOperatorBuilder14GeneratorStoreEi
Boostnote:_ZN2v88internal8compiler17JSOperatorBuilder14PromiseResolveEv
Boostnote:_ZN2v88internal8compiler17JSOperatorBuilder14ResolvePromiseEv
Boostnote:_ZN2v88internal8compiler17JSOperatorBuilder15CreateArgumentsENS0_19CreateArgumentsTypeE
Boostnote:_ZN2v88internal8compiler17JSOperatorBuilder15LessThanOrEqualENS0_20CompareOperationHintE
Boostnote:_ZN2v88internal8compiler17JSOperatorBuilder16CreateTypedArrayEv
Boostnote:_ZN2v88internal8compiler17JSOperatorBuilder17CallWithArrayLikeENS1_13CallFrequencyE
Boostnote:_ZN2v88internal8compiler17JSOperatorBuilder17CreateWithContextERKNS0_6HandleINS0_9ScopeInfoEEE
Boostnote:_ZN2v88internal8compiler17JSOperatorBuilder17ShiftRightLogicalEv
Boostnote:_ZN2v88internal8compiler17JSOperatorBuilder18CallForwardVarargsEmj
Boostnote:_ZN2v88internal8compiler17JSOperatorBuilder18CreateBlockContextERKNS0_6HandleINS0_9ScopeInfoEEE
Boostnote:_ZN2v88internal8compiler17JSOperatorBuilder18CreateCatchContextERKNS0_6HandleINS0_9ScopeInfoEEE
Boostnote:_ZN2v88internal8compiler17JSOperatorBuilder18CreateLiteralArrayENS0_6HandleINS0_27ArrayBoilerplateDescriptionEEERKNS0_14VectorSlotPairEii
Boostnote:_ZN2v88internal8compiler17JSOperatorBuilder18GreaterThanOrEqualENS0_20CompareOperationHintE
Boostnote:_ZN2v88internal8compiler17JSOperatorBuilder18PerformPromiseThenEv
Boostnote:_ZN2v88internal8compiler17JSOperatorBuilder19ConstructWithSpreadEjNS1_13CallFrequencyERKNS0_14VectorSlotPairE
Boostnote:_ZN2v88internal8compiler17JSOperatorBuilder19CreateArrayIteratorENS0_13IterationKindE
Boostnote:_ZN2v88internal8compiler17JSOperatorBuilder19CreateBoundFunctionEmNS0_6HandleINS0_3MapEEE
Boostnote:_ZN2v88internal8compiler17JSOperatorBuilder19CreateKeyValueArrayEv
Boostnote:_ZN2v88internal8compiler17JSOperatorBuilder19CreateLiteralObjectENS0_6HandleINS0_28ObjectBoilerplateDescriptionEEERKNS0_14VectorSlotPairEii
Boostnote:_ZN2v88internal8compiler17JSOperatorBuilder19CreateLiteralRegExpENS0_6HandleINS0_6StringEEERKNS0_14VectorSlotPairEi
Boostnote:_ZN2v88internal8compiler17JSOperatorBuilder19GetSuperConstructorEv
Boostnote:_ZN2v88internal8compiler17JSOperatorBuilder19HasInPrototypeChainEv
Boostnote:_ZN2v88internal8compiler17JSOperatorBuilder19OrdinaryHasInstanceEv
Boostnote:_ZN2v88internal8compiler17JSOperatorBuilder19StoreInArrayLiteralERKNS0_14VectorSlotPairE
Boostnote:_ZN2v88internal8compiler17JSOperatorBuilder20CreateStringIteratorEv
Boostnote:_ZN2v88internal8compiler17JSOperatorBuilder21CreateFunctionContextENS0_6HandleINS0_9ScopeInfoEEEiNS0_9ScopeTypeE
Boostnote:_ZN2v88internal8compiler17JSOperatorBuilder21CreateGeneratorObjectEv
Boostnote:_ZN2v88internal8compiler17JSOperatorBuilder22ConstructWithArrayLikeENS1_13CallFrequencyE
Boostnote:_ZN2v88internal8compiler17JSOperatorBuilder22CreateIterResultObjectEv
Boostnote:_ZN2v88internal8compiler17JSOperatorBuilder23ConstructForwardVarargsEmj
Boostnote:_ZN2v88internal8compiler17JSOperatorBuilder23CreateEmptyLiteralArrayERKNS0_14VectorSlotPairE
Boostnote:_ZN2v88internal8compiler17JSOperatorBuilder23GeneratorRestoreContextEv
Boostnote:_ZN2v88internal8compiler17JSOperatorBuilder24CreateCollectionIteratorENS0_14CollectionKindENS0_13IterationKindE
Boostnote:_ZN2v88internal8compiler17JSOperatorBuilder24CreateEmptyLiteralObjectEv
Boostnote:_ZN2v88internal8compiler17JSOperatorBuilder24GeneratorRestoreRegisterEi
Boostnote:_ZN2v88internal8compiler17JSOperatorBuilder26StoreDataPropertyInLiteralERKNS0_14VectorSlotPairE
Boostnote:_ZN2v88internal8compiler17JSOperatorBuilder28GeneratorRestoreContinuationEv
Boostnote:_ZN2v88internal8compiler17JSOperatorBuilder31GeneratorRestoreInputOrDebugPosEv
Boostnote:_ZN2v88internal8compiler17JSOperatorBuilder3AddENS0_19BinaryOperationHintE
Boostnote:_ZN2v88internal8compiler17JSOperatorBuilder4CallEmRKNS1_13CallFrequencyERKNS0_14VectorSlotPairENS0_19ConvertReceiverModeENS0_15SpeculationModeE
Boostnote:_ZN2v88internal8compiler17JSOperatorBuilder5EqualENS0_20CompareOperationHintE
Boostnote:_ZN2v88internal8compiler17JSOperatorBuilder6CreateEv
Boostnote:_ZN2v88internal8compiler17JSOperatorBuilder6DivideEv
Boostnote:_ZN2v88internal8compiler17JSOperatorBuilder6NegateEv
Boostnote:_ZN2v88internal8compiler17JSOperatorBuilder6ToNameEv
Boostnote:_ZN2v88internal8compiler17JSOperatorBuilder7ModulusEv
Boostnote:_ZN2v88internal8compiler17JSOperatorBuilder8DebuggerEv
Boostnote:_ZN2v88internal8compiler17JSOperatorBuilder8LessThanENS0_20CompareOperationHintE
Boostnote:_ZN2v88internal8compiler17JSOperatorBuilder8MultiplyEv
Boostnote:_ZN2v88internal8compiler17JSOperatorBuilder8ParseIntEv
Boostnote:_ZN2v88internal8compiler17JSOperatorBuilder8SubtractEv
Boostnote:_ZN2v88internal8compiler17JSOperatorBuilder8ToLengthEv
Boostnote:_ZN2v88internal8compiler17JSOperatorBuilder8ToNumberEv
Boostnote:_ZN2v88internal8compiler17JSOperatorBuilder8ToObjectEv
Boostnote:_ZN2v88internal8compiler17JSOperatorBuilder8ToStringEv
Boostnote:_ZN2v88internal8compiler17JSOperatorBuilder9BitwiseOrEv
Boostnote:_ZN2v88internal8compiler17JSOperatorBuilder9ConstructEjNS1_13CallFrequencyERKNS0_14VectorSlotPairE
Boostnote:_ZN2v88internal8compiler17JSOperatorBuilder9DecrementEv
Boostnote:_ZN2v88internal8compiler17JSOperatorBuilder9ForInNextENS1_9ForInModeE
Boostnote:_ZN2v88internal8compiler17JSOperatorBuilder9IncrementEv
Boostnote:_ZN2v88internal8compiler17JSOperatorBuilder9LoadNamedENS0_6HandleINS0_4NameEEERKNS0_14VectorSlotPairE
Boostnote:_ZN2v88internal8compiler17JSOperatorBuilder9ShiftLeftEv
Boostnote:_ZN2v88internal8compiler17JSOperatorBuilder9ToIntegerEv
Boostnote:_ZN2v88internal8compiler17JSOperatorBuilder9ToNumericEv
Boostnote:_ZN2v88internal8compiler17JSOperatorBuilderC1EPNS0_4ZoneE
Boostnote:_ZN2v88internal8compiler17JSOperatorBuilderC2EPNS0_4ZoneE
Boostnote:_ZN2v88internal8compiler17ProjectionIndexOfEPKNS1_8OperatorE
Boostnote:_ZN2v88internal8compiler17StateValuesAccess4sizeEv
Boostnote:_ZN2v88internal8compiler17StateValuesAccess8iterator11EnsureValidEv
Boostnote:_ZN2v88internal8compiler17StateValuesAccess8iterator3PopEv
Boostnote:_ZN2v88internal8compiler17StateValuesAccess8iterator3TopEv
Boostnote:_ZN2v88internal8compiler17StateValuesAccess8iterator4PushEPNS1_4NodeE
Boostnote:_ZN2v88internal8compiler17StateValuesAccess8iterator4doneEv
Boostnote:_ZN2v88internal8compiler17StateValuesAccess8iterator4nodeEv
Boostnote:_ZN2v88internal8compiler17StateValuesAccess8iterator4typeEv
Boostnote:_ZN2v88internal8compiler17StateValuesAccess8iterator7AdvanceEv
Boostnote:_ZN2v88internal8compiler17StateValuesAccess8iteratorC1EPNS1_4NodeE
Boostnote:_ZN2v88internal8compiler17StateValuesAccess8iteratorC2EPNS1_4NodeE
Boostnote:_ZN2v88internal8compiler17StateValuesAccess8iteratordeEv
Boostnote:_ZN2v88internal8compiler17StateValuesAccess8iteratorneERS3_
Boostnote:_ZN2v88internal8compiler17StateValuesAccess8iteratorppEv
Boostnote:_ZN2v88internal8compiler17TopLevelLiveRange13SetSpillRangeEPNS1_10SpillRangeE
Boostnote:_ZN2v88internal8compiler17TopLevelLiveRange14AddUseIntervalENS1_16LifetimePositionES3_PNS0_4ZoneE
Boostnote:_ZN2v88internal8compiler17TopLevelLiveRange14AddUsePositionEPNS1_11UsePositionE
Boostnote:_ZN2v88internal8compiler17TopLevelLiveRange14EnsureIntervalENS1_16LifetimePositionES3_PNS0_4ZoneE
Boostnote:_ZN2v88internal8compiler17TopLevelLiveRange15SetSpillOperandEPNS1_18InstructionOperandE
Boostnote:_ZN2v88internal8compiler17TopLevelLiveRange16CommitSpillMovesEPNS1_19InstructionSequenceERKNS1_18InstructionOperandEb
Boostnote:_ZN2v88internal8compiler17TopLevelLiveRange17SetSplinteredFromEPS2_
Boostnote:_ZN2v88internal8compiler17TopLevelLiveRange19RecordSpillLocationEPNS0_4ZoneEiPNS1_18InstructionOperandE
Boostnote:_ZN2v88internal8compiler17TopLevelLiveRange25UpdateSpillRangePostMergeEPS2_
Boostnote:_ZN2v88internal8compiler17TopLevelLiveRange5MergeEPS2_PNS0_4ZoneE
Boostnote:_ZN2v88internal8compiler17TopLevelLiveRange8SplinterENS1_16LifetimePositionES3_PNS0_4ZoneE
Boostnote:_ZN2v88internal8compiler17TopLevelLiveRange9ShortenToENS1_16LifetimePositionE
Boostnote:_ZN2v88internal8compiler17TopLevelLiveRangeC1EiNS0_21MachineRepresentationE
Boostnote:_ZN2v88internal8compiler17TopLevelLiveRangeC2EiNS0_21MachineRepresentationE
Boostnote:_ZN2v88internal8compiler17TypedOptimization12ReduceSelectEPNS1_4NodeE
Boostnote:_ZN2v88internal8compiler17TypedOptimization12ReduceTypeOfEPNS1_4NodeE
Boostnote:_ZN2v88internal8compiler17TypedOptimization15ReduceCheckMapsEPNS1_4NodeE
Boostnote:_ZN2v88internal8compiler17TypedOptimization15ReduceLoadFieldEPNS1_4NodeE
Boostnote:_ZN2v88internal8compiler17TypedOptimization15ReduceSameValueEPNS1_4NodeE
Boostnote:_ZN2v88internal8compiler17TypedOptimization15ReduceToBooleanEPNS1_4NodeE
Boostnote:_ZN2v88internal8compiler17TypedOptimization17ReduceCheckNumberEPNS1_4NodeE
Boostnote:_ZN2v88internal8compiler17TypedOptimization17ReduceCheckStringEPNS1_4NodeE
Boostnote:_ZN2v88internal8compiler17TypedOptimization17ReduceNumberFloorEPNS1_4NodeE
Boostnote:_ZN2v88internal8compiler17TypedOptimization19NumberComparisonForEPKNS1_8OperatorE
Boostnote:_ZN2v88internal8compiler17TypedOptimization19ReduceNumberRoundopEPNS1_4NodeE
Boostnote:_ZN2v88internal8compiler17TypedOptimization20ReduceReferenceEqualEPNS1_4NodeE
Boostnote:_ZN2v88internal8compiler17TypedOptimization21ReduceCheckHeapObjectEPNS1_4NodeE
Boostnote:_ZN2v88internal8compiler17TypedOptimization21ReduceConvertReceiverEPNS1_4NodeE
Boostnote:_ZN2v88internal8compiler17TypedOptimization22ReduceStringComparisonEPNS1_4NodeE
Boostnote:_ZN2v88internal8compiler17TypedOptimization23ReduceCheckEqualsSymbolEPNS1_4NodeE
Boostnote:_ZN2v88internal8compiler17TypedOptimization24ReduceCheckNotTaggedHoleEPNS1_4NodeE
Boostnote:_ZN2v88internal8compiler17TypedOptimization25ReduceSpeculativeToNumberEPNS1_4NodeE
Boostnote:_ZN2v88internal8compiler17TypedOptimization26ReduceNumberToUint8ClampedEPNS1_4NodeE
Boostnote:_ZN2v88internal8compiler17TypedOptimization35ReduceCheckEqualsInternalizedStringEPNS1_4NodeE
Boostnote:_ZN2v88internal8compiler17TypedOptimization51TryReduceStringComparisonOfStringFromSingleCharCodeEPNS1_4NodeES4_NS1_4TypeEb
Boostnote:_ZN2v88internal8compiler17TypedOptimization61TryReduceStringComparisonOfStringFromSingleCharCodeToConstantEPNS1_4NodeERKNS1_9StringRefEb
Boostnote:_ZN2v88internal8compiler17TypedOptimization6ReduceEPNS1_4NodeE
Boostnote:_ZN2v88internal8compiler17TypedOptimization9ReducePhiEPNS1_4NodeE
Boostnote:_ZN2v88internal8compiler17TypedOptimizationC1EPNS1_15AdvancedReducer6EditorEPNS1_23CompilationDependenciesEPNS1_7JSGraphEPKNS1_12JSHeapBrokerE
Boostnote:_ZN2v88internal8compiler17TypedOptimizationC2EPNS1_15AdvancedReducer6EditorEPNS1_23CompilationDependenciesEPNS1_7JSGraphEPKNS1_12JSHeapBrokerE
Boostnote:_ZN2v88internal8compiler17TypedOptimizationD0Ev
Boostnote:_ZN2v88internal8compiler17TypedOptimizationD1Ev
Boostnote:_ZN2v88internal8compiler17TypedOptimizationD2Ev
Boostnote:_ZN2v88internal8compiler18CodeAssemblerState26SetInitialDebugInformationEPKcS4_i
Boostnote:_ZN2v88internal8compiler18CodeAssemblerStateC1EPNS0_7IsolateEPNS0_4ZoneEPNS1_14CallDescriptorENS0_4Code4KindEPKcNS0_24PoisoningMitigationLevelEji
Boostnote:_ZN2v88internal8compiler18CodeAssemblerStateC1EPNS0_7IsolateEPNS0_4ZoneERKNS0_23CallInterfaceDescriptorENS0_4Code4KindEPKcNS0_24PoisoningMitigationLevelEji
Boostnote:_ZN2v88internal8compiler18CodeAssemblerStateC1EPNS0_7IsolateEPNS0_4ZoneEiNS0_4Code4KindEPKcNS0_24PoisoningMitigationLevelEi
Boostnote:_ZN2v88internal8compiler18CodeAssemblerStateC2EPNS0_7IsolateEPNS0_4ZoneEPNS1_14CallDescriptorENS0_4Code4KindEPKcNS0_24PoisoningMitigationLevelEji
Boostnote:_ZN2v88internal8compiler18CodeAssemblerStateC2EPNS0_7IsolateEPNS0_4ZoneERKNS0_23CallInterfaceDescriptorENS0_4Code4KindEPKcNS0_24PoisoningMitigationLevelEji
Boostnote:_ZN2v88internal8compiler18CodeAssemblerStateC2EPNS0_7IsolateEPNS0_4ZoneEiNS0_4Code4KindEPKcNS0_24PoisoningMitigationLevelEi
Boostnote:_ZN2v88internal8compiler18CodeAssemblerStateD1Ev
Boostnote:_ZN2v88internal8compiler18CodeAssemblerStateD2Ev
Boostnote:_ZN2v88internal8compiler18ControlEquivalence13VisitBackedgeEPNS1_4NodeES4_NS2_12DFSDirectionE
Boostnote:_ZN2v88internal8compiler18ControlEquivalence13kInvalidClassE
Boostnote:_ZN2v88internal8compiler18ControlEquivalence16BracketListTRACEERNS0_14ZoneLinkedListINS2_7BracketEEE
Boostnote:_ZN2v88internal8compiler18ControlEquivalence16RunUndirectedDFSEPNS1_4NodeE
Boostnote:_ZN2v88internal8compiler18ControlEquivalence17BracketListDeleteERNS0_14ZoneLinkedListINS2_7BracketEEEPNS1_4NodeENS2_12DFSDirectionE
Boostnote:_ZN2v88internal8compiler18ControlEquivalence22DetermineParticipationEPNS1_4NodeE
Boostnote:_ZN2v88internal8compiler18ControlEquivalence29DetermineParticipationEnqueueERNS0_9ZoneQueueIPNS1_4NodeEEES5_
Boostnote:_ZN2v88internal8compiler18ControlEquivalence3RunEPNS1_4NodeE
Boostnote:_ZN2v88internal8compiler18ControlEquivalence6DFSPopERNS0_9ZoneStackINS2_13DFSStackEntryEEEPNS1_4NodeE
Boostnote:_ZN2v88internal8compiler18ControlEquivalence7DFSPushERNS0_9ZoneStackINS2_13DFSStackEntryEEEPNS1_4NodeES8_NS2_12DFSDirectionE
Boostnote:_ZN2v88internal8compiler18ControlEquivalence8VisitMidEPNS1_4NodeENS2_12DFSDirectionE
Boostnote:_ZN2v88internal8compiler18ControlEquivalence8VisitPreEPNS1_4NodeE
Boostnote:_ZN2v88internal8compiler18ControlEquivalence9VisitPostEPNS1_4NodeES4_NS2_12DFSDirectionE
Boostnote:_ZN2v88internal8compiler18OperatorProperties15HasContextInputEPKNS1_8OperatorE
Boostnote:_ZN2v88internal8compiler18OperatorProperties17IsBasicBlockBeginEPKNS1_8OperatorE
Boostnote:_ZN2v88internal8compiler18OperatorProperties18GetTotalInputCountEPKNS1_8OperatorE
Boostnote:_ZN2v88internal8compiler18OperatorProperties18HasFrameStateInputEPKNS1_8OperatorE
Boostnote:_ZN2v88internal8compiler18SelectParametersOfEPKNS1_8OperatorE
Boostnote:_ZN2v88internal8compiler18SimplifiedLowering11Float64SignEPNS1_4NodeE
Boostnote:_ZN2v88internal8compiler18SimplifiedLowering12Float64RoundEPNS1_4NodeE
Boostnote:_ZN2v88internal8compiler18SimplifiedLowering12ToNumberCodeEv
Boostnote:_ZN2v88internal8compiler18SimplifiedLowering13DoNumberToBitEPNS1_4NodeE
Boostnote:_ZN2v88internal8compiler18SimplifiedLowering13LowerAllNodesEv
Boostnote:_ZN2v88internal8compiler18SimplifiedLowering13ToNumericCodeEv
Boostnote:_ZN2v88internal8compiler18SimplifiedLowering16ToNumberOperatorEv
Boostnote:_ZN2v88internal8compiler18SimplifiedLowering17DoIntegral32ToBitEPNS1_4NodeE
Boostnote:_ZN2v88internal8compiler18SimplifiedLowering17ToNumericOperatorEv
Boostnote:_ZN2v88internal8compiler18SimplifiedLowering20DoOrderedNumberToBitEPNS1_4NodeE
Boostnote:_ZN2v88internal8compiler18SimplifiedLowering22DoNumberToUint8ClampedEPNS1_4NodeE
Boostnote:_ZN2v88internal8compiler18SimplifiedLowering23DoIntegerToUint8ClampedEPNS1_4NodeE
Boostnote:_ZN2v88internal8compiler18SimplifiedLowering24DoSigned32ToUint8ClampedEPNS1_4NodeE
Boostnote:_ZN2v88internal8compiler18SimplifiedLowering26DoUnsigned32ToUint8ClampedEPNS1_4NodeE
Boostnote:_ZN2v88internal8compiler18SimplifiedLowering38DoJSToNumberOrNumericTruncatesToWord32EPNS1_4NodeEPNS1_22RepresentationSelectorE
Boostnote:_ZN2v88internal8compiler18SimplifiedLowering39DoJSToNumberOrNumericTruncatesToFloat64EPNS1_4NodeEPNS1_22RepresentationSelectorE
Boostnote:_ZN2v88internal8compiler18SimplifiedLowering5DoMaxEPNS1_4NodeEPKNS1_8OperatorENS0_21MachineRepresentationE
Boostnote:_ZN2v88internal8compiler18SimplifiedLowering5DoMinEPNS1_4NodeEPKNS1_8OperatorENS0_21MachineRepresentationE
Boostnote:_ZN2v88internal8compiler18SimplifiedLowering7DoShiftEPNS1_4NodeEPKNS1_8OperatorENS1_4TypeE
Boostnote:_ZN2v88internal8compiler18SimplifiedLowering8Int32AbsEPNS1_4NodeE
Boostnote:_ZN2v88internal8compiler18SimplifiedLowering8Int32DivEPNS1_4NodeE
Boostnote:_ZN2v88internal8compiler18SimplifiedLowering8Int32ModEPNS1_4NodeE
Boostnote:_ZN2v88internal8compiler18SimplifiedLowering9Int32SignEPNS1_4NodeE
Boostnote:_ZN2v88internal8compiler18SimplifiedLowering9Uint32DivEPNS1_4NodeE
Boostnote:_ZN2v88internal8compiler18SimplifiedLowering9Uint32ModEPNS1_4NodeE
Boostnote:_ZN2v88internal8compiler18SimplifiedLoweringC1EPNS1_7JSGraphEPKNS1_12JSHeapBrokerEPNS0_4ZoneEPNS1_19SourcePositionTableEPNS1_15NodeOriginTableENS0_24PoisoningMitigationLevelE
Boostnote:_ZN2v88internal8compiler18SimplifiedLoweringC2EPNS1_7JSGraphEPKNS1_12JSHeapBrokerEPNS0_4ZoneEPNS1_19SourcePositionTableEPNS1_15NodeOriginTableENS0_24PoisoningMitigationLevelE
Boostnote:_ZN2v88internal8compiler19BytecodeLivenessMap11GetLivenessEi
Boostnote:_ZN2v88internal8compiler19BytecodeLivenessMap18InitializeLivenessEiiPNS0_4ZoneE
Boostnote:_ZN2v88internal8compiler19BytecodeLivenessMapC1EiPNS0_4ZoneE
Boostnote:_ZN2v88internal8compiler19BytecodeLivenessMapC2EiPNS0_4ZoneE
Boostnote:_ZN2v88internal8compiler19DeadCodeElimination10ReduceNodeEPNS1_4NodeE
Boostnote:_ZN2v88internal8compiler19DeadCodeElimination14ReduceLoopExitEPNS1_4NodeE
Boostnote:_ZN2v88internal8compiler19DeadCodeElimination14ReducePureNodeEPNS1_4NodeE
Boostnote:_ZN2v88internal8compiler19DeadCodeElimination14RemoveLoopExitEPNS1_4NodeE
Boostnote:_ZN2v88internal8compiler19DeadCodeElimination14TrimMergeOrPhiEPNS1_4NodeEi
Boostnote:_ZN2v88internal8compiler19DeadCodeElimination16ReduceEffectNodeEPNS1_4NodeE
Boostnote:_ZN2v88internal8compiler19DeadCodeElimination17ReduceLoopOrMergeEPNS1_4NodeE
Boostnote:_ZN2v88internal8compiler19DeadCodeElimination20PropagateDeadControlEPNS1_4NodeE
Boostnote:_ZN2v88internal8compiler19DeadCodeElimination20ReduceBranchOrSwitchEPNS1_4NodeE
Boostnote:_ZN2v88internal8compiler19DeadCodeElimination30ReduceUnreachableOrIfExceptionEPNS1_4NodeE
Boostnote:_ZN2v88internal8compiler19DeadCodeElimination35ReduceDeoptimizeOrReturnOrTerminateEPNS1_4NodeE
Boostnote:_ZN2v88internal8compiler19DeadCodeElimination6ReduceEPNS1_4NodeE
Boostnote:_ZN2v88internal8compiler19DeadCodeElimination9DeadValueEPNS1_4NodeENS0_21MachineRepresentationE
Boostnote:_ZN2v88internal8compiler19DeadCodeElimination9ReduceEndEPNS1_4NodeE
Boostnote:_ZN2v88internal8compiler19DeadCodeElimination9ReducePhiEPNS1_4NodeE
Boostnote:_ZN2v88internal8compiler19DeadCodeEliminationC1EPNS1_15AdvancedReducer6EditorEPNS1_5GraphEPNS1_21CommonOperatorBuilderEPNS0_4ZoneE
Boostnote:_ZN2v88internal8compiler19DeadCodeEliminationC2EPNS1_15AdvancedReducer6EditorEPNS1_5GraphEPNS1_21CommonOperatorBuilderEPNS0_4ZoneE
Boostnote:_ZN2v88internal8compiler19IfValueParametersOfEPKNS1_8OperatorE
Boostnote:_ZN2v88internal8compiler19InstructionSelector10MarkAsUsedEPNS1_4NodeE
Boostnote:_ZN2v88internal8compiler19InstructionSelector10Pack4LanesEPKh
Boostnote:_ZN2v88internal8compiler19InstructionSelector10StartBlockENS1_9RpoNumberE
Boostnote:_ZN2v88internal8compiler19InstructionSelector10VisitBlockEPNS1_10BasicBlockE
Boostnote:_ZN2v88internal8compiler19InstructionSelector10VisitStoreEPNS1_4NodeE
Boostnote:_ZN2v88internal8compiler19InstructionSelector10VisitThrowEPNS1_4NodeE
Boostnote:_ZN2v88internal8compiler19InstructionSelector11VisitBranchEPNS1_4NodeEPNS1_10BasicBlockES6_
Boostnote:_ZN2v88internal8compiler19InstructionSelector11VisitRetainEPNS1_4NodeE
Boostnote:_ZN2v88internal8compiler19InstructionSelector11VisitReturnEPNS1_4NodeE
Boostnote:_ZN2v88internal8compiler19InstructionSelector11VisitS128OrEPNS1_4NodeE
Boostnote:_ZN2v88internal8compiler19InstructionSelector11VisitSwitchEPNS1_4NodeERKNS1_10SwitchInfoE
Boostnote:_ZN2v88internal8compiler19InstructionSelector11VisitTrapIfEPNS1_4NodeENS1_6TrapIdE
Boostnote:_ZN2v88internal8compiler19InstructionSelector12EmitIdentityEPNS1_4NodeE
Boostnote:_ZN2v88internal8compiler19InstructionSelector12VisitCommentEPNS1_4NodeE
Boostnote:_ZN2v88internal8compiler19InstructionSelector12VisitControlEPNS1_10BasicBlockE
Boostnote:_ZN2v88internal8compiler19InstructionSelector12VisitF32x4EqEPNS1_4NodeE
Boostnote:_ZN2v88internal8compiler19InstructionSelector12VisitF32x4LeEPNS1_4NodeE
Boostnote:_ZN2v88internal8compiler19InstructionSelector12VisitF32x4LtEPNS1_4NodeE
Boostnote:_ZN2v88internal8compiler19InstructionSelector12VisitF32x4NeEPNS1_4NodeE
Boostnote:_ZN2v88internal8compiler19InstructionSelector12VisitI16x8EqEPNS1_4NodeE
Boostnote:_ZN2v88internal8compiler19InstructionSelector12VisitI16x8NeEPNS1_4NodeE
Boostnote:_ZN2v88internal8compiler19InstructionSelector12VisitI32x4EqEPNS1_4NodeE
Boostnote:_ZN2v88internal8compiler19InstructionSelector12VisitI32x4NeEPNS1_4NodeE
Boostnote:_ZN2v88internal8compiler19InstructionSelector12VisitI8x16EqEPNS1_4NodeE
Boostnote:_ZN2v88internal8compiler19InstructionSelector12VisitI8x16NeEPNS1_4NodeE
Boostnote:_ZN2v88internal8compiler19InstructionSelector12VisitS128AndEPNS1_4NodeE
Boostnote:_ZN2v88internal8compiler19InstructionSelector12VisitS128NotEPNS1_4NodeE
Boostnote:_ZN2v88internal8compiler19InstructionSelector12VisitS128XorEPNS1_4NodeE
Boostnote:_ZN2v88internal8compiler19InstructionSelector13AddTerminatorEPNS1_11InstructionE
Boostnote:_ZN2v88internal8compiler19InstructionSelector13MarkAsDefinedEPNS1_4NodeE
Boostnote:_ZN2v88internal8compiler19InstructionSelector13TryMatchBlendEPKh
Boostnote:_ZN2v88internal8compiler19InstructionSelector13UpdateRenamesEPNS1_11InstructionE
Boostnote:_ZN2v88internal8compiler19InstructionSelector13VisitConstantEPNS1_4NodeE
Boostnote:_ZN2v88internal8compiler19InstructionSelector13VisitF32x4AbsEPNS1_4NodeE
Boostnote:_ZN2v88internal8compiler19InstructionSelector13VisitF32x4AddEPNS1_4NodeE
Boostnote:_ZN2v88internal8compiler19InstructionSelector13VisitF32x4MaxEPNS1_4NodeE
Boostnote:_ZN2v88internal8compiler19InstructionSelector13VisitF32x4MinEPNS1_4NodeE
Boostnote:_ZN2v88internal8compiler19InstructionSelector13VisitF32x4MulEPNS1_4NodeE
Boostnote:_ZN2v88internal8compiler19InstructionSelector13VisitF32x4NegEPNS1_4NodeE
Boostnote:_ZN2v88internal8compiler19InstructionSelector13VisitF32x4SubEPNS1_4NodeE
Boostnote:_ZN2v88internal8compiler19InstructionSelector13VisitI16x8AddEPNS1_4NodeE
Boostnote:_ZN2v88internal8compiler19InstructionSelector13VisitI16x8GeSEPNS1_4NodeE
Boostnote:_ZN2v88internal8compiler19InstructionSelector13VisitI16x8GeUEPNS1_4NodeE
Boostnote:_ZN2v88internal8compiler19InstructionSelector13VisitI16x8GtSEPNS1_4NodeE
Boostnote:_ZN2v88internal8compiler19InstructionSelector13VisitI16x8GtUEPNS1_4NodeE
Boostnote:_ZN2v88internal8compiler19InstructionSelector13VisitI16x8MulEPNS1_4NodeE
Boostnote:_ZN2v88internal8compiler19InstructionSelector13VisitI16x8NegEPNS1_4NodeE
Boostnote:_ZN2v88internal8compiler19InstructionSelector13VisitI16x8ShlEPNS1_4NodeE
Boostnote:_ZN2v88internal8compiler19InstructionSelector13VisitI16x8SubEPNS1_4NodeE
Boostnote:_ZN2v88internal8compiler19InstructionSelector13VisitI32x4AddEPNS1_4NodeE
Boostnote:_ZN2v88internal8compiler19InstructionSelector13VisitI32x4GeSEPNS1_4NodeE
Boostnote:_ZN2v88internal8compiler19InstructionSelector13VisitI32x4GeUEPNS1_4NodeE
Boostnote:_ZN2v88internal8compiler19InstructionSelector13VisitI32x4GtSEPNS1_4NodeE
Boostnote:_ZN2v88internal8compiler19InstructionSelector13VisitI32x4GtUEPNS1_4NodeE
Boostnote:_ZN2v88internal8compiler19InstructionSelector13VisitI32x4MulEPNS1_4NodeE
Boostnote:_ZN2v88internal8compiler19InstructionSelector13VisitI32x4NegEPNS1_4NodeE
Boostnote:_ZN2v88internal8compiler19InstructionSelector13VisitI32x4ShlEPNS1_4NodeE
Boostnote:_ZN2v88internal8compiler19InstructionSelector13VisitI32x4SubEPNS1_4NodeE
Boostnote:_ZN2v88internal8compiler19InstructionSelector13VisitI8x16AddEPNS1_4NodeE
Boostnote:_ZN2v88internal8compiler19InstructionSelector13VisitI8x16GeSEPNS1_4NodeE
Boostnote:_ZN2v88internal8compiler19InstructionSelector13VisitI8x16GeUEPNS1_4NodeE
Boostnote:_ZN2v88internal8compiler19InstructionSelector13VisitI8x16GtSEPNS1_4NodeE
Boostnote:_ZN2v88internal8compiler19InstructionSelector13VisitI8x16GtUEPNS1_4NodeE
Boostnote:_ZN2v88internal8compiler19InstructionSelector13VisitI8x16MulEPNS1_4NodeE
Boostnote:_ZN2v88internal8compiler19InstructionSelector13VisitI8x16NegEPNS1_4NodeE
Boostnote:_ZN2v88internal8compiler19InstructionSelector13VisitI8x16ShlEPNS1_4NodeE
Boostnote:_ZN2v88internal8compiler19InstructionSelector13VisitI8x16SubEPNS1_4NodeE
Boostnote:_ZN2v88internal8compiler19InstructionSelector13VisitInt32AddEPNS1_4NodeE
Boostnote:_ZN2v88internal8compiler19InstructionSelector13VisitInt32DivEPNS1_4NodeE
Boostnote:_ZN2v88internal8compiler19InstructionSelector13VisitInt32ModEPNS1_4NodeE
Boostnote:_ZN2v88internal8compiler19InstructionSelector13VisitInt32MulEPNS1_4NodeE
Boostnote:_ZN2v88internal8compiler19InstructionSelector13VisitInt32SubEPNS1_4NodeE
Boostnote:_ZN2v88internal8compiler19InstructionSelector13VisitInt64AddEPNS1_4NodeE
Boostnote:_ZN2v88internal8compiler19InstructionSelector13VisitInt64DivEPNS1_4NodeE
Boostnote:_ZN2v88internal8compiler19InstructionSelector13VisitInt64ModEPNS1_4NodeE
Boostnote:_ZN2v88internal8compiler19InstructionSelector13VisitInt64MulEPNS1_4NodeE
Boostnote:_ZN2v88internal8compiler19InstructionSelector13VisitInt64SubEPNS1_4NodeE
Boostnote:_ZN2v88internal8compiler19InstructionSelector13VisitOsrValueEPNS1_4NodeE
Boostnote:_ZN2v88internal8compiler19InstructionSelector13VisitS128ZeroEPNS1_4NodeE
Boostnote:_ZN2v88internal8compiler19InstructionSelector13VisitTailCallEPNS1_4NodeE
Boostnote:_ZN2v88internal8compiler19InstructionSelector13VisitWord32OrEPNS1_4NodeE
Boostnote:_ZN2v88internal8compiler19InstructionSelector13VisitWord64OrEPNS1_4NodeE
Boostnote:_ZN2v88internal8compiler19InstructionSelector14AddInstructionEPNS1_11InstructionE
Boostnote:_ZN2v88internal8compiler19InstructionSelector14EmitDeoptimizeEimPNS1_18InstructionOperandEmS4_NS0_14DeoptimizeKindENS0_16DeoptimizeReasonERKNS0_14VectorSlotPairEPNS1_4NodeE
Boostnote:_ZN2v88internal8compiler19InstructionSelector14SetEffectLevelEPNS1_4NodeEi
Boostnote:_ZN2v88internal8compiler19InstructionSelector14TryMatchConcatEPKhPh
Boostnote:_ZN2v88internal8compiler19InstructionSelector14VisitDeadValueEPNS1_4NodeE
Boostnote:_ZN2v88internal8compiler19InstructionSelector14VisitI16x8MaxSEPNS1_4NodeE
Boostnote:_ZN2v88internal8compiler19InstructionSelector14VisitI16x8MaxUEPNS1_4NodeE
Boostnote:_ZN2v88internal8compiler19InstructionSelector14VisitI16x8MinSEPNS1_4NodeE
Boostnote:_ZN2v88internal8compiler19InstructionSelector14VisitI16x8MinUEPNS1_4NodeE
Boostnote:_ZN2v88internal8compiler19InstructionSelector14VisitI16x8ShrSEPNS1_4NodeE
Boostnote:_ZN2v88internal8compiler19InstructionSelector14VisitI16x8ShrUEPNS1_4NodeE
Boostnote:_ZN2v88internal8compiler19InstructionSelector14VisitI32x4MaxSEPNS1_4NodeE
Boostnote:_ZN2v88internal8compiler19InstructionSelector14VisitI32x4MaxUEPNS1_4NodeE
Boostnote:_ZN2v88internal8compiler19InstructionSelector14VisitI32x4MinSEPNS1_4NodeE
Boostnote:_ZN2v88internal8compiler19InstructionSelector14VisitI32x4MinUEPNS1_4NodeE
Boostnote:_ZN2v88internal8compiler19InstructionSelector14VisitI32x4ShrSEPNS1_4NodeE
Boostnote:_ZN2v88internal8compiler19InstructionSelector14VisitI32x4ShrUEPNS1_4NodeE
Boostnote:_ZN2v88internal8compiler19InstructionSelector14VisitI8x16MaxSEPNS1_4NodeE
Boostnote:_ZN2v88internal8compiler19InstructionSelector14VisitI8x16MaxUEPNS1_4NodeE
Boostnote:_ZN2v88internal8compiler19InstructionSelector14VisitI8x16MinSEPNS1_4NodeE
Boostnote:_ZN2v88internal8compiler19InstructionSelector14VisitI8x16MinUEPNS1_4NodeE
Boostnote:_ZN2v88internal8compiler19InstructionSelector14VisitI8x16ShrSEPNS1_4NodeE
Boostnote:_ZN2v88internal8compiler19InstructionSelector14VisitI8x16ShrUEPNS1_4NodeE
Boostnote:_ZN2v88internal8compiler19InstructionSelector14VisitParameterEPNS1_4NodeE
Boostnote:_ZN2v88internal8compiler19InstructionSelector14VisitStackSlotEPNS1_4NodeE
Boostnote:_ZN2v88internal8compiler19InstructionSelector14VisitUint32DivEPNS1_4NodeE
Boostnote:_ZN2v88internal8compiler19InstructionSelector14VisitUint32ModEPNS1_4NodeE
Boostnote:_ZN2v88internal8compiler19InstructionSelector14VisitUint64DivEPNS1_4NodeE
Boostnote:_ZN2v88internal8compiler19InstructionSelector14VisitUint64ModEPNS1_4NodeE
Boostnote:_ZN2v88internal8compiler19InstructionSelector14VisitWord32AndEPNS1_4NodeE
Boostnote:_ZN2v88internal8compiler19InstructionSelector14VisitWord32ClzEPNS1_4NodeE
Boostnote:_ZN2v88internal8compiler19InstructionSelector14VisitWord32CtzEPNS1_4NodeE
Boostnote:_ZN2v88internal8compiler19InstructionSelector14VisitWord32RorEPNS1_4NodeE
Boostnote:_ZN2v88internal8compiler19InstructionSelector14VisitWord32SarEPNS1_4NodeE
Boostnote:_ZN2v88internal8compiler19InstructionSelector14VisitWord32ShlEPNS1_4NodeE
Boostnote:_ZN2v88internal8compiler19InstructionSelector14VisitWord32ShrEPNS1_4NodeE
Boostnote:_ZN2v88internal8compiler19InstructionSelector14VisitWord32XorEPNS1_4NodeE
Boostnote:_ZN2v88internal8compiler19InstructionSelector14VisitWord64AndEPNS1_4NodeE
Boostnote:_ZN2v88internal8compiler19InstructionSelector14VisitWord64ClzEPNS1_4NodeE
Boostnote:_ZN2v88internal8compiler19InstructionSelector14VisitWord64CtzEPNS1_4NodeE
Boostnote:_ZN2v88internal8compiler19InstructionSelector14VisitWord64RorEPNS1_4NodeE
Boostnote:_ZN2v88internal8compiler19InstructionSelector14VisitWord64SarEPNS1_4NodeE
Boostnote:_ZN2v88internal8compiler19InstructionSelector14VisitWord64ShlEPNS1_4NodeE
Boostnote:_ZN2v88internal8compiler19InstructionSelector14VisitWord64ShrEPNS1_4NodeE
Boostnote:_ZN2v88internal8compiler19InstructionSelector14VisitWord64XorEPNS1_4NodeE
Boostnote:_ZN2v88internal8compiler19InstructionSelector15EmitTableSwitchERKNS1_10SwitchInfoERNS1_18InstructionOperandE
Boostnote:_ZN2v88internal8compiler19InstructionSelector15VisitDebugAbortEPNS1_4NodeE
Boostnote:_ZN2v88internal8compiler19InstructionSelector15VisitDebugBreakEPNS1_4NodeE
Boostnote:_ZN2v88internal8compiler19InstructionSelector15VisitDeoptimizeENS0_14DeoptimizeKindENS0_16DeoptimizeReasonERKNS0_14VectorSlotPairEPNS1_4NodeE
Boostnote:_ZN2v88internal8compiler19InstructionSelector15VisitF32x4SplatEPNS1_4NodeE
Boostnote:_ZN2v88internal8compiler19InstructionSelector15VisitFloat32AbsEPNS1_4NodeE
Boostnote:_ZN2v88internal8compiler19InstructionSelector15VisitFloat32AddEPNS1_4NodeE
Boostnote:_ZN2v88internal8compiler19InstructionSelector15VisitFloat32DivEPNS1_4NodeE
Boostnote:_ZN2v88internal8compiler19InstructionSelector15VisitFloat32MaxEPNS1_4NodeE
Boostnote:_ZN2v88internal8compiler19InstructionSelector15VisitFloat32MinEPNS1_4NodeE
Boostnote:_ZN2v88internal8compiler19InstructionSelector15VisitFloat32MulEPNS1_4NodeE
Boostnote:_ZN2v88internal8compiler19InstructionSelector15VisitFloat32NegEPNS1_4NodeE
Boostnote:_ZN2v88internal8compiler19InstructionSelector15VisitFloat32SubEPNS1_4NodeE
Boostnote:_ZN2v88internal8compiler19InstructionSelector15VisitFloat64AbsEPNS1_4NodeE
Boostnote:_ZN2v88internal8compiler19InstructionSelector15VisitFloat64AddEPNS1_4NodeE
Boostnote:_ZN2v88internal8compiler19InstructionSelector15VisitFloat64CosEPNS1_4NodeE
Boostnote:_ZN2v88internal8compiler19InstructionSelector15VisitFloat64DivEPNS1_4NodeE
Boostnote:_ZN2v88internal8compiler19InstructionSelector15VisitFloat64ExpEPNS1_4NodeE
Boostnote:_ZN2v88internal8compiler19InstructionSelector15VisitFloat64LogEPNS1_4NodeE
Boostnote:_ZN2v88internal8compiler19InstructionSelector15VisitFloat64MaxEPNS1_4NodeE
Boostnote:_ZN2v88internal8compiler19InstructionSelector15VisitFloat64MinEPNS1_4NodeE
Boostnote:_ZN2v88internal8compiler19InstructionSelector15VisitFloat64ModEPNS1_4NodeE
Boostnote:_ZN2v88internal8compiler19InstructionSelector15VisitFloat64MulEPNS1_4NodeE
Boostnote:_ZN2v88internal8compiler19InstructionSelector15VisitFloat64NegEPNS1_4NodeE
Boostnote:_ZN2v88internal8compiler19InstructionSelector15VisitFloat64PowEPNS1_4NodeE
Boostnote:_ZN2v88internal8compiler19InstructionSelector15VisitFloat64SinEPNS1_4NodeE
Boostnote:_ZN2v88internal8compiler19InstructionSelector15VisitFloat64SubEPNS1_4NodeE
Boostnote:_ZN2v88internal8compiler19InstructionSelector15VisitFloat64TanEPNS1_4NodeE
Boostnote:_ZN2v88internal8compiler19InstructionSelector15VisitI16x8SplatEPNS1_4NodeE
Boostnote:_ZN2v88internal8compiler19InstructionSelector15VisitI32x4SplatEPNS1_4NodeE
Boostnote:_ZN2v88internal8compiler19InstructionSelector15VisitI8x16SplatEPNS1_4NodeE
Boostnote:_ZN2v88internal8compiler19InstructionSelector15VisitProjectionEPNS1_4NodeE
Boostnote:_ZN2v88internal8compiler19InstructionSelector15VisitS128SelectEPNS1_4NodeE
Boostnote:_ZN2v88internal8compiler19InstructionSelector15VisitTrapUnlessEPNS1_4NodeENS1_6TrapIdE
Boostnote:_ZN2v88internal8compiler19InstructionSelector16EmitLookupSwitchERKNS1_10SwitchInfoERNS1_18InstructionOperandE
Boostnote:_ZN2v88internal8compiler19InstructionSelector16TryMatchIdentityEPKh
Boostnote:_ZN2v88internal8compiler19InstructionSelector16VisitFloat32SqrtEPNS1_4NodeE
Boostnote:_ZN2v88internal8compiler19InstructionSelector16VisitFloat64AcosEPNS1_4NodeE
Boostnote:_ZN2v88internal8compiler19InstructionSelector16VisitFloat64AsinEPNS1_4NodeE
Boostnote:_ZN2v88internal8compiler19InstructionSelector16VisitFloat64AtanEPNS1_4NodeE
Boostnote:_ZN2v88internal8compiler19InstructionSelector16VisitFloat64CbrtEPNS1_4NodeE
Boostnote:_ZN2v88internal8compiler19InstructionSelector16VisitFloat64CoshEPNS1_4NodeE
Boostnote:_ZN2v88internal8compiler19InstructionSelector16VisitFloat64Log2EPNS1_4NodeE
Boostnote:_ZN2v88internal8compiler19InstructionSelector16VisitFloat64SinhEPNS1_4NodeE
Boostnote:_ZN2v88internal8compiler19InstructionSelector16VisitFloat64SqrtEPNS1_4NodeE
Boostnote:_ZN2v88internal8compiler19InstructionSelector16VisitFloat64TanhEPNS1_4NodeE
Boostnote:_ZN2v88internal8compiler19InstructionSelector16VisitIfExceptionEPNS1_4NodeE
Boostnote:_ZN2v88internal8compiler19InstructionSelector16VisitS1x4AllTrueEPNS1_4NodeE
Boostnote:_ZN2v88internal8compiler19InstructionSelector16VisitS1x4AnyTrueEPNS1_4NodeE
Boostnote:_ZN2v88internal8compiler19InstructionSelector16VisitS1x8AllTrueEPNS1_4NodeE
Boostnote:_ZN2v88internal8compiler19InstructionSelector16VisitS1x8AnyTrueEPNS1_4NodeE
Boostnote:_ZN2v88internal8compiler19InstructionSelector16VisitUnreachableEPNS1_4NodeE
Boostnote:_ZN2v88internal8compiler19InstructionSelector16VisitWord32EqualEPNS1_4NodeE
Boostnote:_ZN2v88internal8compiler19InstructionSelector16VisitWord64EqualEPNS1_4NodeE
Boostnote:_ZN2v88internal8compiler19InstructionSelector17SwapShuffleInputsEPNS1_4NodeE
Boostnote:_ZN2v88internal8compiler19InstructionSelector17VisitDeoptimizeIfEPNS1_4NodeE
Boostnote:_ZN2v88internal8compiler19InstructionSelector17VisitFinishRegionEPNS1_4NodeE
Boostnote:_ZN2v88internal8compiler19InstructionSelector17VisitFloat32EqualEPNS1_4NodeE
Boostnote:_ZN2v88internal8compiler19InstructionSelector17VisitFloat64AcoshEPNS1_4NodeE
Boostnote:_ZN2v88internal8compiler19InstructionSelector17VisitFloat64AsinhEPNS1_4NodeE
Boostnote:_ZN2v88internal8compiler19InstructionSelector17VisitFloat64Atan2EPNS1_4NodeE
Boostnote:_ZN2v88internal8compiler19InstructionSelector17VisitFloat64AtanhEPNS1_4NodeE
Boostnote:_ZN2v88internal8compiler19InstructionSelector17VisitFloat64EqualEPNS1_4NodeE
Boostnote:_ZN2v88internal8compiler19InstructionSelector17VisitFloat64Expm1EPNS1_4NodeE
Boostnote:_ZN2v88internal8compiler19InstructionSelector17VisitFloat64Log10EPNS1_4NodeE
Boostnote:_ZN2v88internal8compiler19InstructionSelector17VisitFloat64Log1pEPNS1_4NodeE
Boostnote:_ZN2v88internal8compiler19InstructionSelector17VisitInt32MulHighEPNS1_4NodeE
Boostnote:_ZN2v88internal8compiler19InstructionSelector17VisitInt32PairAddEPNS1_4NodeE
Boostnote:_ZN2v88internal8compiler19InstructionSelector17VisitInt32PairMulEPNS1_4NodeE
Boostnote:_ZN2v88internal8compiler19InstructionSelector17VisitInt32PairSubEPNS1_4NodeE
Boostnote:_ZN2v88internal8compiler19InstructionSelector17VisitPoisonedLoadEPNS1_4NodeE
Boostnote:_ZN2v88internal8compiler19InstructionSelector17VisitS1x16AllTrueEPNS1_4NodeE
Boostnote:_ZN2v88internal8compiler19InstructionSelector17VisitS1x16AnyTrueEPNS1_4NodeE
Boostnote:_ZN2v88internal8compiler19InstructionSelector17VisitS8x16ShuffleEPNS1_4NodeE
Boostnote:_ZN2v88internal8compiler19InstructionSelector17VisitWord32PopcntEPNS1_4NodeE
Boostnote:_ZN2v88internal8compiler19InstructionSelector17VisitWord64PopcntEPNS1_4NodeE
Boostnote:_ZN2v88internal8compiler19InstructionSelector18EmitPrepareResultsEPNS0_10ZoneVectorINS1_13PushParameterEEEPKNS1_14CallDescriptorEPNS1_4NodeE
Boostnote:_ZN2v88internal8compiler19InstructionSelector18GetVirtualRegisterEPKNS1_4NodeE
Boostnote:_ZN2v88internal8compiler19InstructionSelector18SelectInstructionsEv
Boostnote:_ZN2v88internal8compiler19InstructionSelector18UpdateRenamesInPhiEPNS1_14PhiInstructionE
Boostnote:_ZN2v88internal8compiler19InstructionSelector18VisitF32x4AddHorizEPNS1_4NodeE
Boostnote:_ZN2v88internal8compiler19InstructionSelector18VisitI16x8AddHorizEPNS1_4NodeE
Boostnote:_ZN2v88internal8compiler19InstructionSelector18VisitI32x4AddHorizEPNS1_4NodeE
Boostnote:_ZN2v88internal8compiler19InstructionSelector18VisitInt32LessThanEPNS1_4NodeE
Boostnote:_ZN2v88internal8compiler19InstructionSelector18VisitInt64LessThanEPNS1_4NodeE
Boostnote:_ZN2v88internal8compiler19InstructionSelector18VisitProtectedLoadEPNS1_4NodeE
Boostnote:_ZN2v88internal8compiler19InstructionSelector18VisitUint32MulHighEPNS1_4NodeE
Boostnote:_ZN2v88internal8compiler19InstructionSelector18VisitUnalignedLoadEPNS1_4NodeE
Boostnote:_ZN2v88internal8compiler19InstructionSelector18VisitWord32PairSarEPNS1_4NodeE
Boostnote:_ZN2v88internal8compiler19InstructionSelector18VisitWord32PairShlEPNS1_4NodeE
Boostnote:_ZN2v88internal8compiler19InstructionSelector18VisitWord32PairShrEPNS1_4NodeE
Boostnote:_ZN2v88internal8compiler19InstructionSelector19CanonicalizeShuffleEPNS1_4NodeEPhPb
Boostnote:_ZN2v88internal8compiler19InstructionSelector19CanonicalizeShuffleEbPhPbS4_
Boostnote:_ZN2v88internal8compiler19InstructionSelector19TryMatch16x8ShuffleEPKhPh
Boostnote:_ZN2v88internal8compiler19InstructionSelector19TryMatch32x4ShuffleEPKhPh
Boostnote:_ZN2v88internal8compiler19InstructionSelector19VisitFloat32RoundUpEPNS1_4NodeE
Boostnote:_ZN2v88internal8compiler19InstructionSelector19VisitFloat64RoundUpEPNS1_4NodeE
Boostnote:_ZN2v88internal8compiler19InstructionSelector19VisitProtectedStoreEPNS1_4NodeE
Boostnote:_ZN2v88internal8compiler19InstructionSelector19VisitUint32LessThanEPNS1_4NodeE
Boostnote:_ZN2v88internal8compiler19InstructionSelector19VisitUint64LessThanEPNS1_4NodeE
Boostnote:_ZN2v88internal8compiler19InstructionSelector19VisitUnalignedStoreEPNS1_4NodeE
Boostnote:_ZN2v88internal8compiler19InstructionSelector19VisitWord32AtomicOrEPNS1_4NodeE
Boostnote:_ZN2v88internal8compiler19InstructionSelector19VisitWord64AtomicOrEPNS1_4NodeE
Boostnote:_ZN2v88internal8compiler19InstructionSelector20EmitPrepareArgumentsEPNS0_10ZoneVectorINS1_13PushParameterEEEPKNS1_14CallDescriptorEPNS1_4NodeE
Boostnote:_ZN2v88internal8compiler19InstructionSelector20EmitWithContinuationEiNS1_18InstructionOperandEPNS1_17FlagsContinuationE
Boostnote:_ZN2v88internal8compiler19InstructionSelector20EmitWithContinuationEiNS1_18InstructionOperandES3_PNS1_17FlagsContinuationE
Boostnote:_ZN2v88internal8compiler19InstructionSelector20EmitWithContinuationEiNS1_18InstructionOperandES3_S3_PNS1_17FlagsContinuationE
Boostnote:_ZN2v88internal8compiler19InstructionSelector20EmitWithContinuationEiPNS1_17FlagsContinuationE
Boostnote:_ZN2v88internal8compiler19InstructionSelector20EmitWithContinuationEimPNS1_18InstructionOperandEmS4_PNS1_17FlagsContinuationE
Boostnote:_ZN2v88internal8compiler19InstructionSelector20InitializeCallBufferEPNS1_4NodeEPNS1_10CallBufferENS_4base5FlagsINS2_14CallBufferFlagEiEEbi
Boostnote:_ZN2v88internal8compiler19InstructionSelector20IsSourcePositionUsedEPNS1_4NodeE
Boostnote:_ZN2v88internal8compiler19InstructionSelector20MarkAsRepresentationENS0_21MachineRepresentationEPNS1_4NodeE
Boostnote:_ZN2v88internal8compiler19InstructionSelector20MarkAsRepresentationENS0_21MachineRepresentationERKNS1_18InstructionOperandE
Boostnote:_ZN2v88internal8compiler19InstructionSelector20VisitFloat32LessThanEPNS1_4NodeE
Boostnote:_ZN2v88internal8compiler19InstructionSelector20VisitFloat64LessThanEPNS1_4NodeE
Boostnote:_ZN2v88internal8compiler19InstructionSelector20VisitWord32AtomicAddEPNS1_4NodeE
Boostnote:_ZN2v88internal8compiler19InstructionSelector20VisitWord32AtomicAndEPNS1_4NodeE
Boostnote:_ZN2v88internal8compiler19InstructionSelector20VisitWord32AtomicSubEPNS1_4NodeE
Boostnote:_ZN2v88internal8compiler19InstructionSelector20VisitWord32AtomicXorEPNS1_4NodeE
Boostnote:_ZN2v88internal8compiler19InstructionSelector20VisitWord64AtomicAddEPNS1_4NodeE
Boostnote:_ZN2v88internal8compiler19InstructionSelector20VisitWord64AtomicAndEPNS1_4NodeE
Boostnote:_ZN2v88internal8compiler19InstructionSelector20VisitWord64AtomicSubEPNS1_4NodeE
Boostnote:_ZN2v88internal8compiler19InstructionSelector20VisitWord64AtomicXorEPNS1_4NodeE
Boostnote:_ZN2v88internal8compiler19InstructionSelector20VisitWordCompareZeroEPNS1_4NodeES4_PNS1_17FlagsContinuationE
Boostnote:_ZN2v88internal8compiler19InstructionSelector21AlignmentRequirementsEv
Boostnote:_ZN2v88internal8compiler19InstructionSelector21VisitDeoptimizeUnlessEPNS1_4NodeE
Boostnote:_ZN2v88internal8compiler19InstructionSelector21VisitF32x4ExtractLaneEPNS1_4NodeE
Boostnote:_ZN2v88internal8compiler19InstructionSelector21VisitF32x4RecipApproxEPNS1_4NodeE
Boostnote:_ZN2v88internal8compiler19InstructionSelector21VisitF32x4ReplaceLaneEPNS1_4NodeE
Boostnote:_ZN2v88internal8compiler19InstructionSelector21VisitFloat32RoundDownEPNS1_4NodeE
Boostnote:_ZN2v88internal8compiler19InstructionSelector21VisitFloat64RoundDownEPNS1_4NodeE
Boostnote:_ZN2v88internal8compiler19InstructionSelector21VisitI16x8ExtractLaneEPNS1_4NodeE
Boostnote:_ZN2v88internal8compiler19InstructionSelector21VisitI16x8ReplaceLaneEPNS1_4NodeE
Boostnote:_ZN2v88internal8compiler19InstructionSelector21VisitI32x4ExtractLaneEPNS1_4NodeE
Boostnote:_ZN2v88internal8compiler19InstructionSelector21VisitI32x4ReplaceLaneEPNS1_4NodeE
Boostnote:_ZN2v88internal8compiler19InstructionSelector21VisitI8x16ExtractLaneEPNS1_4NodeE
Boostnote:_ZN2v88internal8compiler19InstructionSelector21VisitI8x16ReplaceLaneEPNS1_4NodeE
Boostnote:_ZN2v88internal8compiler19InstructionSelector21VisitLoadFramePointerEPNS1_4NodeE
Boostnote:_ZN2v88internal8compiler19InstructionSelector21VisitLoadStackPointerEPNS1_4NodeE
Boostnote:_ZN2v88internal8compiler19InstructionSelector21VisitSpeculationFenceEPNS1_4NodeE
Boostnote:_ZN2v88internal8compiler19InstructionSelector21VisitUnsafePointerAddEPNS1_4NodeE
Boostnote:_ZN2v88internal8compiler19InstructionSelector21VisitWord32AtomicLoadEPNS1_4NodeE
Boostnote:_ZN2v88internal8compiler19InstructionSelector21VisitWord64AtomicLoadEPNS1_4NodeE
Boostnote:_ZN2v88internal8compiler19InstructionSelector22CanProduceSignalingNaNEPNS1_4NodeE
Boostnote:_ZN2v88internal8compiler19InstructionSelector22EmitBinarySearchSwitchERKNS1_10SwitchInfoERNS1_18InstructionOperandE
Boostnote:_ZN2v88internal8compiler19InstructionSelector22VisitFloat64SilenceNaNEPNS1_4NodeE
Boostnote:_ZN2v88internal8compiler19InstructionSelector22VisitI16x8AddSaturateSEPNS1_4NodeE
Boostnote:_ZN2v88internal8compiler19InstructionSelector22VisitI16x8AddSaturateUEPNS1_4NodeE
Boostnote:_ZN2v88internal8compiler19InstructionSelector22VisitI16x8SubSaturateSEPNS1_4NodeE
Boostnote:_ZN2v88internal8compiler19InstructionSelector22VisitI16x8SubSaturateUEPNS1_4NodeE
Boostnote:_ZN2v88internal8compiler19InstructionSelector22VisitI8x16AddSaturateSEPNS1_4NodeE
Boostnote:_ZN2v88internal8compiler19InstructionSelector22VisitI8x16AddSaturateUEPNS1_4NodeE
Boostnote:_ZN2v88internal8compiler19InstructionSelector22VisitI8x16SubSaturateSEPNS1_4NodeE
Boostnote:_ZN2v88internal8compiler19InstructionSelector22VisitI8x16SubSaturateUEPNS1_4NodeE
Boostnote:_ZN2v88internal8compiler19InstructionSelector22VisitWord32AtomicStoreEPNS1_4NodeE
Boostnote:_ZN2v88internal8compiler19InstructionSelector22VisitWord32ReverseBitsEPNS1_4NodeE
Boostnote:_ZN2v88internal8compiler19InstructionSelector22VisitWord64AtomicStoreEPNS1_4NodeE
Boostnote:_ZN2v88internal8compiler19InstructionSelector22VisitWord64ReverseBitsEPNS1_4NodeE
Boostnote:_ZN2v88internal8compiler19InstructionSelector23GetFrameStateDescriptorEPNS1_4NodeE
Boostnote:_ZN2v88internal8compiler19InstructionSelector23VisitChangeInt32ToInt64EPNS1_4NodeE
Boostnote:_ZN2v88internal8compiler19InstructionSelector23VisitF32x4SConvertI32x4EPNS1_4NodeE
Boostnote:_ZN2v88internal8compiler19InstructionSelector23VisitF32x4UConvertI32x4EPNS1_4NodeE
Boostnote:_ZN2v88internal8compiler19InstructionSelector23VisitFloat64Ieee754UnopEPNS1_4NodeEi
Boostnote:_ZN2v88internal8compiler19InstructionSelector23VisitI16x8SConvertI32x4EPNS1_4NodeE
Boostnote:_ZN2v88internal8compiler19InstructionSelector23VisitI16x8UConvertI32x4EPNS1_4NodeE
Boostnote:_ZN2v88internal8compiler19InstructionSelector23VisitI32x4SConvertF32x4EPNS1_4NodeE
Boostnote:_ZN2v88internal8compiler19InstructionSelector23VisitI32x4UConvertF32x4EPNS1_4NodeE
Boostnote:_ZN2v88internal8compiler19InstructionSelector23VisitI8x16SConvertI16x8EPNS1_4NodeE
Boostnote:_ZN2v88internal8compiler19InstructionSelector23VisitI8x16UConvertI16x8EPNS1_4NodeE
Boostnote:_ZN2v88internal8compiler19InstructionSelector23VisitWord32ReverseBytesEPNS1_4NodeE
Boostnote:_ZN2v88internal8compiler19InstructionSelector23VisitWord64ReverseBytesEPNS1_4NodeE
Boostnote:_ZN2v88internal8compiler19InstructionSelector24VisitBitcastTaggedToWordEPNS1_4NodeE
Boostnote:_ZN2v88internal8compiler19InstructionSelector24VisitBitcastWordToTaggedEPNS1_4NodeE
Boostnote:_ZN2v88internal8compiler19InstructionSelector24VisitFloat64Ieee754BinopEPNS1_4NodeEi
Boostnote:_ZN2v88internal8compiler19InstructionSelector24VisitRoundFloat64ToInt32EPNS1_4NodeE
Boostnote:_ZN2v88internal8compiler19InstructionSelector24VisitRoundInt32ToFloat32EPNS1_4NodeE
Boostnote:_ZN2v88internal8compiler19InstructionSelector24VisitRoundInt64ToFloat32EPNS1_4NodeE
Boostnote:_ZN2v88internal8compiler19InstructionSelector24VisitRoundInt64ToFloat64EPNS1_4NodeE
Boostnote:_ZN2v88internal8compiler19InstructionSelector25AppendDeoptimizeArgumentsEPNS0_10ZoneVectorINS1_18InstructionOperandEEENS0_14DeoptimizeKindENS0_16DeoptimizeReasonERKNS0_14VectorSlotPairEPNS1_4NodeE
Boostnote:_ZN2v88internal8compiler19InstructionSelector25VisitChangeFloat64ToInt32EPNS1_4NodeE
Boostnote:_ZN2v88internal8compiler19InstructionSelector25VisitChangeInt32ToFloat64EPNS1_4NodeE
Boostnote:_ZN2v88internal8compiler19InstructionSelector25VisitChangeUint32ToUint64EPNS1_4NodeE
Boostnote:_ZN2v88internal8compiler19InstructionSelector25VisitF32x4RecipSqrtApproxEPNS1_4NodeE
Boostnote:_ZN2v88internal8compiler19InstructionSelector25VisitFloat32RoundTiesEvenEPNS1_4NodeE
Boostnote:_ZN2v88internal8compiler19InstructionSelector25VisitFloat32RoundTruncateEPNS1_4NodeE
Boostnote:_ZN2v88internal8compiler19InstructionSelector25VisitFloat64RoundTiesAwayEPNS1_4NodeE
Boostnote:_ZN2v88internal8compiler19InstructionSelector25VisitFloat64RoundTiesEvenEPNS1_4NodeE
Boostnote:_ZN2v88internal8compiler19InstructionSelector25VisitFloat64RoundTruncateEPNS1_4NodeE
Boostnote:_ZN2v88internal8compiler19InstructionSelector25VisitInt32AbsWithOverflowEPNS1_4NodeE
Boostnote:_ZN2v88internal8compiler19InstructionSelector25VisitInt32AddWithOverflowEPNS1_4NodeE
Boostnote:_ZN2v88internal8compiler19InstructionSelector25VisitInt32LessThanOrEqualEPNS1_4NodeE
Boostnote:_ZN2v88internal8compiler19InstructionSelector25VisitInt32MulWithOverflowEPNS1_4NodeE
Boostnote:_ZN2v88internal8compiler19InstructionSelector25VisitInt32SubWithOverflowEPNS1_4NodeE
Boostnote:_ZN2v88internal8compiler19InstructionSelector25VisitInt64AbsWithOverflowEPNS1_4NodeE
Boostnote:_ZN2v88internal8compiler19InstructionSelector25VisitInt64AddWithOverflowEPNS1_4NodeE
Boostnote:_ZN2v88internal8compiler19InstructionSelector25VisitInt64LessThanOrEqualEPNS1_4NodeE
Boostnote:_ZN2v88internal8compiler19InstructionSelector25VisitInt64SubWithOverflowEPNS1_4NodeE
Boostnote:_ZN2v88internal8compiler19InstructionSelector25VisitRoundUint32ToFloat32EPNS1_4NodeE
Boostnote:_ZN2v88internal8compiler19InstructionSelector25VisitRoundUint64ToFloat32EPNS1_4NodeE
Boostnote:_ZN2v88internal8compiler19InstructionSelector25VisitRoundUint64ToFloat64EPNS1_4NodeE
Boostnote:_ZN2v88internal8compiler19InstructionSelector25VisitTruncateInt64ToInt32EPNS1_4NodeE
Boostnote:_ZN2v88internal8compiler19InstructionSelector25VisitWord32AtomicExchangeEPNS1_4NodeE
Boostnote:_ZN2v88internal8compiler19InstructionSelector25VisitWord64AtomicExchangeEPNS1_4NodeE
Boostnote:_ZN2v88internal8compiler19InstructionSelector26IsTailCallAddressImmediateEv
Boostnote:_ZN2v88internal8compiler19InstructionSelector26VisitBitcastFloat32ToInt32EPNS1_4NodeE
Boostnote:_ZN2v88internal8compiler19InstructionSelector26VisitBitcastFloat64ToInt64EPNS1_4NodeE
Boostnote:_ZN2v88internal8compiler19InstructionSelector26VisitBitcastInt32ToFloat32EPNS1_4NodeE
Boostnote:_ZN2v88internal8compiler19InstructionSelector26VisitBitcastInt64ToFloat64EPNS1_4NodeE
Boostnote:_ZN2v88internal8compiler19InstructionSelector26VisitChangeFloat64ToUint32EPNS1_4NodeE
Boostnote:_ZN2v88internal8compiler19InstructionSelector26VisitChangeFloat64ToUint64EPNS1_4NodeE
Boostnote:_ZN2v88internal8compiler19InstructionSelector26VisitChangeUint32ToFloat64EPNS1_4NodeE
Boostnote:_ZN2v88internal8compiler19InstructionSelector26VisitI16x8SConvertI8x16LowEPNS1_4NodeE
Boostnote:_ZN2v88internal8compiler19InstructionSelector26VisitI16x8UConvertI8x16LowEPNS1_4NodeE
Boostnote:_ZN2v88internal8compiler19InstructionSelector26VisitI32x4SConvertI16x8LowEPNS1_4NodeE
Boostnote:_ZN2v88internal8compiler19InstructionSelector26VisitI32x4UConvertI16x8LowEPNS1_4NodeE
Boostnote:_ZN2v88internal8compiler19InstructionSelector26VisitUint32LessThanOrEqualEPNS1_4NodeE
Boostnote:_ZN2v88internal8compiler19InstructionSelector26VisitUint64LessThanOrEqualEPNS1_4NodeE
Boostnote:_ZN2v88internal8compiler19InstructionSelector27EmitWordPoisonOnSpeculationEPNS1_4NodeE
Boostnote:_ZN2v88internal8compiler19InstructionSelector27MarkPairProjectionsAsWord32EPNS1_4NodeE
Boostnote:_ZN2v88internal8compiler19InstructionSelector27VisitChangeFloat32ToFloat64EPNS1_4NodeE
Boostnote:_ZN2v88internal8compiler19InstructionSelector27VisitFloat32LessThanOrEqualEPNS1_4NodeE
Boostnote:_ZN2v88internal8compiler19InstructionSelector27VisitFloat64InsertLowWord32EPNS1_4NodeE
Boostnote:_ZN2v88internal8compiler19InstructionSelector27VisitFloat64LessThanOrEqualEPNS1_4NodeE
Boostnote:_ZN2v88internal8compiler19InstructionSelector27VisitI16x8SConvertI8x16HighEPNS1_4NodeE
Boostnote:_ZN2v88internal8compiler19InstructionSelector27VisitI16x8UConvertI8x16HighEPNS1_4NodeE
Boostnote:_ZN2v88internal8compiler19InstructionSelector27VisitI32x4SConvertI16x8HighEPNS1_4NodeE
Boostnote:_ZN2v88internal8compiler19InstructionSelector27VisitI32x4UConvertI16x8HighEPNS1_4NodeE
Boostnote:_ZN2v88internal8compiler19InstructionSelector27VisitLoadParentFramePointerEPNS1_4NodeE
Boostnote:_ZN2v88internal8compiler19InstructionSelector27VisitSignExtendWord8ToInt32EPNS1_4NodeE
Boostnote:_ZN2v88internal8compiler19InstructionSelector27VisitSignExtendWord8ToInt64EPNS1_4NodeE
Boostnote:_ZN2v88internal8compiler19InstructionSelector27VisitTruncateFloat32ToInt32EPNS1_4NodeE
Boostnote:_ZN2v88internal8compiler19InstructionSelector28VisitFloat64ExtractLowWord32EPNS1_4NodeE
Boostnote:_ZN2v88internal8compiler19InstructionSelector28VisitFloat64InsertHighWord32EPNS1_4NodeE
Boostnote:_ZN2v88internal8compiler19InstructionSelector28VisitSignExtendWord16ToInt32EPNS1_4NodeE
Boostnote:_ZN2v88internal8compiler19InstructionSelector28VisitSignExtendWord16ToInt64EPNS1_4NodeE
Boostnote:_ZN2v88internal8compiler19InstructionSelector28VisitSignExtendWord32ToInt64EPNS1_4NodeE
Boostnote:_ZN2v88internal8compiler19InstructionSelector28VisitTruncateFloat32ToUint32EPNS1_4NodeE
Boostnote:_ZN2v88internal8compiler19InstructionSelector28VisitTruncateFloat64ToUint32EPNS1_4NodeE
Boostnote:_ZN2v88internal8compiler19InstructionSelector28VisitTruncateFloat64ToWord32EPNS1_4NodeE
Boostnote:_ZN2v88internal8compiler19InstructionSelector29SupportedMachineOperatorFlagsEv
Boostnote:_ZN2v88internal8compiler19InstructionSelector29VisitFloat64ExtractHighWord32EPNS1_4NodeE
Boostnote:_ZN2v88internal8compiler19InstructionSelector29VisitTruncateFloat64ToFloat32EPNS1_4NodeE
Boostnote:_ZN2v88internal8compiler19InstructionSelector30VisitTaggedPoisonOnSpeculationEPNS1_4NodeE
Boostnote:_ZN2v88internal8compiler19InstructionSelector30VisitTryTruncateFloat32ToInt64EPNS1_4NodeE
Boostnote:_ZN2v88internal8compiler19InstructionSelector30VisitTryTruncateFloat64ToInt64EPNS1_4NodeE
Boostnote:_ZN2v88internal8compiler19InstructionSelector30VisitWord32PoisonOnSpeculationEPNS1_4NodeE
Boostnote:_ZN2v88internal8compiler19InstructionSelector30VisitWord64PoisonOnSpeculationEPNS1_4NodeE
Boostnote:_ZN2v88internal8compiler19InstructionSelector31AddInputsToFrameStateDescriptorEPNS1_20FrameStateDescriptorEPNS1_4NodeEPNS1_16OperandGeneratorEPNS1_23StateObjectDeduplicatorEPNS0_10ZoneVectorINS1_18InstructionOperandEEENS1_19FrameStateInputKindEPNS0_4ZoneE
Boostnote:_ZN2v88internal8compiler19InstructionSelector31VisitTryTruncateFloat32ToUint64EPNS1_4NodeE
Boostnote:_ZN2v88internal8compiler19InstructionSelector31VisitTryTruncateFloat64ToUint64EPNS1_4NodeE
Boostnote:_ZN2v88internal8compiler19InstructionSelector32AddOperandToStateValueDescriptorEPNS1_14StateValueListEPNS0_10ZoneVectorINS1_18InstructionOperandEEEPNS1_16OperandGeneratorEPNS1_23StateObjectDeduplicatorEPNS1_4NodeENS0_11MachineTypeENS1_19FrameStateInputKindEPNS0_4ZoneE
Boostnote:_ZN2v88internal8compiler19InstructionSelector32VisitWord32AtomicBinaryOperationEPNS1_4NodeENS1_10ArchOpcodeES5_S5_S5_S5_
Boostnote:_ZN2v88internal8compiler19InstructionSelector32VisitWord32AtomicCompareExchangeEPNS1_4NodeE
Boostnote:_ZN2v88internal8compiler19InstructionSelector32VisitWord64AtomicBinaryOperationEPNS1_4NodeENS1_10ArchOpcodeES5_S5_S5_
Boostnote:_ZN2v88internal8compiler19InstructionSelector32VisitWord64AtomicCompareExchangeEPNS1_4NodeE
Boostnote:_ZN2v88internal8compiler19InstructionSelector33VisitCallWithCallerSavedRegistersEPNS1_4NodeEPNS1_10BasicBlockE
Boostnote:_ZN2v88internal8compiler19InstructionSelector38GetTempsCountForTailCallFromJSFunctionEv
Boostnote:_ZN2v88internal8compiler19InstructionSelector4EmitEPNS1_11InstructionE
Boostnote:_ZN2v88internal8compiler19InstructionSelector4EmitEiNS1_18InstructionOperandES3_S3_S3_S3_S3_S3_mPS3_
Boostnote:_ZN2v88internal8compiler19InstructionSelector4EmitEiNS1_18InstructionOperandES3_S3_S3_S3_S3_mPS3_
Boostnote:_ZN2v88internal8compiler19InstructionSelector4EmitEiNS1_18InstructionOperandES3_S3_S3_S3_mPS3_
Boostnote:_ZN2v88internal8compiler19InstructionSelector4EmitEiNS1_18InstructionOperandES3_S3_S3_mPS3_
Boostnote:_ZN2v88internal8compiler19InstructionSelector4EmitEiNS1_18InstructionOperandES3_S3_mPS3_
Boostnote:_ZN2v88internal8compiler19InstructionSelector4EmitEiNS1_18InstructionOperandES3_mPS3_
Boostnote:_ZN2v88internal8compiler19InstructionSelector4EmitEiNS1_18InstructionOperandEmPS3_
Boostnote:_ZN2v88internal8compiler19InstructionSelector4EmitEimPNS1_18InstructionOperandEmS4_mS4_
Boostnote:_ZN2v88internal8compiler19InstructionSelector8EndBlockENS1_9RpoNumberE
Boostnote:_ZN2v88internal8compiler19InstructionSelector8VisitPhiEPNS1_4NodeE
Boostnote:_ZN2v88internal8compiler19InstructionSelector9GetRenameEi
Boostnote:_ZN2v88internal8compiler19InstructionSelector9SetRenameEPKNS1_4NodeES5_
Boostnote:_ZN2v88internal8compiler19InstructionSelector9TryRenameEPNS1_18InstructionOperandE
Boostnote:_ZN2v88internal8compiler19InstructionSelector9VisitCallEPNS1_4NodeEPNS1_10BasicBlockE
Boostnote:_ZN2v88internal8compiler19InstructionSelector9VisitGotoEPNS1_10BasicBlockE
Boostnote:_ZN2v88internal8compiler19InstructionSelector9VisitLoadEPNS1_4NodeE
Boostnote:_ZN2v88internal8compiler19InstructionSelector9VisitNodeEPNS1_4NodeE
Boostnote:_ZN2v88internal8compiler19InstructionSelectorC1EPNS0_4ZoneEmPNS1_7LinkageEPNS1_19InstructionSequenceEPNS1_8ScheduleEPNS1_19SourcePositionTableEPNS1_5FrameENS2_21EnableSwitchJumpTableENS2_18SourcePositionModeENS2_8FeaturesENS2_16EnableSchedulingENS2_29EnableRootsRelativeAddressingENS0_24PoisoningMitigationLevelENS2_20EnableTraceTurboJsonE
Boostnote:_ZN2v88internal8compiler19InstructionSelectorC2EPNS0_4ZoneEmPNS1_7LinkageEPNS1_19InstructionSequenceEPNS1_8ScheduleEPNS1_19SourcePositionTableEPNS1_5FrameENS2_21EnableSwitchJumpTableENS2_18SourcePositionModeENS2_8FeaturesENS2_16EnableSchedulingENS2_29EnableRootsRelativeAddressingENS0_24PoisoningMitigationLevelENS2_20EnableTraceTurboJsonE
Boostnote:_ZN2v88internal8compiler19InstructionSequence10StartBlockENS1_9RpoNumberE
Boostnote:_ZN2v88internal8compiler19InstructionSequence14AddInstructionEPNS1_11InstructionE
Boostnote:_ZN2v88internal8compiler19InstructionSequence17SetSourcePositionEPKNS1_11InstructionENS0_14SourcePositionE
Boostnote:_ZN2v88internal8compiler19InstructionSequence19NextVirtualRegisterEv
Boostnote:_ZN2v88internal8compiler19InstructionSequence20ComputeAssemblyOrderEPNS0_10ZoneVectorIPNS1_16InstructionBlockEEE
Boostnote:_ZN2v88internal8compiler19InstructionSequence20InstructionBlocksForEPNS0_4ZoneEPKNS1_8ScheduleE
Boostnote:_ZN2v88internal8compiler19InstructionSequence20MarkAsRepresentationENS0_21MachineRepresentationEi
Boostnote:_ZN2v88internal8compiler19InstructionSequence22AddDeoptimizationEntryEPNS1_20FrameStateDescriptorENS0_14DeoptimizeKindENS0_16DeoptimizeReasonERKNS0_14VectorSlotPairE
Boostnote:_ZN2v88internal8compiler19InstructionSequence22GetDeoptimizationEntryEi
Boostnote:_ZN2v88internal8compiler19InstructionSequence31RegisterConfigurationForTestingEv
Boostnote:_ZN2v88internal8compiler19InstructionSequence32registerConfigurationForTesting_E
Boostnote:_ZN2v88internal8compiler19InstructionSequence34SetRegisterConfigurationForTestingEPKNS0_21RegisterConfigurationE
Boostnote:_ZN2v88internal8compiler19InstructionSequence8EndBlockENS1_9RpoNumberE
Boostnote:_ZN2v88internal8compiler19InstructionSequence8InputRpoEPNS1_11InstructionEm
Boostnote:_ZN2v88internal8compiler19InstructionSequenceC1EPNS0_7IsolateEPNS0_4ZoneEPNS0_10ZoneVectorIPNS1_16InstructionBlockEEE
Boostnote:_ZN2v88internal8compiler19InstructionSequenceC2EPNS0_7IsolateEPNS0_4ZoneEPNS0_10ZoneVectorIPNS1_16InstructionBlockEEE
Boostnote:_ZN2v88internal8compiler19JSIntrinsicLowering10ReduceCallEPNS1_4NodeE
Boostnote:_ZN2v88internal8compiler19JSIntrinsicLowering11ReduceIsSmiEPNS1_4NodeE
Boostnote:_ZN2v88internal8compiler19JSIntrinsicLowering12ReduceMaxSmiEPNS1_4NodeE
Boostnote:_ZN2v88internal8compiler19JSIntrinsicLowering13ReduceTheHoleEPNS1_4NodeE
Boostnote:_ZN2v88internal8compiler19JSIntrinsicLowering14ReduceToLengthEPNS1_4NodeE
Boostnote:_ZN2v88internal8compiler19JSIntrinsicLowering14ReduceToNumberEPNS1_4NodeE
Boostnote:_ZN2v88internal8compiler19JSIntrinsicLowering14ReduceToObjectEPNS1_4NodeE
Boostnote:_ZN2v88internal8compiler19JSIntrinsicLowering14ReduceToStringEPNS1_4NodeE
Boostnote:_ZN2v88internal8compiler19JSIntrinsicLowering15ReduceToIntegerEPNS1_4NodeE
Boostnote:_ZN2v88internal8compiler19JSIntrinsicLowering18ReduceIsJSReceiverEPNS1_4NodeE
Boostnote:_ZN2v88internal8compiler19JSIntrinsicLowering19ReduceDebugIsActiveEPNS1_4NodeE
Boostnote:_ZN2v88internal8compiler19JSIntrinsicLowering19ReduceDeoptimizeNowEPNS1_4NodeE
Boostnote:_ZN2v88internal8compiler19JSIntrinsicLowering19ReduceRejectPromiseEPNS1_4NodeE
Boostnote:_ZN2v88internal8compiler19JSIntrinsicLowering20ReduceGeneratorCloseEPNS1_4NodeE
Boostnote:_ZN2v88internal8compiler19JSIntrinsicLowering20ReduceIsInstanceTypeEPNS1_4NodeENS0_12InstanceTypeE
Boostnote:_ZN2v88internal8compiler19JSIntrinsicLowering20ReduceResolvePromiseEPNS1_4NodeE
Boostnote:_ZN2v88internal8compiler19JSIntrinsicLowering21ReduceStringMaxLengthEPNS1_4NodeE
Boostnote:_ZN2v88internal8compiler19JSIntrinsicLowering25ReduceAsyncGeneratorYieldEPNS1_4NodeE
Boostnote:_ZN2v88internal8compiler19JSIntrinsicLowering25ReduceGetSuperConstructorEPNS1_4NodeE
Boostnote:_ZN2v88internal8compiler19JSIntrinsicLowering26ReduceArrayBufferViewFieldEPNS1_4NodeERKNS1_11FieldAccessE
Boostnote:_ZN2v88internal8compiler19JSIntrinsicLowering26ReduceAsyncGeneratorRejectEPNS1_4NodeE
Boostnote:_ZN2v88internal8compiler19JSIntrinsicLowering27ReduceAsyncGeneratorResolveEPNS1_4NodeE
Boostnote:_ZN2v88internal8compiler19JSIntrinsicLowering28ReduceCreateIterResultObjectEPNS1_4NodeE
Boostnote:_ZN2v88internal8compiler19JSIntrinsicLowering28ReduceGeneratorGetResumeModeEPNS1_4NodeE
Boostnote:_ZN2v88internal8compiler19JSIntrinsicLowering29ReduceCreateJSGeneratorObjectEPNS1_4NodeE
Boostnote:_ZN2v88internal8compiler19JSIntrinsicLowering32ReduceArrayBufferViewWasNeuteredEPNS1_4NodeE
Boostnote:_ZN2v88internal8compiler19JSIntrinsicLowering33ReduceGeneratorGetInputOrDebugPosEPNS1_4NodeE
Boostnote:_ZN2v88internal8compiler19JSIntrinsicLowering6ChangeEPNS1_4NodeEPKNS1_8OperatorE
Boostnote:_ZN2v88internal8compiler19JSIntrinsicLowering6ChangeEPNS1_4NodeEPKNS1_8OperatorES4_S4_
Boostnote:_ZN2v88internal8compiler19JSIntrinsicLowering6ChangeEPNS1_4NodeEPKNS1_8OperatorES4_S4_S4_
Boostnote:_ZN2v88internal8compiler19JSIntrinsicLowering6ChangeEPNS1_4NodeEPKNS1_8OperatorES4_S4_S4_S4_
Boostnote:_ZN2v88internal8compiler19JSIntrinsicLowering6ChangeEPNS1_4NodeERKNS0_8CallableEi
Boostnote:_ZN2v88internal8compiler19JSIntrinsicLowering6ReduceEPNS1_4NodeE
Boostnote:_ZN2v88internal8compiler19JSIntrinsicLoweringC1EPNS1_15AdvancedReducer6EditorEPNS1_7JSGraphE
Boostnote:_ZN2v88internal8compiler19JSIntrinsicLoweringC2EPNS1_15AdvancedReducer6EditorEPNS1_7JSGraphE
Boostnote:_ZN2v88internal8compiler19PhiRepresentationOfEPKNS1_8OperatorE
Boostnote:_ZN2v88internal8compiler19RawMachineAssembler10DebugAbortEPNS1_4NodeE
Boostnote:_ZN2v88internal8compiler19RawMachineAssembler10DebugBreakEv
Boostnote:_ZN2v88internal8compiler19RawMachineAssembler11EnsureBlockEPNS1_15RawMachineLabelE
Boostnote:_ZN2v88internal8compiler19RawMachineAssembler11UnreachableEv
Boostnote:_ZN2v88internal8compiler19RawMachineAssembler12CurrentBlockEv
Boostnote:_ZN2v88internal8compiler19RawMachineAssembler12NullConstantEv
Boostnote:_ZN2v88internal8compiler19RawMachineAssembler12PopAndReturnEPNS1_4NodeES4_
Boostnote:_ZN2v88internal8compiler19RawMachineAssembler12PopAndReturnEPNS1_4NodeES4_S4_
Boostnote:_ZN2v88internal8compiler19RawMachineAssembler12PopAndReturnEPNS1_4NodeES4_S4_S4_
Boostnote:_ZN2v88internal8compiler19RawMachineAssembler12PopAndReturnEPNS1_4NodeES4_S4_S4_S4_
Boostnote:_ZN2v88internal8compiler19RawMachineAssembler13ContinuationsEPNS1_4NodeEPNS1_15RawMachineLabelES6_
Boostnote:_ZN2v88internal8compiler19RawMachineAssembler14AppendPhiInputEPNS1_4NodeES4_
Boostnote:_ZN2v88internal8compiler19RawMachineAssembler14CallCFunction0ENS0_11MachineTypeEPNS1_4NodeE
Boostnote:_ZN2v88internal8compiler19RawMachineAssembler14CallCFunction1ENS0_11MachineTypeES3_PNS1_4NodeES5_
Boostnote:_ZN2v88internal8compiler19RawMachineAssembler14CallCFunction2ENS0_11MachineTypeES3_S3_PNS1_4NodeES5_S5_
Boostnote:_ZN2v88internal8compiler19RawMachineAssembler14CallCFunction3ENS0_11MachineTypeES3_S3_S3_PNS1_4NodeES5_S5_S5_
Boostnote:_ZN2v88internal8compiler19RawMachineAssembler14CallCFunction4ENS0_11MachineTypeES3_S3_S3_S3_PNS1_4NodeES5_S5_S5_S5_
Boostnote:_ZN2v88internal8compiler19RawMachineAssembler14CallCFunction5ENS0_11MachineTypeES3_S3_S3_S3_S3_PNS1_4NodeES5_S5_S5_S5_S5_
Boostnote:_ZN2v88internal8compiler19RawMachineAssembler14CallCFunction6ENS0_11MachineTypeES3_S3_S3_S3_S3_S3_PNS1_4NodeES5_S5_S5_S5_S5_S5_
Boostnote:_ZN2v88internal8compiler19RawMachineAssembler14CallCFunction8ENS0_11MachineTypeES3_S3_S3_S3_S3_S3_S3_S3_PNS1_4NodeES5_S5_S5_S5_S5_S5_S5_S5_
Boostnote:_ZN2v88internal8compiler19RawMachineAssembler14CallCFunction9ENS0_11MachineTypeES3_S3_S3_S3_S3_S3_S3_S3_S3_PNS1_4NodeES5_S5_S5_S5_S5_S5_S5_S5_S5_
Boostnote:_ZN2v88internal8compiler19RawMachineAssembler15TargetParameterEv
Boostnote:_ZN2v88internal8compiler19RawMachineAssembler17UndefinedConstantEv
Boostnote:_ZN2v88internal8compiler19RawMachineAssembler19CallNWithFrameStateEPNS1_14CallDescriptorEiPKPNS1_4NodeE
Boostnote:_ZN2v88internal8compiler19RawMachineAssembler25RelocatableIntPtrConstantElNS0_9RelocInfo4ModeE
Boostnote:_ZN2v88internal8compiler19RawMachineAssembler38CallCFunction1WithCallerSavedRegistersENS0_11MachineTypeES3_PNS1_4NodeES5_NS0_14SaveFPRegsModeE
Boostnote:_ZN2v88internal8compiler19RawMachineAssembler38CallCFunction3WithCallerSavedRegistersENS0_11MachineTypeES3_S3_S3_PNS1_4NodeES5_S5_S5_NS0_14SaveFPRegsModeE
Boostnote:_ZN2v88internal8compiler19RawMachineAssembler3PhiENS0_21MachineRepresentationEiPKPNS1_4NodeE
Boostnote:_ZN2v88internal8compiler19RawMachineAssembler3UseEPNS1_15RawMachineLabelE
Boostnote:_ZN2v88internal8compiler19RawMachineAssembler4BindEPNS1_15RawMachineLabelE
Boostnote:_ZN2v88internal8compiler19RawMachineAssembler4GotoEPNS1_15RawMachineLabelE
Boostnote:_ZN2v88internal8compiler19RawMachineAssembler5CallNEPNS1_14CallDescriptorEiPKPNS1_4NodeE
Boostnote:_ZN2v88internal8compiler19RawMachineAssembler6BranchEPNS1_4NodeEPNS1_15RawMachineLabelES6_
Boostnote:_ZN2v88internal8compiler19RawMachineAssembler6ExportEv
Boostnote:_ZN2v88internal8compiler19RawMachineAssembler6ReturnEPNS1_4NodeE
Boostnote:_ZN2v88internal8compiler19RawMachineAssembler6ReturnEPNS1_4NodeES4_
Boostnote:_ZN2v88internal8compiler19RawMachineAssembler6ReturnEPNS1_4NodeES4_S4_
Boostnote:_ZN2v88internal8compiler19RawMachineAssembler6ReturnEPNS1_4NodeES4_S4_S4_
Boostnote:_ZN2v88internal8compiler19RawMachineAssembler6ReturnEiPPNS1_4NodeE
Boostnote:_ZN2v88internal8compiler19RawMachineAssembler6SwitchEPNS1_4NodeEPNS1_15RawMachineLabelEPKiPS6_m
Boostnote:_ZN2v88internal8compiler19RawMachineAssembler7AddNodeEPKNS1_8OperatorEiPKPNS1_4NodeE
Boostnote:_ZN2v88internal8compiler19RawMachineAssembler7CommentEPKc
Boostnote:_ZN2v88internal8compiler19RawMachineAssembler8MakeNodeEPKNS1_8OperatorEiPKPNS1_4NodeE
Boostnote:_ZN2v88internal8compiler19RawMachineAssembler9ParameterEm
Boostnote:_ZN2v88internal8compiler19RawMachineAssembler9TailCallNEPNS1_14CallDescriptorEiPKPNS1_4NodeE
Boostnote:_ZN2v88internal8compiler19RawMachineAssemblerC1EPNS0_7IsolateEPNS1_5GraphEPNS1_14CallDescriptorENS0_21MachineRepresentationENS_4base5FlagsINS1_22MachineOperatorBuilder4FlagEjEENSC_21AlignmentRequirementsENS0_24PoisoningMitigationLevelE
Boostnote:_ZN2v88internal8compiler19RawMachineAssemblerC2EPNS0_7IsolateEPNS1_5GraphEPNS1_14CallDescriptorENS0_21MachineRepresentationENS_4base5FlagsINS1_22MachineOperatorBuilder4FlagEjEENSC_21AlignmentRequirementsENS0_24PoisoningMitigationLevelE
Boostnote:_ZN2v88internal8compiler19SourcePositionTable12AddDecoratorEv
Boostnote:_ZN2v88internal8compiler19SourcePositionTable15RemoveDecoratorEv
Boostnote:_ZN2v88internal8compiler19SourcePositionTable17SetSourcePositionEPNS1_4NodeENS0_14SourcePositionE
Boostnote:_ZN2v88internal8compiler19SourcePositionTableC1EPNS1_5GraphE
Boostnote:_ZN2v88internal8compiler19SourcePositionTableC2EPNS1_5GraphE
Boostnote:_ZN2v88internal8compiler20BranchOperatorInfoOfEPKNS1_8OperatorE
Boostnote:_ZN2v88internal8compiler20ControlFlowOptimizer11VisitBranchEPNS1_4NodeE
Boostnote:_ZN2v88internal8compiler20ControlFlowOptimizer14TryBuildSwitchEPNS1_4NodeE
Boostnote:_ZN2v88internal8compiler20ControlFlowOptimizer7EnqueueEPNS1_4NodeE
Boostnote:_ZN2v88internal8compiler20ControlFlowOptimizer8OptimizeEv
Boostnote:_ZN2v88internal8compiler20ControlFlowOptimizer9VisitNodeEPNS1_4NodeE
Boostnote:_ZN2v88internal8compiler20ControlFlowOptimizerC1EPNS1_5GraphEPNS1_21CommonOperatorBuilderEPNS1_22MachineOperatorBuilderEPNS0_4ZoneE
Boostnote:_ZN2v88internal8compiler20ControlFlowOptimizerC2EPNS1_5GraphEPNS1_21CommonOperatorBuilderEPNS1_22MachineOperatorBuilderEPNS0_4ZoneE
Boostnote:_ZN2v88internal8compiler20LoadRepresentationOfEPKNS1_8OperatorE
Boostnote:_ZN2v88internal8compiler20TypeNarrowingReducer6ReduceEPNS1_4NodeE
Boostnote:_ZN2v88internal8compiler20TypeNarrowingReducerC1EPNS1_15AdvancedReducer6EditorEPNS1_7JSGraphEPKNS1_12JSHeapBrokerE
Boostnote:_ZN2v88internal8compiler20TypeNarrowingReducerC2EPNS1_15AdvancedReducer6EditorEPNS1_7JSGraphEPKNS1_12JSHeapBrokerE
Boostnote:_ZN2v88internal8compiler20TypeNarrowingReducerD0Ev
Boostnote:_ZN2v88internal8compiler20TypeNarrowingReducerD1Ev
Boostnote:_ZN2v88internal8compiler20TypeNarrowingReducerD2Ev
Boostnote:_ZN2v88internal8compiler21CheckpointElimination16ReduceCheckpointEPNS1_4NodeE
Boostnote:_ZN2v88internal8compiler21CheckpointElimination6ReduceEPNS1_4NodeE
Boostnote:_ZN2v88internal8compiler21CheckpointEliminationC1EPNS1_15AdvancedReducer6EditorE
Boostnote:_ZN2v88internal8compiler21CheckpointEliminationC2EPNS1_15AdvancedReducer6EditorE
Boostnote:_ZN2v88internal8compiler21CommonOperatorBuilder10CheckpointEv
Boostnote:_ZN2v88internal8compiler21CommonOperatorBuilder10DeoptimizeENS0_14DeoptimizeKindENS0_16DeoptimizeReasonERKNS0_14VectorSlotPairE
Boostnote:_ZN2v88internal8compiler21CommonOperatorBuilder10FrameStateENS0_9BailoutIdENS1_23OutputFrameStateCombineEPKNS1_22FrameStateFunctionInfoE
Boostnote:_ZN2v88internal8compiler21CommonOperatorBuilder10ProjectionEm
Boostnote:_ZN2v88internal8compiler21CommonOperatorBuilder10TrapUnlessENS1_6TrapIdE
Boostnote:_ZN2v88internal8compiler21CommonOperatorBuilder11BeginRegionENS1_19RegionObservabilityE
Boostnote:_ZN2v88internal8compiler21CommonOperatorBuilder11IfExceptionEv
Boostnote:_ZN2v88internal8compiler21CommonOperatorBuilder11ObjectStateEji
Boostnote:_ZN2v88internal8compiler21CommonOperatorBuilder11StateValuesEiNS1_15SparseInputMaskE
Boostnote:_ZN2v88internal8compiler21CommonOperatorBuilder11UnreachableEv
Boostnote:_ZN2v88internal8compiler21CommonOperatorBuilder12DeoptimizeIfENS0_14DeoptimizeKindENS0_16DeoptimizeReasonERKNS0_14VectorSlotPairENS1_13IsSafetyCheckE
Boostnote:_ZN2v88internal8compiler21CommonOperatorBuilder12FinishRegionEv
Boostnote:_ZN2v88internal8compiler21CommonOperatorBuilder12HeapConstantERKNS0_6HandleINS0_10HeapObjectEEE
Boostnote:_ZN2v88internal8compiler21CommonOperatorBuilder12OsrLoopEntryEv
Boostnote:_ZN2v88internal8compiler21CommonOperatorBuilder13Int32ConstantEi
Boostnote:_ZN2v88internal8compiler21CommonOperatorBuilder13Int64ConstantEl
Boostnote:_ZN2v88internal8compiler21CommonOperatorBuilder13LoopExitValueEv
Boostnote:_ZN2v88internal8compiler21CommonOperatorBuilder14LoopExitEffectEv
Boostnote:_ZN2v88internal8compiler21CommonOperatorBuilder14NumberConstantEd
Boostnote:_ZN2v88internal8compiler21CommonOperatorBuilder14OsrNormalEntryEv
Boostnote:_ZN2v88internal8compiler21CommonOperatorBuilder15Float32ConstantEf
Boostnote:_ZN2v88internal8compiler21CommonOperatorBuilder15Float64ConstantEd
Boostnote:_ZN2v88internal8compiler21CommonOperatorBuilder15PointerConstantEl
Boostnote:_ZN2v88internal8compiler21CommonOperatorBuilder16DeoptimizeUnlessENS0_14DeoptimizeKindENS0_16DeoptimizeReasonERKNS0_14VectorSlotPairENS1_13IsSafetyCheckE
Boostnote:_ZN2v88internal8compiler21CommonOperatorBuilder16ExternalConstantERKNS0_17ExternalReferenceE
Boostnote:_ZN2v88internal8compiler21CommonOperatorBuilder16ResizeMergeOrPhiEPKNS1_8OperatorEi
Boostnote:_ZN2v88internal8compiler21CommonOperatorBuilder16TypedObjectStateEjPKNS0_10ZoneVectorINS0_11MachineTypeEEE
Boostnote:_ZN2v88internal8compiler21CommonOperatorBuilder16TypedStateValuesEPKNS0_10ZoneVectorINS0_11MachineTypeEEENS1_15SparseInputMaskE
Boostnote:_ZN2v88internal8compiler21CommonOperatorBuilder17MarkAsSafetyCheckEPKNS1_8OperatorENS1_13IsSafetyCheckE
Boostnote:_ZN2v88internal8compiler21CommonOperatorBuilder20ArgumentsLengthStateENS0_19CreateArgumentsTypeE
Boostnote:_ZN2v88internal8compiler21CommonOperatorBuilder20InductionVariablePhiEi
Boostnote:_ZN2v88internal8compiler21CommonOperatorBuilder22ArgumentsElementsStateENS0_19CreateArgumentsTypeE
Boostnote:_ZN2v88internal8compiler21CommonOperatorBuilder24RelocatableInt32ConstantEiNS0_9RelocInfo4ModeE
Boostnote:_ZN2v88internal8compiler21CommonOperatorBuilder24RelocatableInt64ConstantElNS0_9RelocInfo4ModeE
Boostnote:_ZN2v88internal8compiler21CommonOperatorBuilder28CallWithCallerSavedRegistersEPKNS1_14CallDescriptorE
Boostnote:_ZN2v88internal8compiler21CommonOperatorBuilder28CreateFrameStateFunctionInfoENS1_14FrameStateTypeEiiNS0_6HandleINS0_18SharedFunctionInfoEEE
Boostnote:_ZN2v88internal8compiler21CommonOperatorBuilder3EndEm
Boostnote:_ZN2v88internal8compiler21CommonOperatorBuilder3PhiENS0_21MachineRepresentationEi
Boostnote:_ZN2v88internal8compiler21CommonOperatorBuilder4CallEPKNS1_14CallDescriptorE
Boostnote:_ZN2v88internal8compiler21CommonOperatorBuilder4DeadEv
Boostnote:_ZN2v88internal8compiler21CommonOperatorBuilder4LoopEi
Boostnote:_ZN2v88internal8compiler21CommonOperatorBuilder5MergeEi
Boostnote:_ZN2v88internal8compiler21CommonOperatorBuilder5StartEi
Boostnote:_ZN2v88internal8compiler21CommonOperatorBuilder5ThrowEv
Boostnote:_ZN2v88internal8compiler21CommonOperatorBuilder6BranchENS1_10BranchHintENS1_13IsSafetyCheckE
Boostnote:_ZN2v88internal8compiler21CommonOperatorBuilder6IfTrueEv
Boostnote:_ZN2v88internal8compiler21CommonOperatorBuilder6RetainEv
Boostnote:_ZN2v88internal8compiler21CommonOperatorBuilder6ReturnEi
Boostnote:_ZN2v88internal8compiler21CommonOperatorBuilder6SelectENS0_21MachineRepresentationENS1_10BranchHintE
Boostnote:_ZN2v88internal8compiler21CommonOperatorBuilder6SwitchEm
Boostnote:_ZN2v88internal8compiler21CommonOperatorBuilder6TrapIfENS1_6TrapIdE
Boostnote:_ZN2v88internal8compiler21CommonOperatorBuilder7IfFalseEv
Boostnote:_ZN2v88internal8compiler21CommonOperatorBuilder7IfValueEii
Boostnote:_ZN2v88internal8compiler21CommonOperatorBuilder8LoopExitEv
Boostnote:_ZN2v88internal8compiler21CommonOperatorBuilder8ObjectIdEj
Boostnote:_ZN2v88internal8compiler21CommonOperatorBuilder8OsrValueEi
Boostnote:_ZN2v88internal8compiler21CommonOperatorBuilder8TailCallEPKNS1_14CallDescriptorE
Boostnote:_ZN2v88internal8compiler21CommonOperatorBuilder9DeadValueENS0_21MachineRepresentationE
Boostnote:_ZN2v88internal8compiler21CommonOperatorBuilder9EffectPhiEi
Boostnote:_ZN2v88internal8compiler21CommonOperatorBuilder9IfDefaultEv
Boostnote:_ZN2v88internal8compiler21CommonOperatorBuilder9IfSuccessEv
Boostnote:_ZN2v88internal8compiler21CommonOperatorBuilder9ParameterEiPKc
Boostnote:_ZN2v88internal8compiler21CommonOperatorBuilder9TerminateEv
Boostnote:_ZN2v88internal8compiler21CommonOperatorBuilder9TypeGuardENS1_4TypeE
Boostnote:_ZN2v88internal8compiler21CommonOperatorBuilderC1EPNS0_4ZoneE
Boostnote:_ZN2v88internal8compiler21CommonOperatorBuilderC2EPNS0_4ZoneE
Boostnote:_ZN2v88internal8compiler21CommonOperatorReducer11ReduceMergeEPNS1_4NodeE
Boostnote:_ZN2v88internal8compiler21CommonOperatorReducer12ReduceBranchEPNS1_4NodeE
Boostnote:_ZN2v88internal8compiler21CommonOperatorReducer12ReduceReturnEPNS1_4NodeE
Boostnote:_ZN2v88internal8compiler21CommonOperatorReducer12ReduceSelectEPNS1_4NodeE
Boostnote:_ZN2v88internal8compiler21CommonOperatorReducer12ReduceSwitchEPNS1_4NodeE
Boostnote:_ZN2v88internal8compiler21CommonOperatorReducer15ReduceEffectPhiEPNS1_4NodeE
Boostnote:_ZN2v88internal8compiler21CommonOperatorReducer27ReduceDeoptimizeConditionalEPNS1_4NodeE
Boostnote:_ZN2v88internal8compiler21CommonOperatorReducer6ChangeEPNS1_4NodeEPKNS1_8OperatorES4_
Boostnote:_ZN2v88internal8compiler21CommonOperatorReducer6ChangeEPNS1_4NodeEPKNS1_8OperatorES4_S4_
Boostnote:_ZN2v88internal8compiler21CommonOperatorReducer6ReduceEPNS1_4NodeE
Boostnote:_ZN2v88internal8compiler21CommonOperatorReducer9ReducePhiEPNS1_4NodeE
Boostnote:_ZN2v88internal8compiler21CommonOperatorReducerC1EPNS1_15AdvancedReducer6EditorEPNS1_5GraphEPKNS1_12JSHeapBrokerEPNS1_21CommonOperatorBuilderEPNS1_22MachineOperatorBuilderEPNS0_4ZoneE
Boostnote:_ZN2v88internal8compiler21CommonOperatorReducerC2EPNS1_15AdvancedReducer6EditorEPNS1_5GraphEPKNS1_12JSHeapBrokerEPNS1_21CommonOperatorBuilderEPNS1_22MachineOperatorBuilderEPNS0_4ZoneE
Boostnote:_ZN2v88internal8compiler21EscapeAnalysisReducer11ReplaceNodeEPNS1_4NodeES4_
Boostnote:_ZN2v88internal8compiler21EscapeAnalysisReducer12ObjectIdNodeEPKNS1_13VirtualObjectE
Boostnote:_ZN2v88internal8compiler21EscapeAnalysisReducer16ReduceDeoptStateEPNS1_4NodeES4_PNS1_12DeduplicatorE
Boostnote:_ZN2v88internal8compiler21EscapeAnalysisReducer22ReduceFrameStateInputsEPNS1_4NodeE
Boostnote:_ZN2v88internal8compiler21EscapeAnalysisReducer6ReduceEPNS1_4NodeE
Boostnote:_ZN2v88internal8compiler21EscapeAnalysisReducer8FinalizeEv
Boostnote:_ZN2v88internal8compiler21EscapeAnalysisReducerC1EPNS1_15AdvancedReducer6EditorEPNS1_7JSGraphENS1_20EscapeAnalysisResultEPNS0_4ZoneE
Boostnote:_ZN2v88internal8compiler21EscapeAnalysisReducerC2EPNS1_15AdvancedReducer6EditorEPNS1_7JSGraphENS1_20EscapeAnalysisResultEPNS0_4ZoneE
Boostnote:_ZN2v88internal8compiler21GetWasmCallDescriptorEPNS0_4ZoneEPNS0_9SignatureINS0_4wasm9ValueTypeEEENS1_16WasmGraphBuilder12UseRetpolineE
Boostnote:_ZN2v88internal8compiler21NumberOperationHintOfEPKNS1_8OperatorE
Boostnote:_ZN2v88internal8compiler21StoreRepresentationOfEPKNS1_8OperatorE
Boostnote:_ZN2v88internal8compiler21ValueNumberingReducer19ReplaceIfTypesMatchEPNS1_4NodeES4_
Boostnote:_ZN2v88internal8compiler21ValueNumberingReducer4GrowEv
Boostnote:_ZN2v88internal8compiler21ValueNumberingReducer6ReduceEPNS1_4NodeE
Boostnote:_ZN2v88internal8compiler21ValueNumberingReducerC1EPNS0_4ZoneES4_
Boostnote:_ZN2v88internal8compiler21ValueNumberingReducerC2EPNS0_4ZoneES4_
Boostnote:_ZN2v88internal8compiler21ValueNumberingReducerD0Ev
Boostnote:_ZN2v88internal8compiler21ValueNumberingReducerD1Ev
Boostnote:_ZN2v88internal8compiler21ValueNumberingReducerD2Ev
Boostnote:_ZN2v88internal8compiler22CompileJSToWasmWrapperEPNS0_7IsolateEPKNS0_4wasm12NativeModuleEPNS0_9SignatureINS4_9ValueTypeEEEbNS4_14UseTrapHandlerE
Boostnote:_ZN2v88internal8compiler22ConstantFoldingReducer6ReduceEPNS1_4NodeE
Boostnote:_ZN2v88internal8compiler22ConstantFoldingReducerC1EPNS1_15AdvancedReducer6EditorEPNS1_7JSGraphEPKNS1_12JSHeapBrokerE
Boostnote:_ZN2v88internal8compiler22ConstantFoldingReducerC2EPNS1_15AdvancedReducer6EditorEPNS1_7JSGraphEPKNS1_12JSHeapBrokerE
Boostnote:_ZN2v88internal8compiler22ConstantFoldingReducerD0Ev
Boostnote:_ZN2v88internal8compiler22ConstantFoldingReducerD1Ev
Boostnote:_ZN2v88internal8compiler22ConstantFoldingReducerD2Ev
Boostnote:_ZN2v88internal8compiler22MachineOperatorBuilder10DebugAbortEv
Boostnote:_ZN2v88internal8compiler22MachineOperatorBuilder10DebugBreakEv
Boostnote:_ZN2v88internal8compiler22MachineOperatorBuilder10F32x4SplatEv
Boostnote:_ZN2v88internal8compiler22MachineOperatorBuilder10Float32AbsEv
Boostnote:_ZN2v88internal8compiler22MachineOperatorBuilder10Float32AddEv
Boostnote:_ZN2v88internal8compiler22MachineOperatorBuilder10Float32DivEv
Boostnote:_ZN2v88internal8compiler22MachineOperatorBuilder10Float32MaxEv
Boostnote:_ZN2v88internal8compiler22MachineOperatorBuilder10Float32MinEv
Boostnote:_ZN2v88internal8compiler22MachineOperatorBuilder10Float32MulEv
Boostnote:_ZN2v88internal8compiler22MachineOperatorBuilder10Float32NegEv
Boostnote:_ZN2v88internal8compiler22MachineOperatorBuilder10Float32SubEv
Boostnote:_ZN2v88internal8compiler22MachineOperatorBuilder10Float64AbsEv
Boostnote:_ZN2v88internal8compiler22MachineOperatorBuilder10Float64AddEv
Boostnote:_ZN2v88internal8compiler22MachineOperatorBuilder10Float64CosEv
Boostnote:_ZN2v88internal8compiler22MachineOperatorBuilder10Float64DivEv
Boostnote:_ZN2v88internal8compiler22MachineOperatorBuilder10Float64ExpEv
Boostnote:_ZN2v88internal8compiler22MachineOperatorBuilder10Float64LogEv
Boostnote:_ZN2v88internal8compiler22MachineOperatorBuilder10Float64MaxEv
Boostnote:_ZN2v88internal8compiler22MachineOperatorBuilder10Float64MinEv
Boostnote:_ZN2v88internal8compiler22MachineOperatorBuilder10Float64ModEv
Boostnote:_ZN2v88internal8compiler22MachineOperatorBuilder10Float64MulEv
Boostnote:_ZN2v88internal8compiler22MachineOperatorBuilder10Float64NegEv
Boostnote:_ZN2v88internal8compiler22MachineOperatorBuilder10Float64PowEv
Boostnote:_ZN2v88internal8compiler22MachineOperatorBuilder10Float64SinEv
Boostnote:_ZN2v88internal8compiler22MachineOperatorBuilder10Float64SubEv
Boostnote:_ZN2v88internal8compiler22MachineOperatorBuilder10Float64TanEv
Boostnote:_ZN2v88internal8compiler22MachineOperatorBuilder10I16x8SplatEv
Boostnote:_ZN2v88internal8compiler22MachineOperatorBuilder10I32x4SplatEv
Boostnote:_ZN2v88internal8compiler22MachineOperatorBuilder10I8x16SplatEv
Boostnote:_ZN2v88internal8compiler22MachineOperatorBuilder10S128SelectEv
Boostnote:_ZN2v88internal8compiler22MachineOperatorBuilder11Float32SqrtEv
Boostnote:_ZN2v88internal8compiler22MachineOperatorBuilder11Float64AcosEv
Boostnote:_ZN2v88internal8compiler22MachineOperatorBuilder11Float64AsinEv
Boostnote:_ZN2v88internal8compiler22MachineOperatorBuilder11Float64AtanEv
Boostnote:_ZN2v88internal8compiler22MachineOperatorBuilder11Float64CbrtEv
Boostnote:_ZN2v88internal8compiler22MachineOperatorBuilder11Float64CoshEv
Boostnote:_ZN2v88internal8compiler22MachineOperatorBuilder11Float64Log2Ev
Boostnote:_ZN2v88internal8compiler22MachineOperatorBuilder11Float64SinhEv
Boostnote:_ZN2v88internal8compiler22MachineOperatorBuilder11Float64SqrtEv
Boostnote:_ZN2v88internal8compiler22MachineOperatorBuilder11Float64TanhEv
Boostnote:_ZN2v88internal8compiler22MachineOperatorBuilder11S1x4AllTrueEv
Boostnote:_ZN2v88internal8compiler22MachineOperatorBuilder11S1x4AnyTrueEv
Boostnote:_ZN2v88internal8compiler22MachineOperatorBuilder11S1x8AllTrueEv
Boostnote:_ZN2v88internal8compiler22MachineOperatorBuilder11S1x8AnyTrueEv
Boostnote:_ZN2v88internal8compiler22MachineOperatorBuilder11Word32EqualEv
Boostnote:_ZN2v88internal8compiler22MachineOperatorBuilder11Word64EqualEv
Boostnote:_ZN2v88internal8compiler22MachineOperatorBuilder12Float32EqualEv
Boostnote:_ZN2v88internal8compiler22MachineOperatorBuilder12Float64AcoshEv
Boostnote:_ZN2v88internal8compiler22MachineOperatorBuilder12Float64AsinhEv
Boostnote:_ZN2v88internal8compiler22MachineOperatorBuilder12Float64Atan2Ev
Boostnote:_ZN2v88internal8compiler22MachineOperatorBuilder12Float64AtanhEv
Boostnote:_ZN2v88internal8compiler22MachineOperatorBuilder12Float64EqualEv
Boostnote:_ZN2v88internal8compiler22MachineOperatorBuilder12Float64Expm1Ev
Boostnote:_ZN2v88internal8compiler22MachineOperatorBuilder12Float64Log10Ev
Boostnote:_ZN2v88internal8compiler22MachineOperatorBuilder12Float64Log1pEv
Boostnote:_ZN2v88internal8compiler22MachineOperatorBuilder12Int32MulHighEv
Boostnote:_ZN2v88internal8compiler22MachineOperatorBuilder12Int32PairAddEv
Boostnote:_ZN2v88internal8compiler22MachineOperatorBuilder12Int32PairMulEv
Boostnote:_ZN2v88internal8compiler22MachineOperatorBuilder12Int32PairSubEv
Boostnote:_ZN2v88internal8compiler22MachineOperatorBuilder12PoisonedLoadENS0_11MachineTypeE
Boostnote:_ZN2v88internal8compiler22MachineOperatorBuilder12S1x16AllTrueEv
Boostnote:_ZN2v88internal8compiler22MachineOperatorBuilder12S1x16AnyTrueEv
Boostnote:_ZN2v88internal8compiler22MachineOperatorBuilder12S8x16ShuffleEPKh
Boostnote:_ZN2v88internal8compiler22MachineOperatorBuilder12Word32PopcntEv
Boostnote:_ZN2v88internal8compiler22MachineOperatorBuilder12Word64PopcntEv
Boostnote:_ZN2v88internal8compiler22MachineOperatorBuilder13F32x4AddHorizEv
Boostnote:_ZN2v88internal8compiler22MachineOperatorBuilder13I16x8AddHorizEv
Boostnote:_ZN2v88internal8compiler22MachineOperatorBuilder13I32x4AddHorizEv
Boostnote:_ZN2v88internal8compiler22MachineOperatorBuilder13Int32LessThanEv
Boostnote:_ZN2v88internal8compiler22MachineOperatorBuilder13Int64LessThanEv
Boostnote:_ZN2v88internal8compiler22MachineOperatorBuilder13ProtectedLoadENS0_11MachineTypeE
Boostnote:_ZN2v88internal8compiler22MachineOperatorBuilder13Uint32MulHighEv
Boostnote:_ZN2v88internal8compiler22MachineOperatorBuilder13UnalignedLoadENS0_11MachineTypeE
Boostnote:_ZN2v88internal8compiler22MachineOperatorBuilder13Word32PairSarEv
Boostnote:_ZN2v88internal8compiler22MachineOperatorBuilder13Word32PairShlEv
Boostnote:_ZN2v88internal8compiler22MachineOperatorBuilder13Word32PairShrEv
Boostnote:_ZN2v88internal8compiler22MachineOperatorBuilder14Float32RoundUpEv
Boostnote:_ZN2v88internal8compiler22MachineOperatorBuilder14Float64RoundUpEv
Boostnote:_ZN2v88internal8compiler22MachineOperatorBuilder14ProtectedStoreENS0_21MachineRepresentationE
Boostnote:_ZN2v88internal8compiler22MachineOperatorBuilder14Uint32LessThanEv
Boostnote:_ZN2v88internal8compiler22MachineOperatorBuilder14Uint64LessThanEv
Boostnote:_ZN2v88internal8compiler22MachineOperatorBuilder14UnalignedStoreENS0_21MachineRepresentationE
Boostnote:_ZN2v88internal8compiler22MachineOperatorBuilder14Word32AtomicOrENS0_11MachineTypeE
Boostnote:_ZN2v88internal8compiler22MachineOperatorBuilder14Word64AtomicOrENS0_11MachineTypeE
Boostnote:_ZN2v88internal8compiler22MachineOperatorBuilder15Float32LessThanEv
Boostnote:_ZN2v88internal8compiler22MachineOperatorBuilder15Float64LessThanEv
Boostnote:_ZN2v88internal8compiler22MachineOperatorBuilder15Word32AtomicAddENS0_11MachineTypeE
Boostnote:_ZN2v88internal8compiler22MachineOperatorBuilder15Word32AtomicAndENS0_11MachineTypeE
Boostnote:_ZN2v88internal8compiler22MachineOperatorBuilder15Word32AtomicSubENS0_11MachineTypeE
Boostnote:_ZN2v88internal8compiler22MachineOperatorBuilder15Word32AtomicXorENS0_11MachineTypeE
Boostnote:_ZN2v88internal8compiler22MachineOperatorBuilder15Word64AtomicAddENS0_11MachineTypeE
Boostnote:_ZN2v88internal8compiler22MachineOperatorBuilder15Word64AtomicAndENS0_11MachineTypeE
Boostnote:_ZN2v88internal8compiler22MachineOperatorBuilder15Word64AtomicSubENS0_11MachineTypeE
Boostnote:_ZN2v88internal8compiler22MachineOperatorBuilder15Word64AtomicXorENS0_11MachineTypeE
Boostnote:_ZN2v88internal8compiler22MachineOperatorBuilder16F32x4ExtractLaneEi
Boostnote:_ZN2v88internal8compiler22MachineOperatorBuilder16F32x4RecipApproxEv
Boostnote:_ZN2v88internal8compiler22MachineOperatorBuilder16F32x4ReplaceLaneEi
Boostnote:_ZN2v88internal8compiler22MachineOperatorBuilder16Float32RoundDownEv
Boostnote:_ZN2v88internal8compiler22MachineOperatorBuilder16Float64RoundDownEv
Boostnote:_ZN2v88internal8compiler22MachineOperatorBuilder16I16x8ExtractLaneEi
Boostnote:_ZN2v88internal8compiler22MachineOperatorBuilder16I16x8ReplaceLaneEi
Boostnote:_ZN2v88internal8compiler22MachineOperatorBuilder16I32x4ExtractLaneEi
Boostnote:_ZN2v88internal8compiler22MachineOperatorBuilder16I32x4ReplaceLaneEi
Boostnote:_ZN2v88internal8compiler22MachineOperatorBuilder16I8x16ExtractLaneEi
Boostnote:_ZN2v88internal8compiler22MachineOperatorBuilder16I8x16ReplaceLaneEi
Boostnote:_ZN2v88internal8compiler22MachineOperatorBuilder16LoadFramePointerEv
Boostnote:_ZN2v88internal8compiler22MachineOperatorBuilder16LoadStackPointerEv
Boostnote:_ZN2v88internal8compiler22MachineOperatorBuilder16SpeculationFenceEv
Boostnote:_ZN2v88internal8compiler22MachineOperatorBuilder16UnsafePointerAddEv
Boostnote:_ZN2v88internal8compiler22MachineOperatorBuilder16Word32AtomicLoadENS0_11MachineTypeE
Boostnote:_ZN2v88internal8compiler22MachineOperatorBuilder16Word64AtomicLoadENS0_11MachineTypeE
Boostnote:_ZN2v88internal8compiler22MachineOperatorBuilder17Float64SilenceNaNEv
Boostnote:_ZN2v88internal8compiler22MachineOperatorBuilder17I16x8AddSaturateSEv
Boostnote:_ZN2v88internal8compiler22MachineOperatorBuilder17I16x8AddSaturateUEv
Boostnote:_ZN2v88internal8compiler22MachineOperatorBuilder17I16x8SubSaturateSEv
Boostnote:_ZN2v88internal8compiler22MachineOperatorBuilder17I16x8SubSaturateUEv
Boostnote:_ZN2v88internal8compiler22MachineOperatorBuilder17I8x16AddSaturateSEv
Boostnote:_ZN2v88internal8compiler22MachineOperatorBuilder17I8x16AddSaturateUEv
Boostnote:_ZN2v88internal8compiler22MachineOperatorBuilder17I8x16SubSaturateSEv
Boostnote:_ZN2v88internal8compiler22MachineOperatorBuilder17I8x16SubSaturateUEv
Boostnote:_ZN2v88internal8compiler22MachineOperatorBuilder17Word32AtomicStoreENS0_21MachineRepresentationE
Boostnote:_ZN2v88internal8compiler22MachineOperatorBuilder17Word32ReverseBitsEv
Boostnote:_ZN2v88internal8compiler22MachineOperatorBuilder17Word64AtomicStoreENS0_21MachineRepresentationE
Boostnote:_ZN2v88internal8compiler22MachineOperatorBuilder17Word64ReverseBitsEv
Boostnote:_ZN2v88internal8compiler22MachineOperatorBuilder18ChangeInt32ToInt64Ev
Boostnote:_ZN2v88internal8compiler22MachineOperatorBuilder18F32x4SConvertI32x4Ev
Boostnote:_ZN2v88internal8compiler22MachineOperatorBuilder18F32x4UConvertI32x4Ev
Boostnote:_ZN2v88internal8compiler22MachineOperatorBuilder18I16x8SConvertI32x4Ev
Boostnote:_ZN2v88internal8compiler22MachineOperatorBuilder18I16x8UConvertI32x4Ev
Boostnote:_ZN2v88internal8compiler22MachineOperatorBuilder18I32x4SConvertF32x4Ev
Boostnote:_ZN2v88internal8compiler22MachineOperatorBuilder18I32x4UConvertF32x4Ev
Boostnote:_ZN2v88internal8compiler22MachineOperatorBuilder18I8x16SConvertI16x8Ev
Boostnote:_ZN2v88internal8compiler22MachineOperatorBuilder18I8x16UConvertI16x8Ev
Boostnote:_ZN2v88internal8compiler22MachineOperatorBuilder18Word32ReverseBytesEv
Boostnote:_ZN2v88internal8compiler22MachineOperatorBuilder18Word64ReverseBytesEv
Boostnote:_ZN2v88internal8compiler22MachineOperatorBuilder19BitcastTaggedToWordEv
Boostnote:_ZN2v88internal8compiler22MachineOperatorBuilder19BitcastWordToTaggedEv
Boostnote:_ZN2v88internal8compiler22MachineOperatorBuilder19RoundFloat64ToInt32Ev
Boostnote:_ZN2v88internal8compiler22MachineOperatorBuilder19RoundInt32ToFloat32Ev
Boostnote:_ZN2v88internal8compiler22MachineOperatorBuilder19RoundInt64ToFloat32Ev
Boostnote:_ZN2v88internal8compiler22MachineOperatorBuilder19RoundInt64ToFloat64Ev
Boostnote:_ZN2v88internal8compiler22MachineOperatorBuilder20ChangeFloat64ToInt32Ev
Boostnote:_ZN2v88internal8compiler22MachineOperatorBuilder20ChangeInt32ToFloat64Ev
Boostnote:_ZN2v88internal8compiler22MachineOperatorBuilder20ChangeUint32ToUint64Ev
Boostnote:_ZN2v88internal8compiler22MachineOperatorBuilder20F32x4RecipSqrtApproxEv
Boostnote:_ZN2v88internal8compiler22MachineOperatorBuilder20Float32RoundTiesEvenEv
Boostnote:_ZN2v88internal8compiler22MachineOperatorBuilder20Float32RoundTruncateEv
Boostnote:_ZN2v88internal8compiler22MachineOperatorBuilder20Float64RoundTiesAwayEv
Boostnote:_ZN2v88internal8compiler22MachineOperatorBuilder20Float64RoundTiesEvenEv
Boostnote:_ZN2v88internal8compiler22MachineOperatorBuilder20Float64RoundTruncateEv
Boostnote:_ZN2v88internal8compiler22MachineOperatorBuilder20Int32AbsWithOverflowEv
Boostnote:_ZN2v88internal8compiler22MachineOperatorBuilder20Int32AddWithOverflowEv
Boostnote:_ZN2v88internal8compiler22MachineOperatorBuilder20Int32LessThanOrEqualEv
Boostnote:_ZN2v88internal8compiler22MachineOperatorBuilder20Int32MulWithOverflowEv
Boostnote:_ZN2v88internal8compiler22MachineOperatorBuilder20Int32SubWithOverflowEv
Boostnote:_ZN2v88internal8compiler22MachineOperatorBuilder20Int64AbsWithOverflowEv
Boostnote:_ZN2v88internal8compiler22MachineOperatorBuilder20Int64AddWithOverflowEv
Boostnote:_ZN2v88internal8compiler22MachineOperatorBuilder20Int64LessThanOrEqualEv
Boostnote:_ZN2v88internal8compiler22MachineOperatorBuilder20Int64SubWithOverflowEv
Boostnote:_ZN2v88internal8compiler22MachineOperatorBuilder20RoundUint32ToFloat32Ev
Boostnote:_ZN2v88internal8compiler22MachineOperatorBuilder20RoundUint64ToFloat32Ev
Boostnote:_ZN2v88internal8compiler22MachineOperatorBuilder20RoundUint64ToFloat64Ev
Boostnote:_ZN2v88internal8compiler22MachineOperatorBuilder20TruncateInt64ToInt32Ev
Boostnote:_ZN2v88internal8compiler22MachineOperatorBuilder20Word32AtomicExchangeENS0_11MachineTypeE
Boostnote:_ZN2v88internal8compiler22MachineOperatorBuilder20Word64AtomicExchangeENS0_11MachineTypeE
Boostnote:_ZN2v88internal8compiler22MachineOperatorBuilder21BitcastFloat32ToInt32Ev
Boostnote:_ZN2v88internal8compiler22MachineOperatorBuilder21BitcastFloat64ToInt64Ev
Boostnote:_ZN2v88internal8compiler22MachineOperatorBuilder21BitcastInt32ToFloat32Ev
Boostnote:_ZN2v88internal8compiler22MachineOperatorBuilder21BitcastInt64ToFloat64Ev
Boostnote:_ZN2v88internal8compiler22MachineOperatorBuilder21ChangeFloat64ToUint32Ev
Boostnote:_ZN2v88internal8compiler22MachineOperatorBuilder21ChangeFloat64ToUint64Ev
Boostnote:_ZN2v88internal8compiler22MachineOperatorBuilder21ChangeUint32ToFloat64Ev
Boostnote:_ZN2v88internal8compiler22MachineOperatorBuilder21I16x8SConvertI8x16LowEv
Boostnote:_ZN2v88internal8compiler22MachineOperatorBuilder21I16x8UConvertI8x16LowEv
Boostnote:_ZN2v88internal8compiler22MachineOperatorBuilder21I32x4SConvertI16x8LowEv
Boostnote:_ZN2v88internal8compiler22MachineOperatorBuilder21I32x4UConvertI16x8LowEv
Boostnote:_ZN2v88internal8compiler22MachineOperatorBuilder21Uint32LessThanOrEqualEv
Boostnote:_ZN2v88internal8compiler22MachineOperatorBuilder21Uint64LessThanOrEqualEv
Boostnote:_ZN2v88internal8compiler22MachineOperatorBuilder22ChangeFloat32ToFloat64Ev
Boostnote:_ZN2v88internal8compiler22MachineOperatorBuilder22Float32LessThanOrEqualEv
Boostnote:_ZN2v88internal8compiler22MachineOperatorBuilder22Float64InsertLowWord32Ev
Boostnote:_ZN2v88internal8compiler22MachineOperatorBuilder22Float64LessThanOrEqualEv
Boostnote:_ZN2v88internal8compiler22MachineOperatorBuilder22I16x8SConvertI8x16HighEv
Boostnote:_ZN2v88internal8compiler22MachineOperatorBuilder22I16x8UConvertI8x16HighEv
Boostnote:_ZN2v88internal8compiler22MachineOperatorBuilder22I32x4SConvertI16x8HighEv
Boostnote:_ZN2v88internal8compiler22MachineOperatorBuilder22I32x4UConvertI16x8HighEv
Boostnote:_ZN2v88internal8compiler22MachineOperatorBuilder22LoadParentFramePointerEv
Boostnote:_ZN2v88internal8compiler22MachineOperatorBuilder22SignExtendWord8ToInt32Ev
Boostnote:_ZN2v88internal8compiler22MachineOperatorBuilder22SignExtendWord8ToInt64Ev
Boostnote:_ZN2v88internal8compiler22MachineOperatorBuilder22TruncateFloat32ToInt32Ev
Boostnote:_ZN2v88internal8compiler22MachineOperatorBuilder23Float64ExtractLowWord32Ev
Boostnote:_ZN2v88internal8compiler22MachineOperatorBuilder23Float64InsertHighWord32Ev
Boostnote:_ZN2v88internal8compiler22MachineOperatorBuilder23SignExtendWord16ToInt32Ev
Boostnote:_ZN2v88internal8compiler22MachineOperatorBuilder23SignExtendWord16ToInt64Ev
Boostnote:_ZN2v88internal8compiler22MachineOperatorBuilder23SignExtendWord32ToInt64Ev
Boostnote:_ZN2v88internal8compiler22MachineOperatorBuilder23TruncateFloat32ToUint32Ev
Boostnote:_ZN2v88internal8compiler22MachineOperatorBuilder23TruncateFloat64ToUint32Ev
Boostnote:_ZN2v88internal8compiler22MachineOperatorBuilder23TruncateFloat64ToWord32Ev
Boostnote:_ZN2v88internal8compiler22MachineOperatorBuilder24BitcastMaybeObjectToWordEv
Boostnote:_ZN2v88internal8compiler22MachineOperatorBuilder24Float64ExtractHighWord32Ev
Boostnote:_ZN2v88internal8compiler22MachineOperatorBuilder24TruncateFloat64ToFloat32Ev
Boostnote:_ZN2v88internal8compiler22MachineOperatorBuilder25BitcastWordToTaggedSignedEv
Boostnote:_ZN2v88internal8compiler22MachineOperatorBuilder25TaggedPoisonOnSpeculationEv
Boostnote:_ZN2v88internal8compiler22MachineOperatorBuilder25TryTruncateFloat32ToInt64Ev
Boostnote:_ZN2v88internal8compiler22MachineOperatorBuilder25TryTruncateFloat64ToInt64Ev
Boostnote:_ZN2v88internal8compiler22MachineOperatorBuilder25Word32PoisonOnSpeculationEv
Boostnote:_ZN2v88internal8compiler22MachineOperatorBuilder25Word64PoisonOnSpeculationEv
Boostnote:_ZN2v88internal8compiler22MachineOperatorBuilder26TryTruncateFloat32ToUint64Ev
Boostnote:_ZN2v88internal8compiler22MachineOperatorBuilder26TryTruncateFloat64ToUint64Ev
Boostnote:_ZN2v88internal8compiler22MachineOperatorBuilder27Word32AtomicCompareExchangeENS0_11MachineTypeE
Boostnote:_ZN2v88internal8compiler22MachineOperatorBuilder27Word64AtomicCompareExchangeENS0_11MachineTypeE
Boostnote:_ZN2v88internal8compiler22MachineOperatorBuilder4LoadENS0_11MachineTypeE
Boostnote:_ZN2v88internal8compiler22MachineOperatorBuilder5StoreENS1_19StoreRepresentationE
Boostnote:_ZN2v88internal8compiler22MachineOperatorBuilder6S128OrEv
Boostnote:_ZN2v88internal8compiler22MachineOperatorBuilder7CommentEPKc
Boostnote:_ZN2v88internal8compiler22MachineOperatorBuilder7F32x4EqEv
Boostnote:_ZN2v88internal8compiler22MachineOperatorBuilder7F32x4LeEv
Boostnote:_ZN2v88internal8compiler22MachineOperatorBuilder7F32x4LtEv
Boostnote:_ZN2v88internal8compiler22MachineOperatorBuilder7F32x4NeEv
Boostnote:_ZN2v88internal8compiler22MachineOperatorBuilder7I16x8EqEv
Boostnote:_ZN2v88internal8compiler22MachineOperatorBuilder7I16x8NeEv
Boostnote:_ZN2v88internal8compiler22MachineOperatorBuilder7I32x4EqEv
Boostnote:_ZN2v88internal8compiler22MachineOperatorBuilder7I32x4NeEv
Boostnote:_ZN2v88internal8compiler22MachineOperatorBuilder7I8x16EqEv
Boostnote:_ZN2v88internal8compiler22MachineOperatorBuilder7I8x16NeEv
Boostnote:_ZN2v88internal8compiler22MachineOperatorBuilder7S128AndEv
Boostnote:_ZN2v88internal8compiler22MachineOperatorBuilder7S128NotEv
Boostnote:_ZN2v88internal8compiler22MachineOperatorBuilder7S128XorEv
Boostnote:_ZN2v88internal8compiler22MachineOperatorBuilder8F32x4AbsEv
Boostnote:_ZN2v88internal8compiler22MachineOperatorBuilder8F32x4AddEv
Boostnote:_ZN2v88internal8compiler22MachineOperatorBuilder8F32x4MaxEv
Boostnote:_ZN2v88internal8compiler22MachineOperatorBuilder8F32x4MinEv
Boostnote:_ZN2v88internal8compiler22MachineOperatorBuilder8F32x4MulEv
Boostnote:_ZN2v88internal8compiler22MachineOperatorBuilder8F32x4NegEv
Boostnote:_ZN2v88internal8compiler22MachineOperatorBuilder8F32x4SubEv
Boostnote:_ZN2v88internal8compiler22MachineOperatorBuilder8I16x8AddEv
Boostnote:_ZN2v88internal8compiler22MachineOperatorBuilder8I16x8GeSEv
Boostnote:_ZN2v88internal8compiler22MachineOperatorBuilder8I16x8GeUEv
Boostnote:_ZN2v88internal8compiler22MachineOperatorBuilder8I16x8GtSEv
Boostnote:_ZN2v88internal8compiler22MachineOperatorBuilder8I16x8GtUEv
Boostnote:_ZN2v88internal8compiler22MachineOperatorBuilder8I16x8MulEv
Boostnote:_ZN2v88internal8compiler22MachineOperatorBuilder8I16x8NegEv
Boostnote:_ZN2v88internal8compiler22MachineOperatorBuilder8I16x8ShlEi
Boostnote:_ZN2v88internal8compiler22MachineOperatorBuilder8I16x8SubEv
Boostnote:_ZN2v88internal8compiler22MachineOperatorBuilder8I32x4AddEv
Boostnote:_ZN2v88internal8compiler22MachineOperatorBuilder8I32x4GeSEv
Boostnote:_ZN2v88internal8compiler22MachineOperatorBuilder8I32x4GeUEv
Boostnote:_ZN2v88internal8compiler22MachineOperatorBuilder8I32x4GtSEv
Boostnote:_ZN2v88internal8compiler22MachineOperatorBuilder8I32x4GtUEv
Boostnote:_ZN2v88internal8compiler22MachineOperatorBuilder8I32x4MulEv
Boostnote:_ZN2v88internal8compiler22MachineOperatorBuilder8I32x4NegEv
Boostnote:_ZN2v88internal8compiler22MachineOperatorBuilder8I32x4ShlEi
Boostnote:_ZN2v88internal8compiler22MachineOperatorBuilder8I32x4SubEv
Boostnote:_ZN2v88internal8compiler22MachineOperatorBuilder8I8x16AddEv
Boostnote:_ZN2v88internal8compiler22MachineOperatorBuilder8I8x16GeSEv
Boostnote:_ZN2v88internal8compiler22MachineOperatorBuilder8I8x16GeUEv
Boostnote:_ZN2v88internal8compiler22MachineOperatorBuilder8I8x16GtSEv
Boostnote:_ZN2v88internal8compiler22MachineOperatorBuilder8I8x16GtUEv
Boostnote:_ZN2v88internal8compiler22MachineOperatorBuilder8I8x16MulEv
Boostnote:_ZN2v88internal8compiler22MachineOperatorBuilder8I8x16NegEv
Boostnote:_ZN2v88internal8compiler22MachineOperatorBuilder8I8x16ShlEi
Boostnote:_ZN2v88internal8compiler22MachineOperatorBuilder8I8x16SubEv
Boostnote:_ZN2v88internal8compiler22MachineOperatorBuilder8Int32AddEv
Boostnote:_ZN2v88internal8compiler22MachineOperatorBuilder8Int32DivEv
Boostnote:_ZN2v88internal8compiler22MachineOperatorBuilder8Int32ModEv
Boostnote:_ZN2v88internal8compiler22MachineOperatorBuilder8Int32MulEv
Boostnote:_ZN2v88internal8compiler22MachineOperatorBuilder8Int32SubEv
Boostnote:_ZN2v88internal8compiler22MachineOperatorBuilder8Int64AddEv
Boostnote:_ZN2v88internal8compiler22MachineOperatorBuilder8Int64DivEv
Boostnote:_ZN2v88internal8compiler22MachineOperatorBuilder8Int64ModEv
Boostnote:_ZN2v88internal8compiler22MachineOperatorBuilder8Int64MulEv
Boostnote:_ZN2v88internal8compiler22MachineOperatorBuilder8Int64SubEv
Boostnote:_ZN2v88internal8compiler22MachineOperatorBuilder8S128LoadEv
Boostnote:_ZN2v88internal8compiler22MachineOperatorBuilder8S128ZeroEv
Boostnote:_ZN2v88internal8compiler22MachineOperatorBuilder8Word32OrEv
Boostnote:_ZN2v88internal8compiler22MachineOperatorBuilder8Word64OrEv
Boostnote:_ZN2v88internal8compiler22MachineOperatorBuilder9I16x8MaxSEv
Boostnote:_ZN2v88internal8compiler22MachineOperatorBuilder9I16x8MaxUEv
Boostnote:_ZN2v88internal8compiler22MachineOperatorBuilder9I16x8MinSEv
Boostnote:_ZN2v88internal8compiler22MachineOperatorBuilder9I16x8MinUEv
Boostnote:_ZN2v88internal8compiler22MachineOperatorBuilder9I16x8ShrSEi
Boostnote:_ZN2v88internal8compiler22MachineOperatorBuilder9I16x8ShrUEi
Boostnote:_ZN2v88internal8compiler22MachineOperatorBuilder9I32x4MaxSEv
Boostnote:_ZN2v88internal8compiler22MachineOperatorBuilder9I32x4MaxUEv
Boostnote:_ZN2v88internal8compiler22MachineOperatorBuilder9I32x4MinSEv
Boostnote:_ZN2v88internal8compiler22MachineOperatorBuilder9I32x4MinUEv
Boostnote:_ZN2v88internal8compiler22MachineOperatorBuilder9I32x4ShrSEi
Boostnote:_ZN2v88internal8compiler22MachineOperatorBuilder9I32x4ShrUEi
Boostnote:_ZN2v88internal8compiler22MachineOperatorBuilder9I8x16MaxSEv
Boostnote:_ZN2v88internal8compiler22MachineOperatorBuilder9I8x16MaxUEv
Boostnote:_ZN2v88internal8compiler22MachineOperatorBuilder9I8x16MinSEv
Boostnote:_ZN2v88internal8compiler22MachineOperatorBuilder9I8x16MinUEv
Boostnote:_ZN2v88internal8compiler22MachineOperatorBuilder9I8x16ShrSEi
Boostnote:_ZN2v88internal8compiler22MachineOperatorBuilder9I8x16ShrUEi
Boostnote:_ZN2v88internal8compiler22MachineOperatorBuilder9S128StoreEv
Boostnote:_ZN2v88internal8compiler22MachineOperatorBuilder9StackSlotENS0_21MachineRepresentationEi
Boostnote:_ZN2v88internal8compiler22MachineOperatorBuilder9StackSlotEii
Boostnote:_ZN2v88internal8compiler22MachineOperatorBuilder9Uint32DivEv
Boostnote:_ZN2v88internal8compiler22MachineOperatorBuilder9Uint32ModEv
Boostnote:_ZN2v88internal8compiler22MachineOperatorBuilder9Uint64DivEv
Boostnote:_ZN2v88internal8compiler22MachineOperatorBuilder9Uint64ModEv
Boostnote:_ZN2v88internal8compiler22MachineOperatorBuilder9Word32AndEv
Boostnote:_ZN2v88internal8compiler22MachineOperatorBuilder9Word32ClzEv
Boostnote:_ZN2v88internal8compiler22MachineOperatorBuilder9Word32CtzEv
Boostnote:_ZN2v88internal8compiler22MachineOperatorBuilder9Word32RorEv
Boostnote:_ZN2v88internal8compiler22MachineOperatorBuilder9Word32SarEv
Boostnote:_ZN2v88internal8compiler22MachineOperatorBuilder9Word32ShlEv
Boostnote:_ZN2v88internal8compiler22MachineOperatorBuilder9Word32ShrEv
Boostnote:_ZN2v88internal8compiler22MachineOperatorBuilder9Word32XorEv
Boostnote:_ZN2v88internal8compiler22MachineOperatorBuilder9Word64AndEv
Boostnote:_ZN2v88internal8compiler22MachineOperatorBuilder9Word64ClzEv
Boostnote:_ZN2v88internal8compiler22MachineOperatorBuilder9Word64CtzEv
Boostnote:_ZN2v88internal8compiler22MachineOperatorBuilder9Word64RorEv
Boostnote:_ZN2v88internal8compiler22MachineOperatorBuilder9Word64SarEv
Boostnote:_ZN2v88internal8compiler22MachineOperatorBuilder9Word64ShlEv
Boostnote:_ZN2v88internal8compiler22MachineOperatorBuilder9Word64ShrEv
Boostnote:_ZN2v88internal8compiler22MachineOperatorBuilder9Word64XorEv
Boostnote:_ZN2v88internal8compiler22MachineOperatorBuilderC1EPNS0_4ZoneENS0_21MachineRepresentationENS_4base5FlagsINS2_4FlagEjEENS2_21AlignmentRequirementsE
Boostnote:_ZN2v88internal8compiler22MachineOperatorBuilderC2EPNS0_4ZoneENS0_21MachineRepresentationENS_4base5FlagsINS2_4FlagEjEENS2_21AlignmentRequirementsE
Boostnote:_ZN2v88internal8compiler22MachineOperatorReducer10Float64MulEPNS1_4NodeES4_
Boostnote:_ZN2v88internal8compiler22MachineOperatorReducer11ReduceStoreEPNS1_4NodeE
Boostnote:_ZN2v88internal8compiler22MachineOperatorReducer11Word32EqualEPNS1_4NodeES4_
Boostnote:_ZN2v88internal8compiler22MachineOperatorReducer13Int32ConstantEi
Boostnote:_ZN2v88internal8compiler22MachineOperatorReducer13Int64ConstantEl
Boostnote:_ZN2v88internal8compiler22MachineOperatorReducer14Float64PowHalfEPNS1_4NodeE
Boostnote:_ZN2v88internal8compiler22MachineOperatorReducer14ReduceInt32AddEPNS1_4NodeE
Boostnote:_ZN2v88internal8compiler22MachineOperatorReducer14ReduceInt32DivEPNS1_4NodeE
Boostnote:_ZN2v88internal8compiler22MachineOperatorReducer14ReduceInt32ModEPNS1_4NodeE
Boostnote:_ZN2v88internal8compiler22MachineOperatorReducer14ReduceInt32SubEPNS1_4NodeE
Boostnote:_ZN2v88internal8compiler22MachineOperatorReducer14ReduceInt64AddEPNS1_4NodeE
Boostnote:_ZN2v88internal8compiler22MachineOperatorReducer14ReduceInt64SubEPNS1_4NodeE
Boostnote:_ZN2v88internal8compiler22MachineOperatorReducer14ReduceWord32OrEPNS1_4NodeE
Boostnote:_ZN2v88internal8compiler22MachineOperatorReducer15Float32ConstantEf
Boostnote:_ZN2v88internal8compiler22MachineOperatorReducer15Float64ConstantEd
Boostnote:_ZN2v88internal8compiler22MachineOperatorReducer15ReduceUint32DivEPNS1_4NodeE
Boostnote:_ZN2v88internal8compiler22MachineOperatorReducer15ReduceUint32ModEPNS1_4NodeE
Boostnote:_ZN2v88internal8compiler22MachineOperatorReducer15ReduceWord32AndEPNS1_4NodeE
Boostnote:_ZN2v88internal8compiler22MachineOperatorReducer15ReduceWord32SarEPNS1_4NodeE
Boostnote:_ZN2v88internal8compiler22MachineOperatorReducer15ReduceWord32ShlEPNS1_4NodeE
Boostnote:_ZN2v88internal8compiler22MachineOperatorReducer15ReduceWord32ShrEPNS1_4NodeE
Boostnote:_ZN2v88internal8compiler22MachineOperatorReducer15ReduceWord32XorEPNS1_4NodeE
Boostnote:_ZN2v88internal8compiler22MachineOperatorReducer15ReduceWord64SarEPNS1_4NodeE
Boostnote:_ZN2v88internal8compiler22MachineOperatorReducer15ReduceWord64ShlEPNS1_4NodeE
Boostnote:_ZN2v88internal8compiler22MachineOperatorReducer15ReduceWord64ShrEPNS1_4NodeE
Boostnote:_ZN2v88internal8compiler22MachineOperatorReducer16ReduceProjectionEmPNS1_4NodeE
Boostnote:_ZN2v88internal8compiler22MachineOperatorReducer17TryMatchWord32RorEPNS1_4NodeE
Boostnote:_ZN2v88internal8compiler22MachineOperatorReducer18ReduceWord32ShiftsEPNS1_4NodeE
Boostnote:_ZN2v88internal8compiler22MachineOperatorReducer20ReduceFloat64CompareEPNS1_4NodeE
Boostnote:_ZN2v88internal8compiler22MachineOperatorReducer22ReduceFloat64RoundDownEPNS1_4NodeE
Boostnote:_ZN2v88internal8compiler22MachineOperatorReducer28ReduceFloat64InsertLowWord32EPNS1_4NodeE
Boostnote:_ZN2v88internal8compiler22MachineOperatorReducer29ReduceFloat64InsertHighWord32EPNS1_4NodeE
Boostnote:_ZN2v88internal8compiler22MachineOperatorReducer6ReduceEPNS1_4NodeE
Boostnote:_ZN2v88internal8compiler22MachineOperatorReducer8Int32AddEPNS1_4NodeES4_
Boostnote:_ZN2v88internal8compiler22MachineOperatorReducer8Int32DivEPNS1_4NodeEi
Boostnote:_ZN2v88internal8compiler22MachineOperatorReducer8Int32MulEPNS1_4NodeES4_
Boostnote:_ZN2v88internal8compiler22MachineOperatorReducer8Int32SubEPNS1_4NodeES4_
Boostnote:_ZN2v88internal8compiler22MachineOperatorReducer9Uint32DivEPNS1_4NodeEj
Boostnote:_ZN2v88internal8compiler22MachineOperatorReducer9Word32AndEPNS1_4NodeES4_
Boostnote:_ZN2v88internal8compiler22MachineOperatorReducer9Word32SarEPNS1_4NodeEj
Boostnote:_ZN2v88internal8compiler22MachineOperatorReducer9Word32ShrEPNS1_4NodeEj
Boostnote:_ZN2v88internal8compiler22MachineOperatorReducerC1EPNS1_12MachineGraphEb
Boostnote:_ZN2v88internal8compiler22MachineOperatorReducerC2EPNS1_12MachineGraphEb
Boostnote:_ZN2v88internal8compiler22MachineOperatorReducerD0Ev
Boostnote:_ZN2v88internal8compiler22MachineOperatorReducerD1Ev
Boostnote:_ZN2v88internal8compiler22MachineOperatorReducerD2Ev
Boostnote:_ZN2v88internal8compiler23BytecodeLoopAssignments3AddENS0_11interpreter8RegisterE
Boostnote:_ZN2v88internal8compiler23BytecodeLoopAssignments5UnionERKS2_
Boostnote:_ZN2v88internal8compiler23BytecodeLoopAssignments7AddListENS0_11interpreter8RegisterEj
Boostnote:_ZN2v88internal8compiler23BytecodeLoopAssignmentsC1EiiPNS0_4ZoneE
Boostnote:_ZN2v88internal8compiler23BytecodeLoopAssignmentsC2EiiPNS0_4ZoneE
Boostnote:_ZN2v88internal8compiler23CompilationDependencies17DependOnFieldTypeERKNS1_6MapRefEi
Boostnote:_ZN2v88internal8compiler23CompilationDependencies17DependOnProtectorERKNS1_15PropertyCellRefE
Boostnote:_ZN2v88internal8compiler23CompilationDependencies17DependOnStableMapERKNS1_6MapRefE
Boostnote:_ZN2v88internal8compiler23CompilationDependencies18DependOnInitialMapERKNS1_13JSFunctionRefE
Boostnote:_ZN2v88internal8compiler23CompilationDependencies18DependOnTransitionERKNS1_6MapRefE
Boostnote:_ZN2v88internal8compiler23CompilationDependencies20DependOnElementsKindERKNS1_17AllocationSiteRefE
Boostnote:_ZN2v88internal8compiler23CompilationDependencies21DependOnElementsKindsERKNS1_17AllocationSiteRefE
Boostnote:_ZN2v88internal8compiler23CompilationDependencies21DependOnPretenureModeERKNS1_17AllocationSiteRefE
Boostnote:_ZN2v88internal8compiler23CompilationDependencies22DependOnGlobalPropertyERKNS1_15PropertyCellRefE
Boostnote:_ZN2v88internal8compiler23CompilationDependencies29DependOnStablePrototypeChainsEPKNS1_12JSHeapBrokerENS0_6HandleINS0_7ContextEEERKNSt3__16vectorINS6_INS0_3MapEEENS9_9allocatorISC_EEEENS6_INS0_8JSObjectEEE
Boostnote:_ZN2v88internal8compiler23CompilationDependencies6CommitENS0_6HandleINS0_4CodeEEE
Boostnote:_ZN2v88internal8compiler23CompilationDependenciesC1EPNS0_7IsolateEPNS0_4ZoneE
Boostnote:_ZN2v88internal8compiler23CompilationDependenciesC2EPNS0_7IsolateEPNS0_4ZoneE
Boostnote:_ZN2v88internal8compiler23EffectControlLinearizer11LowerTypeOfEPNS1_4NodeE
Boostnote:_ZN2v88internal8compiler23EffectControlLinearizer11ObjectIsSmiEPNS1_4NodeE
Boostnote:_ZN2v88internal8compiler23EffectControlLinearizer11ProcessNodeEPNS1_4NodeEPS4_S5_S5_
Boostnote:_ZN2v88internal8compiler23EffectControlLinearizer12LowerCheckIfEPNS1_4NodeES4_
Boostnote:_ZN2v88internal8compiler23EffectControlLinearizer12LowerDateNowEPNS1_4NodeE
Boostnote:_ZN2v88internal8compiler23EffectControlLinearizer13LowerAllocateEPNS1_4NodeE
Boostnote:_ZN2v88internal8compiler23EffectControlLinearizer14LowerCheckMapsEPNS1_4NodeES4_
Boostnote:_ZN2v88internal8compiler23EffectControlLinearizer14LowerDeadValueEPNS1_4NodeE
Boostnote:_ZN2v88internal8compiler23EffectControlLinearizer14LowerSameValueEPNS1_4NodeE
Boostnote:_ZN2v88internal8compiler23EffectControlLinearizer14LowerToBooleanEPNS1_4NodeE
Boostnote:_ZN2v88internal8compiler23EffectControlLinearizer16ChangeInt32ToSmiEPNS1_4NodeE
Boostnote:_ZN2v88internal8compiler23EffectControlLinearizer16ChangeSmiToInt32EPNS1_4NodeE
Boostnote:_ZN2v88internal8compiler23EffectControlLinearizer16LowerCheckBoundsEPNS1_4NodeES4_
Boostnote:_ZN2v88internal8compiler23EffectControlLinearizer16LowerCheckNumberEPNS1_4NodeES4_
Boostnote:_ZN2v88internal8compiler23EffectControlLinearizer16LowerCheckStringEPNS1_4NodeES4_
Boostnote:_ZN2v88internal8compiler23EffectControlLinearizer16LowerCheckSymbolEPNS1_4NodeES4_
Boostnote:_ZN2v88internal8compiler23EffectControlLinearizer16LowerCompareMapsEPNS1_4NodeE
Boostnote:_ZN2v88internal8compiler23EffectControlLinearizer16LowerNumberIsNaNEPNS1_4NodeE
Boostnote:_ZN2v88internal8compiler23EffectControlLinearizer16LowerObjectIsNaNEPNS1_4NodeE
Boostnote:_ZN2v88internal8compiler23EffectControlLinearizer16LowerObjectIsSmiEPNS1_4NodeE
Boostnote:_ZN2v88internal8compiler23EffectControlLinearizer16LowerPoisonIndexEPNS1_4NodeE
Boostnote:_ZN2v88internal8compiler23EffectControlLinearizer16LowerStringEqualEPNS1_4NodeE
Boostnote:_ZN2v88internal8compiler23EffectControlLinearizer17ChangeSmiToIntPtrEPNS1_4NodeE
Boostnote:_ZN2v88internal8compiler23EffectControlLinearizer17ChangeUint32ToSmiEPNS1_4NodeE
Boostnote:_ZN2v88internal8compiler23EffectControlLinearizer17LoadFromSeqStringEPNS1_4NodeES4_S4_
Boostnote:_ZN2v88internal8compiler23EffectControlLinearizer17LowerRuntimeAbortEPNS1_4NodeE
Boostnote:_ZN2v88internal8compiler23EffectControlLinearizer17LowerStringLengthEPNS1_4NodeE
Boostnote:_ZN2v88internal8compiler23EffectControlLinearizer18ComputeIntegerHashEPNS1_4NodeE
Boostnote:_ZN2v88internal8compiler23EffectControlLinearizer18LowerCheckReceiverEPNS1_4NodeES4_
Boostnote:_ZN2v88internal8compiler23EffectControlLinearizer18LowerNewConsStringEPNS1_4NodeE
Boostnote:_ZN2v88internal8compiler23EffectControlLinearizer18LowerStringIndexOfEPNS1_4NodeE
Boostnote:_ZN2v88internal8compiler23EffectControlLinearizer19ChangeInt32ToIntPtrEPNS1_4NodeE
Boostnote:_ZN2v88internal8compiler23EffectControlLinearizer19ChangeIntPtrToInt32EPNS1_4NodeE
Boostnote:_ZN2v88internal8compiler23EffectControlLinearizer19LowerArgumentsFrameEPNS1_4NodeE
Boostnote:_ZN2v88internal8compiler23EffectControlLinearizer19LowerFloat64RoundUpEPNS1_4NodeE
Boostnote:_ZN2v88internal8compiler23EffectControlLinearizer19LowerNumberIsFiniteEPNS1_4NodeE
Boostnote:_ZN2v88internal8compiler23EffectControlLinearizer19LowerNumberToStringEPNS1_4NodeE
Boostnote:_ZN2v88internal8compiler23EffectControlLinearizer19LowerObjectIsBigIntEPNS1_4NodeE
Boostnote:_ZN2v88internal8compiler23EffectControlLinearizer19LowerObjectIsNumberEPNS1_4NodeE
Boostnote:_ZN2v88internal8compiler23EffectControlLinearizer19LowerObjectIsStringEPNS1_4NodeE
Boostnote:_ZN2v88internal8compiler23EffectControlLinearizer19LowerObjectIsSymbolEPNS1_4NodeE
Boostnote:_ZN2v88internal8compiler23EffectControlLinearizer19LowerStringLessThanEPNS1_4NodeE
Boostnote:_ZN2v88internal8compiler23EffectControlLinearizer19LowerStringToNumberEPNS1_4NodeE
Boostnote:_ZN2v88internal8compiler23EffectControlLinearizer19SmiMaxValueConstantEv
Boostnote:_ZN2v88internal8compiler23EffectControlLinearizer20LowerArgumentsLengthEPNS1_4NodeE
Boostnote:_ZN2v88internal8compiler23EffectControlLinearizer20LowerCheckedInt32AddEPNS1_4NodeES4_
Boostnote:_ZN2v88internal8compiler23EffectControlLinearizer20LowerCheckedInt32DivEPNS1_4NodeES4_
Boostnote:_ZN2v88internal8compiler23EffectControlLinearizer20LowerCheckedInt32ModEPNS1_4NodeES4_
Boostnote:_ZN2v88internal8compiler23EffectControlLinearizer20LowerCheckedInt32MulEPNS1_4NodeES4_
Boostnote:_ZN2v88internal8compiler23EffectControlLinearizer20LowerCheckedInt32SubEPNS1_4NodeES4_
Boostnote:_ZN2v88internal8compiler23EffectControlLinearizer20LowerConvertReceiverEPNS1_4NodeE
Boostnote:_ZN2v88internal8compiler23EffectControlLinearizer20LowerNumberIsIntegerEPNS1_4NodeE
Boostnote:_ZN2v88internal8compiler23EffectControlLinearizer20LowerObjectIsIntegerEPNS1_4NodeE
Boostnote:_ZN2v88internal8compiler23EffectControlLinearizer20LowerStringSubstringEPNS1_4NodeE
Boostnote:_ZN2v88internal8compiler23EffectControlLinearizer20SmiShiftBitsConstantEv
Boostnote:_ZN2v88internal8compiler23EffectControlLinearizer20TransitionElementsToEPNS1_4NodeES4_NS0_12ElementsKindES5_
Boostnote:_ZN2v88internal8compiler23EffectControlLinearizer20TryWireInStateEffectEPNS1_4NodeES4_PS4_S5_
Boostnote:_ZN2v88internal8compiler23EffectControlLinearizer21BuildFloat64RoundDownEPNS1_4NodeE
Boostnote:_ZN2v88internal8compiler23EffectControlLinearizer21ChangeUint32ToUintPtrEPNS1_4NodeE
Boostnote:_ZN2v88internal8compiler23EffectControlLinearizer21LowerCheckFloat64HoleEPNS1_4NodeES4_
Boostnote:_ZN2v88internal8compiler23EffectControlLinearizer21LowerCheckedUint32DivEPNS1_4NodeES4_
Boostnote:_ZN2v88internal8compiler23EffectControlLinearizer21LowerCheckedUint32ModEPNS1_4NodeES4_
Boostnote:_ZN2v88internal8compiler23EffectControlLinearizer21LowerFloat64RoundDownEPNS1_4NodeE
Boostnote:_ZN2v88internal8compiler23EffectControlLinearizer21LowerLoadFieldByIndexEPNS1_4NodeE
Boostnote:_ZN2v88internal8compiler23EffectControlLinearizer21LowerLoadTypedElementEPNS1_4NodeE
Boostnote:_ZN2v88internal8compiler23EffectControlLinearizer21LowerObjectIsCallableEPNS1_4NodeE
Boostnote:_ZN2v88internal8compiler23EffectControlLinearizer21LowerObjectIsReceiverEPNS1_4NodeE
Boostnote:_ZN2v88internal8compiler23EffectControlLinearizer21LowerStringCharCodeAtEPNS1_4NodeE
Boostnote:_ZN2v88internal8compiler23EffectControlLinearizer21LowerStringComparisonERKNS0_8CallableEPNS1_4NodeE
Boostnote:_ZN2v88internal8compiler23EffectControlLinearizer22LowerChangeBitToTaggedEPNS1_4NodeE
Boostnote:_ZN2v88internal8compiler23EffectControlLinearizer22LowerChangeTaggedToBitEPNS1_4NodeE
Boostnote:_ZN2v88internal8compiler23EffectControlLinearizer22LowerCheckEqualsSymbolEPNS1_4NodeES4_
Boostnote:_ZN2v88internal8compiler23EffectControlLinearizer22LowerNewDoubleElementsEPNS1_4NodeE
Boostnote:_ZN2v88internal8compiler23EffectControlLinearizer22LowerObjectIsMinusZeroEPNS1_4NodeE
Boostnote:_ZN2v88internal8compiler23EffectControlLinearizer22LowerStoreTypedElementEPNS1_4NodeE
Boostnote:_ZN2v88internal8compiler23EffectControlLinearizer22LowerStringCodePointAtEPNS1_4NodeENS0_15UnicodeEncodingE
Boostnote:_ZN2v88internal8compiler23EffectControlLinearizer23LowerCheckNotTaggedHoleEPNS1_4NodeES4_
Boostnote:_ZN2v88internal8compiler23EffectControlLinearizer24LowerChangeInt32ToTaggedEPNS1_4NodeE
Boostnote:_ZN2v88internal8compiler23EffectControlLinearizer24LowerChangeTaggedToInt32EPNS1_4NodeE
Boostnote:_ZN2v88internal8compiler23EffectControlLinearizer24LowerLoadDataViewElementEPNS1_4NodeE
Boostnote:_ZN2v88internal8compiler23EffectControlLinearizer24LowerNumberIsFloat64HoleEPNS1_4NodeE
Boostnote:_ZN2v88internal8compiler23EffectControlLinearizer24LowerNumberIsSafeIntegerEPNS1_4NodeE
Boostnote:_ZN2v88internal8compiler23EffectControlLinearizer24LowerObjectIsConstructorEPNS1_4NodeE
Boostnote:_ZN2v88internal8compiler23EffectControlLinearizer24LowerObjectIsNonCallableEPNS1_4NodeE
Boostnote:_ZN2v88internal8compiler23EffectControlLinearizer24LowerObjectIsSafeIntegerEPNS1_4NodeE
Boostnote:_ZN2v88internal8compiler23EffectControlLinearizer24LowerTruncateTaggedToBitEPNS1_4NodeE
Boostnote:_ZN2v88internal8compiler23EffectControlLinearizer25BuildFloat64RoundTruncateEPNS1_4NodeE
Boostnote:_ZN2v88internal8compiler23EffectControlLinearizer25IsElementsKindGreaterThanEPNS1_4NodeENS0_12ElementsKindE
Boostnote:_ZN2v88internal8compiler23EffectControlLinearizer25LowerChangeTaggedToUint32EPNS1_4NodeE
Boostnote:_ZN2v88internal8compiler23EffectControlLinearizer25LowerChangeUint32ToTaggedEPNS1_4NodeE
Boostnote:_ZN2v88internal8compiler23EffectControlLinearizer25LowerCheckedTaggedToInt32EPNS1_4NodeES4_
Boostnote:_ZN2v88internal8compiler23EffectControlLinearizer25LowerCheckedUint32ToInt32EPNS1_4NodeES4_
Boostnote:_ZN2v88internal8compiler23EffectControlLinearizer25LowerFloat64RoundTiesEvenEPNS1_4NodeE
Boostnote:_ZN2v88internal8compiler23EffectControlLinearizer25LowerFloat64RoundTruncateEPNS1_4NodeE
Boostnote:_ZN2v88internal8compiler23EffectControlLinearizer25LowerNewArgumentsElementsEPNS1_4NodeE
Boostnote:_ZN2v88internal8compiler23EffectControlLinearizer25LowerObjectIsFiniteNumberEPNS1_4NodeE
Boostnote:_ZN2v88internal8compiler23EffectControlLinearizer25LowerObjectIsUndetectableEPNS1_4NodeE
Boostnote:_ZN2v88internal8compiler23EffectControlLinearizer25LowerStoreDataViewElementEPNS1_4NodeE
Boostnote:_ZN2v88internal8compiler23EffectControlLinearizer26BuildCheckedFloat64ToInt32ENS1_21CheckForMinusZeroModeERKNS0_14VectorSlotPairEPNS1_4NodeES8_
Boostnote:_ZN2v88internal8compiler23EffectControlLinearizer26LowerChangeFloat64ToTaggedEPNS1_4NodeE
Boostnote:_ZN2v88internal8compiler23EffectControlLinearizer26LowerChangeTaggedToFloat64EPNS1_4NodeE
Boostnote:_ZN2v88internal8compiler23EffectControlLinearizer26LowerCheckedFloat64ToInt32EPNS1_4NodeES4_
Boostnote:_ZN2v88internal8compiler23EffectControlLinearizer26LowerMaybeGrowFastElementsEPNS1_4NodeES4_
Boostnote:_ZN2v88internal8compiler23EffectControlLinearizer26LowerStringLessThanOrEqualEPNS1_4NodeE
Boostnote:_ZN2v88internal8compiler23EffectControlLinearizer26LowerStringToLowerCaseIntlEPNS1_4NodeE
Boostnote:_ZN2v88internal8compiler23EffectControlLinearizer26LowerStringToUpperCaseIntlEPNS1_4NodeE
Boostnote:_ZN2v88internal8compiler23EffectControlLinearizer26TruncateTaggedPointerToBitEPNS1_4NodeEPNS1_19GraphAssemblerLabelILm1EEE
Boostnote:_ZN2v88internal8compiler23EffectControlLinearizer27AllocateHeapNumberWithValueEPNS1_4NodeE
Boostnote:_ZN2v88internal8compiler23EffectControlLinearizer27LowerArrayBufferWasNeuteredEPNS1_4NodeE
Boostnote:_ZN2v88internal8compiler23EffectControlLinearizer27LowerCheckedTaggedToFloat64EPNS1_4NodeES4_
Boostnote:_ZN2v88internal8compiler23EffectControlLinearizer27LowerNewSmiOrObjectElementsEPNS1_4NodeE
Boostnote:_ZN2v88internal8compiler23EffectControlLinearizer27LowerPlainPrimitiveToNumberEPNS1_4NodeE
Boostnote:_ZN2v88internal8compiler23EffectControlLinearizer27LowerPlainPrimitiveToWord32EPNS1_4NodeE
Boostnote:_ZN2v88internal8compiler23EffectControlLinearizer27LowerTransitionElementsKindEPNS1_4NodeE
Boostnote:_ZN2v88internal8compiler23EffectControlLinearizer27LowerTruncateTaggedToWord32EPNS1_4NodeE
Boostnote:_ZN2v88internal8compiler23EffectControlLinearizer28LowerCheckInternalizedStringEPNS1_4NodeES4_
Boostnote:_ZN2v88internal8compiler23EffectControlLinearizer28LowerFindOrderedHashMapEntryEPNS1_4NodeE
Boostnote:_ZN2v88internal8compiler23EffectControlLinearizer28LowerObjectIsArrayBufferViewEPNS1_4NodeE
Boostnote:_ZN2v88internal8compiler23EffectControlLinearizer28LowerPlainPrimitiveToFloat64EPNS1_4NodeE
Boostnote:_ZN2v88internal8compiler23EffectControlLinearizer28LowerStoreSignedSmallElementEPNS1_4NodeE
Boostnote:_ZN2v88internal8compiler23EffectControlLinearizer28LowerTruncateTaggedToFloat64EPNS1_4NodeE
Boostnote:_ZN2v88internal8compiler23EffectControlLinearizer29LowerStringFromSingleCharCodeEPNS1_4NodeE
Boostnote:_ZN2v88internal8compiler23EffectControlLinearizer30LowerChangeInt31ToTaggedSignedEPNS1_4NodeE
Boostnote:_ZN2v88internal8compiler23EffectControlLinearizer30LowerChangeTaggedSignedToInt32EPNS1_4NodeE
Boostnote:_ZN2v88internal8compiler23EffectControlLinearizer30LowerStringFromSingleCodePointEPNS1_4NodeE
Boostnote:_ZN2v88internal8compiler23EffectControlLinearizer30LowerTransitionAndStoreElementEPNS1_4NodeE
Boostnote:_ZN2v88internal8compiler23EffectControlLinearizer31LowerChangeTaggedToTaggedSignedEPNS1_4NodeE
Boostnote:_ZN2v88internal8compiler23EffectControlLinearizer31LowerCheckedInt32ToTaggedSignedEPNS1_4NodeES4_
Boostnote:_ZN2v88internal8compiler23EffectControlLinearizer31LowerCheckedTaggedSignedToInt32EPNS1_4NodeES4_
Boostnote:_ZN2v88internal8compiler23EffectControlLinearizer31LowerEnsureWritableFastElementsEPNS1_4NodeE
Boostnote:_ZN2v88internal8compiler23EffectControlLinearizer31LowerObjectIsDetectableCallableEPNS1_4NodeE
Boostnote:_ZN2v88internal8compiler23EffectControlLinearizer31LowerTruncateTaggedPointerToBitEPNS1_4NodeE
Boostnote:_ZN2v88internal8compiler23EffectControlLinearizer32LowerCheckedTaggedToTaggedSignedEPNS1_4NodeES4_
Boostnote:_ZN2v88internal8compiler23EffectControlLinearizer32LowerCheckedUint32ToTaggedSignedEPNS1_4NodeES4_
Boostnote:_ZN2v88internal8compiler23EffectControlLinearizer33LowerChangeFloat64ToTaggedPointerEPNS1_4NodeE
Boostnote:_ZN2v88internal8compiler23EffectControlLinearizer33LowerCheckedTaggedToTaggedPointerEPNS1_4NodeES4_
Boostnote:_ZN2v88internal8compiler23EffectControlLinearizer33LowerConvertTaggedHoleToUndefinedEPNS1_4NodeE
Boostnote:_ZN2v88internal8compiler23EffectControlLinearizer34LowerCheckEqualsInternalizedStringEPNS1_4NodeES4_
Boostnote:_ZN2v88internal8compiler23EffectControlLinearizer34LowerCheckedTruncateTaggedToWord32EPNS1_4NodeES4_
Boostnote:_ZN2v88internal8compiler23EffectControlLinearizer36LowerTransitionAndStoreNumberElementEPNS1_4NodeE
Boostnote:_ZN2v88internal8compiler23EffectControlLinearizer39LowerFindOrderedHashMapEntryForInt32KeyEPNS1_4NodeE
Boostnote:_ZN2v88internal8compiler23EffectControlLinearizer39LowerTransitionAndStoreNonNumberElementEPNS1_4NodeE
Boostnote:_ZN2v88internal8compiler23EffectControlLinearizer3RunEv
Boostnote:_ZN2v88internal8compiler23EffectControlLinearizer40BuildCheckedHeapNumberOrOddballToFloat64ENS1_20CheckTaggedInputModeERKNS0_14VectorSlotPairEPNS1_4NodeES8_
Boostnote:_ZN2v88internal8compiler23EffectControlLinearizerC1EPNS1_7JSGraphEPNS1_8ScheduleEPNS0_4ZoneEPNS1_19SourcePositionTableEPNS1_15NodeOriginTableENS2_20MaskArrayIndexEnableE
Boostnote:_ZN2v88internal8compiler23EffectControlLinearizerC2EPNS1_7JSGraphEPNS1_8ScheduleEPNS0_4ZoneEPNS1_19SourcePositionTableEPNS1_15NodeOriginTableENS2_20MaskArrayIndexEnableE
Boostnote:_ZN2v88internal8compiler24GetI32WasmCallDescriptorEPNS0_4ZoneEPNS1_14CallDescriptorE
Boostnote:_ZN2v88internal8compiler25SimplifiedOperatorBuilder10BooleanNotEv
Boostnote:_ZN2v88internal8compiler25SimplifiedOperatorBuilder10NumberAcosEv
Boostnote:_ZN2v88internal8compiler25SimplifiedOperatorBuilder10NumberAsinEv
Boostnote:_ZN2v88internal8compiler25SimplifiedOperatorBuilder10NumberAtanEv
Boostnote:_ZN2v88internal8compiler25SimplifiedOperatorBuilder10NumberCbrtEv
Boostnote:_ZN2v88internal8compiler25SimplifiedOperatorBuilder10NumberCeilEv
Boostnote:_ZN2v88internal8compiler25SimplifiedOperatorBuilder10NumberCoshEv
Boostnote:_ZN2v88internal8compiler25SimplifiedOperatorBuilder10NumberImulEv
Boostnote:_ZN2v88internal8compiler25SimplifiedOperatorBuilder10NumberLog2Ev
Boostnote:_ZN2v88internal8compiler25SimplifiedOperatorBuilder10NumberSignEv
Boostnote:_ZN2v88internal8compiler25SimplifiedOperatorBuilder10NumberSinhEv
Boostnote:_ZN2v88internal8compiler25SimplifiedOperatorBuilder10NumberSqrtEv
Boostnote:_ZN2v88internal8compiler25SimplifiedOperatorBuilder10NumberTanhEv
Boostnote:_ZN2v88internal8compiler25SimplifiedOperatorBuilder10StoreFieldERKNS1_11FieldAccessE
Boostnote:_ZN2v88internal8compiler25SimplifiedOperatorBuilder11AllocateRawENS1_4TypeENS0_13PretenureFlagE
Boostnote:_ZN2v88internal8compiler25SimplifiedOperatorBuilder11CheckBoundsERKNS0_14VectorSlotPairE
Boostnote:_ZN2v88internal8compiler25SimplifiedOperatorBuilder11CheckNumberERKNS0_14VectorSlotPairE
Boostnote:_ZN2v88internal8compiler25SimplifiedOperatorBuilder11CheckStringERKNS0_14VectorSlotPairE
Boostnote:_ZN2v88internal8compiler25SimplifiedOperatorBuilder11CheckSymbolEv
Boostnote:_ZN2v88internal8compiler25SimplifiedOperatorBuilder11CompareMapsENS0_13ZoneHandleSetINS0_3MapEEE
Boostnote:_ZN2v88internal8compiler25SimplifiedOperatorBuilder11LoadElementERKNS1_13ElementAccessE
Boostnote:_ZN2v88internal8compiler25SimplifiedOperatorBuilder11NumberAcoshEv
Boostnote:_ZN2v88internal8compiler25SimplifiedOperatorBuilder11NumberAsinhEv
Boostnote:_ZN2v88internal8compiler25SimplifiedOperatorBuilder11NumberAtan2Ev
Boostnote:_ZN2v88internal8compiler25SimplifiedOperatorBuilder11NumberAtanhEv
Boostnote:_ZN2v88internal8compiler25SimplifiedOperatorBuilder11NumberClz32Ev
Boostnote:_ZN2v88internal8compiler25SimplifiedOperatorBuilder11NumberEqualEv
Boostnote:_ZN2v88internal8compiler25SimplifiedOperatorBuilder11NumberExpm1Ev
Boostnote:_ZN2v88internal8compiler25SimplifiedOperatorBuilder11NumberFloorEv
Boostnote:_ZN2v88internal8compiler25SimplifiedOperatorBuilder11NumberIsNaNEv
Boostnote:_ZN2v88internal8compiler25SimplifiedOperatorBuilder11NumberLog10Ev
Boostnote:_ZN2v88internal8compiler25SimplifiedOperatorBuilder11NumberLog1pEv
Boostnote:_ZN2v88internal8compiler25SimplifiedOperatorBuilder11NumberRoundEv
Boostnote:_ZN2v88internal8compiler25SimplifiedOperatorBuilder11NumberTruncEv
Boostnote:_ZN2v88internal8compiler25SimplifiedOperatorBuilder11ObjectIsNaNEv
Boostnote:_ZN2v88internal8compiler25SimplifiedOperatorBuilder11ObjectIsSmiEv
Boostnote:_ZN2v88internal8compiler25SimplifiedOperatorBuilder11PoisonIndexEv
Boostnote:_ZN2v88internal8compiler25SimplifiedOperatorBuilder11StringEqualEv
Boostnote:_ZN2v88internal8compiler25SimplifiedOperatorBuilder12NumberDivideEv
Boostnote:_ZN2v88internal8compiler25SimplifiedOperatorBuilder12NumberFroundEv
Boostnote:_ZN2v88internal8compiler25SimplifiedOperatorBuilder12RuntimeAbortENS0_11AbortReasonE
Boostnote:_ZN2v88internal8compiler25SimplifiedOperatorBuilder12StoreElementERKNS1_13ElementAccessE
Boostnote:_ZN2v88internal8compiler25SimplifiedOperatorBuilder12StringLengthEv
Boostnote:_ZN2v88internal8compiler25SimplifiedOperatorBuilder13CheckReceiverEv
Boostnote:_ZN2v88internal8compiler25SimplifiedOperatorBuilder13NewConsStringEv
Boostnote:_ZN2v88internal8compiler25SimplifiedOperatorBuilder13NumberModulusEv
Boostnote:_ZN2v88internal8compiler25SimplifiedOperatorBuilder13NumberToInt32Ev
Boostnote:_ZN2v88internal8compiler25SimplifiedOperatorBuilder13StringIndexOfEv
Boostnote:_ZN2v88internal8compiler25SimplifiedOperatorBuilder14ArgumentsFrameEv
Boostnote:_ZN2v88internal8compiler25SimplifiedOperatorBuilder14NumberIsFiniteEv
Boostnote:_ZN2v88internal8compiler25SimplifiedOperatorBuilder14NumberLessThanEv
Boostnote:_ZN2v88internal8compiler25SimplifiedOperatorBuilder14NumberMultiplyEv
Boostnote:_ZN2v88internal8compiler25SimplifiedOperatorBuilder14NumberSubtractEv
